ARM GAS  C:\Users\q-bir\AppData\Local\Temp\ccIHogyD.s 			page 1


   1              		.cpu cortex-m4
   2              		.eabi_attribute 27, 1
   3              		.eabi_attribute 28, 1
   4              		.eabi_attribute 20, 1
   5              		.eabi_attribute 21, 1
   6              		.eabi_attribute 23, 3
   7              		.eabi_attribute 24, 1
   8              		.eabi_attribute 25, 1
   9              		.eabi_attribute 26, 1
  10              		.eabi_attribute 30, 4
  11              		.eabi_attribute 34, 1
  12              		.eabi_attribute 18, 4
  13              		.file	"stm32f3xx_hal_can.c"
  14              		.text
  15              		.section	.text.HAL_CAN_MspInit,"ax",%progbits
  16              		.align	1
  17              		.weak	HAL_CAN_MspInit
  18              		.arch armv7e-m
  19              		.syntax unified
  20              		.thumb
  21              		.thumb_func
  22              		.fpu fpv4-sp-d16
  24              	HAL_CAN_MspInit:
  25              		@ args = 0, pretend = 0, frame = 0
  26              		@ frame_needed = 0, uses_anonymous_args = 0
  27              		@ link register save eliminated.
  28 0000 7047     		bx	lr
  30              		.section	.text.HAL_CAN_Init,"ax",%progbits
  31              		.align	1
  32              		.global	HAL_CAN_Init
  33              		.syntax unified
  34              		.thumb
  35              		.thumb_func
  36              		.fpu fpv4-sp-d16
  38              	HAL_CAN_Init:
  39              		@ args = 0, pretend = 0, frame = 0
  40              		@ frame_needed = 0, uses_anonymous_args = 0
  41 0000 38B5     		push	{r3, r4, r5, lr}
  42 0002 0446     		mov	r4, r0
  43 0004 0028     		cmp	r0, #0
  44 0006 6ED0     		beq	.L21
  45 0008 90F82030 		ldrb	r3, [r0, #32]	@ zero_extendqisi2
  46 000c 0BB9     		cbnz	r3, .L4
  47 000e FFF7FEFF 		bl	HAL_CAN_MspInit
  48              	.L4:
  49 0012 2268     		ldr	r2, [r4]
  50 0014 1368     		ldr	r3, [r2]
  51 0016 23F00203 		bic	r3, r3, #2
  52 001a 1360     		str	r3, [r2]
  53 001c FFF7FEFF 		bl	HAL_GetTick
  54 0020 0546     		mov	r5, r0
  55              	.L5:
  56 0022 2368     		ldr	r3, [r4]
  57 0024 5A68     		ldr	r2, [r3, #4]
  58 0026 9107     		lsls	r1, r2, #30
  59 0028 51D4     		bmi	.L6
  60 002a 1A68     		ldr	r2, [r3]
ARM GAS  C:\Users\q-bir\AppData\Local\Temp\ccIHogyD.s 			page 2


  61 002c 42F00102 		orr	r2, r2, #1
  62 0030 1A60     		str	r2, [r3]
  63 0032 FFF7FEFF 		bl	HAL_GetTick
  64 0036 0546     		mov	r5, r0
  65              	.L7:
  66 0038 2368     		ldr	r3, [r4]
  67 003a 5A68     		ldr	r2, [r3, #4]
  68 003c D207     		lsls	r2, r2, #31
  69 003e 54D5     		bpl	.L8
  70 0040 227E     		ldrb	r2, [r4, #24]	@ zero_extendqisi2
  71 0042 012A     		cmp	r2, #1
  72 0044 1A68     		ldr	r2, [r3]
  73 0046 0CBF     		ite	eq
  74 0048 42F08002 		orreq	r2, r2, #128
  75 004c 22F08002 		bicne	r2, r2, #128
  76 0050 1A60     		str	r2, [r3]
  77 0052 627E     		ldrb	r2, [r4, #25]	@ zero_extendqisi2
  78 0054 012A     		cmp	r2, #1
  79 0056 1A68     		ldr	r2, [r3]
  80 0058 0CBF     		ite	eq
  81 005a 42F04002 		orreq	r2, r2, #64
  82 005e 22F04002 		bicne	r2, r2, #64
  83 0062 1A60     		str	r2, [r3]
  84 0064 A27E     		ldrb	r2, [r4, #26]	@ zero_extendqisi2
  85 0066 012A     		cmp	r2, #1
  86 0068 1A68     		ldr	r2, [r3]
  87 006a 0CBF     		ite	eq
  88 006c 42F02002 		orreq	r2, r2, #32
  89 0070 22F02002 		bicne	r2, r2, #32
  90 0074 1A60     		str	r2, [r3]
  91 0076 E27E     		ldrb	r2, [r4, #27]	@ zero_extendqisi2
  92 0078 012A     		cmp	r2, #1
  93 007a 1A68     		ldr	r2, [r3]
  94 007c 0CBF     		ite	eq
  95 007e 22F01002 		biceq	r2, r2, #16
  96 0082 42F01002 		orrne	r2, r2, #16
  97 0086 1A60     		str	r2, [r3]
  98 0088 227F     		ldrb	r2, [r4, #28]	@ zero_extendqisi2
  99 008a 012A     		cmp	r2, #1
 100 008c 1A68     		ldr	r2, [r3]
 101 008e 0CBF     		ite	eq
 102 0090 42F00802 		orreq	r2, r2, #8
 103 0094 22F00802 		bicne	r2, r2, #8
 104 0098 1A60     		str	r2, [r3]
 105 009a 627F     		ldrb	r2, [r4, #29]	@ zero_extendqisi2
 106 009c 012A     		cmp	r2, #1
 107 009e 1A68     		ldr	r2, [r3]
 108 00a0 0CBF     		ite	eq
 109 00a2 42F00402 		orreq	r2, r2, #4
 110 00a6 22F00402 		bicne	r2, r2, #4
 111 00aa 1A60     		str	r2, [r3]
 112 00ac D4E90221 		ldrd	r2, r1, [r4, #8]
 113 00b0 0A43     		orrs	r2, r2, r1
 114 00b2 2169     		ldr	r1, [r4, #16]
 115 00b4 0A43     		orrs	r2, r2, r1
 116 00b6 6169     		ldr	r1, [r4, #20]
 117 00b8 0A43     		orrs	r2, r2, r1
ARM GAS  C:\Users\q-bir\AppData\Local\Temp\ccIHogyD.s 			page 3


 118 00ba 6168     		ldr	r1, [r4, #4]
 119 00bc 0139     		subs	r1, r1, #1
 120 00be 0A43     		orrs	r2, r2, r1
 121 00c0 DA61     		str	r2, [r3, #28]
 122 00c2 0020     		movs	r0, #0
 123 00c4 0123     		movs	r3, #1
 124 00c6 6062     		str	r0, [r4, #36]
 125 00c8 84F82030 		strb	r3, [r4, #32]
 126              	.L3:
 127 00cc 38BD     		pop	{r3, r4, r5, pc}
 128              	.L6:
 129 00ce FFF7FEFF 		bl	HAL_GetTick
 130 00d2 401B     		subs	r0, r0, r5
 131 00d4 0A28     		cmp	r0, #10
 132 00d6 A4D9     		bls	.L5
 133              	.L30:
 134 00d8 636A     		ldr	r3, [r4, #36]
 135 00da 43F40033 		orr	r3, r3, #131072
 136 00de 6362     		str	r3, [r4, #36]
 137 00e0 0523     		movs	r3, #5
 138 00e2 84F82030 		strb	r3, [r4, #32]
 139              	.L21:
 140 00e6 0120     		movs	r0, #1
 141 00e8 F0E7     		b	.L3
 142              	.L8:
 143 00ea FFF7FEFF 		bl	HAL_GetTick
 144 00ee 401B     		subs	r0, r0, r5
 145 00f0 0A28     		cmp	r0, #10
 146 00f2 A1D9     		bls	.L7
 147 00f4 F0E7     		b	.L30
 149              		.section	.text.HAL_CAN_MspDeInit,"ax",%progbits
 150              		.align	1
 151              		.weak	HAL_CAN_MspDeInit
 152              		.syntax unified
 153              		.thumb
 154              		.thumb_func
 155              		.fpu fpv4-sp-d16
 157              	HAL_CAN_MspDeInit:
 158              		@ args = 0, pretend = 0, frame = 0
 159              		@ frame_needed = 0, uses_anonymous_args = 0
 160              		@ link register save eliminated.
 161 0000 7047     		bx	lr
 163              		.section	.text.HAL_CAN_ConfigFilter,"ax",%progbits
 164              		.align	1
 165              		.global	HAL_CAN_ConfigFilter
 166              		.syntax unified
 167              		.thumb
 168              		.thumb_func
 169              		.fpu fpv4-sp-d16
 171              	HAL_CAN_ConfigFilter:
 172              		@ args = 0, pretend = 0, frame = 0
 173              		@ frame_needed = 0, uses_anonymous_args = 0
 174 0000 70B5     		push	{r4, r5, r6, lr}
 175 0002 90F82030 		ldrb	r3, [r0, #32]	@ zero_extendqisi2
 176 0006 013B     		subs	r3, r3, #1
 177 0008 012B     		cmp	r3, #1
 178 000a 62D8     		bhi	.L33
ARM GAS  C:\Users\q-bir\AppData\Local\Temp\ccIHogyD.s 			page 4


 179 000c 0368     		ldr	r3, [r0]
 180 000e D3F80022 		ldr	r2, [r3, #512]
 181 0012 42F00102 		orr	r2, r2, #1
 182 0016 C3F80022 		str	r2, [r3, #512]
 183 001a 4A69     		ldr	r2, [r1, #20]
 184 001c D3F81C52 		ldr	r5, [r3, #540]
 185 0020 0124     		movs	r4, #1
 186 0022 02F01F00 		and	r0, r2, #31
 187 0026 04FA00F0 		lsl	r0, r4, r0
 188 002a 25EA0005 		bic	r5, r5, r0
 189 002e C3F81C52 		str	r5, [r3, #540]
 190 0032 CD69     		ldr	r5, [r1, #28]
 191 0034 C443     		mvns	r4, r0
 192 0036 85BB     		cbnz	r5, .L34
 193 0038 D3F80C52 		ldr	r5, [r3, #524]
 194 003c CE68     		ldr	r6, [r1, #12]
 195 003e 2540     		ands	r5, r5, r4
 196 0040 C3F80C52 		str	r5, [r3, #524]
 197 0044 8D88     		ldrh	r5, [r1, #4]
 198 0046 03EBC202 		add	r2, r3, r2, lsl #3
 199 004a 45EA0645 		orr	r5, r5, r6, lsl #16
 200 004e C2F84052 		str	r5, [r2, #576]
 201 0052 8E68     		ldr	r6, [r1, #8]
 202 0054 0D88     		ldrh	r5, [r1]
 203              	.L42:
 204 0056 45EA0645 		orr	r5, r5, r6, lsl #16
 205 005a C2F84452 		str	r5, [r2, #580]
 206              	.L35:
 207 005e 8A69     		ldr	r2, [r1, #24]
 208 0060 6ABB     		cbnz	r2, .L36
 209 0062 D3F80422 		ldr	r2, [r3, #516]
 210 0066 2240     		ands	r2, r2, r4
 211              	.L43:
 212 0068 C3F80422 		str	r2, [r3, #516]
 213 006c 0A69     		ldr	r2, [r1, #16]
 214 006e 52BB     		cbnz	r2, .L38
 215 0070 D3F81422 		ldr	r2, [r3, #532]
 216 0074 1440     		ands	r4, r4, r2
 217 0076 C3F81442 		str	r4, [r3, #532]
 218              	.L39:
 219 007a 0A6A     		ldr	r2, [r1, #32]
 220 007c 012A     		cmp	r2, #1
 221 007e 02BF     		ittt	eq
 222 0080 D3F81C22 		ldreq	r2, [r3, #540]
 223 0084 1043     		orreq	r0, r0, r2
 224 0086 C3F81C02 		streq	r0, [r3, #540]
 225 008a D3F80022 		ldr	r2, [r3, #512]
 226 008e 22F00102 		bic	r2, r2, #1
 227 0092 C3F80022 		str	r2, [r3, #512]
 228 0096 0020     		movs	r0, #0
 229              	.L41:
 230 0098 70BD     		pop	{r4, r5, r6, pc}
 231              	.L34:
 232 009a 012D     		cmp	r5, #1
 233 009c DFD1     		bne	.L35
 234 009e D3F80C52 		ldr	r5, [r3, #524]
 235 00a2 0E68     		ldr	r6, [r1]
ARM GAS  C:\Users\q-bir\AppData\Local\Temp\ccIHogyD.s 			page 5


 236 00a4 0543     		orrs	r5, r5, r0
 237 00a6 C3F80C52 		str	r5, [r3, #524]
 238 00aa 8D88     		ldrh	r5, [r1, #4]
 239 00ac 03EBC202 		add	r2, r3, r2, lsl #3
 240 00b0 45EA0645 		orr	r5, r5, r6, lsl #16
 241 00b4 C2F84052 		str	r5, [r2, #576]
 242 00b8 8E68     		ldr	r6, [r1, #8]
 243 00ba 8D89     		ldrh	r5, [r1, #12]
 244 00bc CBE7     		b	.L42
 245              	.L36:
 246 00be D3F80422 		ldr	r2, [r3, #516]
 247 00c2 0243     		orrs	r2, r2, r0
 248 00c4 D0E7     		b	.L43
 249              	.L38:
 250 00c6 D3F81422 		ldr	r2, [r3, #532]
 251 00ca 0243     		orrs	r2, r2, r0
 252 00cc C3F81422 		str	r2, [r3, #532]
 253 00d0 D3E7     		b	.L39
 254              	.L33:
 255 00d2 436A     		ldr	r3, [r0, #36]
 256 00d4 43F48023 		orr	r3, r3, #262144
 257 00d8 4362     		str	r3, [r0, #36]
 258 00da 0120     		movs	r0, #1
 259 00dc DCE7     		b	.L41
 261              		.section	.text.HAL_CAN_Start,"ax",%progbits
 262              		.align	1
 263              		.global	HAL_CAN_Start
 264              		.syntax unified
 265              		.thumb
 266              		.thumb_func
 267              		.fpu fpv4-sp-d16
 269              	HAL_CAN_Start:
 270              		@ args = 0, pretend = 0, frame = 0
 271              		@ frame_needed = 0, uses_anonymous_args = 0
 272 0000 70B5     		push	{r4, r5, r6, lr}
 273 0002 90F82030 		ldrb	r3, [r0, #32]	@ zero_extendqisi2
 274 0006 012B     		cmp	r3, #1
 275 0008 0446     		mov	r4, r0
 276 000a DDB2     		uxtb	r5, r3
 277 000c 20D1     		bne	.L45
 278 000e 0268     		ldr	r2, [r0]
 279 0010 0223     		movs	r3, #2
 280 0012 80F82030 		strb	r3, [r0, #32]
 281 0016 1368     		ldr	r3, [r2]
 282 0018 23F00103 		bic	r3, r3, #1
 283 001c 1360     		str	r3, [r2]
 284 001e FFF7FEFF 		bl	HAL_GetTick
 285 0022 0646     		mov	r6, r0
 286              	.L46:
 287 0024 2368     		ldr	r3, [r4]
 288 0026 5B68     		ldr	r3, [r3, #4]
 289 0028 13F00103 		ands	r3, r3, #1
 290 002c 02D1     		bne	.L48
 291 002e 6362     		str	r3, [r4, #36]
 292 0030 1D46     		mov	r5, r3
 293 0032 0BE0     		b	.L47
 294              	.L48:
ARM GAS  C:\Users\q-bir\AppData\Local\Temp\ccIHogyD.s 			page 6


 295 0034 FFF7FEFF 		bl	HAL_GetTick
 296 0038 801B     		subs	r0, r0, r6
 297 003a 0A28     		cmp	r0, #10
 298 003c F2D9     		bls	.L46
 299 003e 636A     		ldr	r3, [r4, #36]
 300 0040 43F40033 		orr	r3, r3, #131072
 301 0044 6362     		str	r3, [r4, #36]
 302 0046 0523     		movs	r3, #5
 303 0048 84F82030 		strb	r3, [r4, #32]
 304              	.L47:
 305 004c 2846     		mov	r0, r5
 306 004e 70BD     		pop	{r4, r5, r6, pc}
 307              	.L45:
 308 0050 436A     		ldr	r3, [r0, #36]
 309 0052 43F40023 		orr	r3, r3, #524288
 310 0056 4362     		str	r3, [r0, #36]
 311 0058 0125     		movs	r5, #1
 312 005a F7E7     		b	.L47
 314              		.section	.text.HAL_CAN_Stop,"ax",%progbits
 315              		.align	1
 316              		.global	HAL_CAN_Stop
 317              		.syntax unified
 318              		.thumb
 319              		.thumb_func
 320              		.fpu fpv4-sp-d16
 322              	HAL_CAN_Stop:
 323              		@ args = 0, pretend = 0, frame = 0
 324              		@ frame_needed = 0, uses_anonymous_args = 0
 325 0000 38B5     		push	{r3, r4, r5, lr}
 326 0002 90F82030 		ldrb	r3, [r0, #32]	@ zero_extendqisi2
 327 0006 022B     		cmp	r3, #2
 328 0008 0446     		mov	r4, r0
 329 000a 22D1     		bne	.L51
 330 000c 0268     		ldr	r2, [r0]
 331 000e 1368     		ldr	r3, [r2]
 332 0010 43F00103 		orr	r3, r3, #1
 333 0014 1360     		str	r3, [r2]
 334 0016 FFF7FEFF 		bl	HAL_GetTick
 335 001a 0546     		mov	r5, r0
 336              	.L52:
 337 001c 2368     		ldr	r3, [r4]
 338 001e 5A68     		ldr	r2, [r3, #4]
 339 0020 D207     		lsls	r2, r2, #31
 340 0022 08D5     		bpl	.L54
 341 0024 1A68     		ldr	r2, [r3]
 342 0026 22F00202 		bic	r2, r2, #2
 343 002a 1A60     		str	r2, [r3]
 344 002c 0123     		movs	r3, #1
 345 002e 84F82030 		strb	r3, [r4, #32]
 346 0032 0020     		movs	r0, #0
 347              	.L53:
 348 0034 38BD     		pop	{r3, r4, r5, pc}
 349              	.L54:
 350 0036 FFF7FEFF 		bl	HAL_GetTick
 351 003a 401B     		subs	r0, r0, r5
 352 003c 0A28     		cmp	r0, #10
 353 003e EDD9     		bls	.L52
ARM GAS  C:\Users\q-bir\AppData\Local\Temp\ccIHogyD.s 			page 7


 354 0040 636A     		ldr	r3, [r4, #36]
 355 0042 43F40033 		orr	r3, r3, #131072
 356 0046 6362     		str	r3, [r4, #36]
 357 0048 0523     		movs	r3, #5
 358 004a 84F82030 		strb	r3, [r4, #32]
 359              	.L56:
 360 004e 0120     		movs	r0, #1
 361 0050 F0E7     		b	.L53
 362              	.L51:
 363 0052 436A     		ldr	r3, [r0, #36]
 364 0054 43F48013 		orr	r3, r3, #1048576
 365 0058 4362     		str	r3, [r0, #36]
 366 005a F8E7     		b	.L56
 368              		.section	.text.HAL_CAN_DeInit,"ax",%progbits
 369              		.align	1
 370              		.global	HAL_CAN_DeInit
 371              		.syntax unified
 372              		.thumb
 373              		.thumb_func
 374              		.fpu fpv4-sp-d16
 376              	HAL_CAN_DeInit:
 377              		@ args = 0, pretend = 0, frame = 0
 378              		@ frame_needed = 0, uses_anonymous_args = 0
 379 0000 10B5     		push	{r4, lr}
 380 0002 0446     		mov	r4, r0
 381 0004 70B1     		cbz	r0, .L59
 382 0006 FFF7FEFF 		bl	HAL_CAN_Stop
 383 000a 2046     		mov	r0, r4
 384 000c FFF7FEFF 		bl	HAL_CAN_MspDeInit
 385 0010 2268     		ldr	r2, [r4]
 386 0012 1368     		ldr	r3, [r2]
 387 0014 0020     		movs	r0, #0
 388 0016 43F40043 		orr	r3, r3, #32768
 389 001a 1360     		str	r3, [r2]
 390 001c 6062     		str	r0, [r4, #36]
 391 001e 84F82000 		strb	r0, [r4, #32]
 392              	.L58:
 393 0022 10BD     		pop	{r4, pc}
 394              	.L59:
 395 0024 0120     		movs	r0, #1
 396 0026 FCE7     		b	.L58
 398              		.section	.text.HAL_CAN_RequestSleep,"ax",%progbits
 399              		.align	1
 400              		.global	HAL_CAN_RequestSleep
 401              		.syntax unified
 402              		.thumb
 403              		.thumb_func
 404              		.fpu fpv4-sp-d16
 406              	HAL_CAN_RequestSleep:
 407              		@ args = 0, pretend = 0, frame = 0
 408              		@ frame_needed = 0, uses_anonymous_args = 0
 409              		@ link register save eliminated.
 410 0000 90F82030 		ldrb	r3, [r0, #32]	@ zero_extendqisi2
 411 0004 013B     		subs	r3, r3, #1
 412 0006 012B     		cmp	r3, #1
 413 0008 06D8     		bhi	.L61
 414 000a 0268     		ldr	r2, [r0]
ARM GAS  C:\Users\q-bir\AppData\Local\Temp\ccIHogyD.s 			page 8


 415 000c 1368     		ldr	r3, [r2]
 416 000e 43F00203 		orr	r3, r3, #2
 417 0012 1360     		str	r3, [r2]
 418 0014 0020     		movs	r0, #0
 419 0016 7047     		bx	lr
 420              	.L61:
 421 0018 436A     		ldr	r3, [r0, #36]
 422 001a 43F48023 		orr	r3, r3, #262144
 423 001e 4362     		str	r3, [r0, #36]
 424 0020 0120     		movs	r0, #1
 425 0022 7047     		bx	lr
 427              		.section	.text.HAL_CAN_WakeUp,"ax",%progbits
 428              		.align	1
 429              		.global	HAL_CAN_WakeUp
 430              		.syntax unified
 431              		.thumb
 432              		.thumb_func
 433              		.fpu fpv4-sp-d16
 435              	HAL_CAN_WakeUp:
 436              		@ args = 0, pretend = 0, frame = 8
 437              		@ frame_needed = 0, uses_anonymous_args = 0
 438              		@ link register save eliminated.
 439 0000 82B0     		sub	sp, sp, #8
 440 0002 0023     		movs	r3, #0
 441 0004 0193     		str	r3, [sp, #4]
 442 0006 90F82030 		ldrb	r3, [r0, #32]	@ zero_extendqisi2
 443 000a 013B     		subs	r3, r3, #1
 444 000c 012B     		cmp	r3, #1
 445 000e 18D8     		bhi	.L64
 446 0010 0268     		ldr	r2, [r0]
 447 0012 0E49     		ldr	r1, .L70
 448 0014 1368     		ldr	r3, [r2]
 449 0016 23F00203 		bic	r3, r3, #2
 450 001a 1360     		str	r3, [r2]
 451              	.L67:
 452 001c 019B     		ldr	r3, [sp, #4]
 453 001e 0133     		adds	r3, r3, #1
 454 0020 0193     		str	r3, [sp, #4]
 455 0022 019B     		ldr	r3, [sp, #4]
 456 0024 8B42     		cmp	r3, r1
 457 0026 05D9     		bls	.L65
 458 0028 436A     		ldr	r3, [r0, #36]
 459 002a 43F40033 		orr	r3, r3, #131072
 460              	.L69:
 461 002e 4362     		str	r3, [r0, #36]
 462 0030 0120     		movs	r0, #1
 463 0032 04E0     		b	.L66
 464              	.L65:
 465 0034 5368     		ldr	r3, [r2, #4]
 466 0036 13F00203 		ands	r3, r3, #2
 467 003a EFD1     		bne	.L67
 468 003c 1846     		mov	r0, r3
 469              	.L66:
 470 003e 02B0     		add	sp, sp, #8
 471              		@ sp needed
 472 0040 7047     		bx	lr
 473              	.L64:
ARM GAS  C:\Users\q-bir\AppData\Local\Temp\ccIHogyD.s 			page 9


 474 0042 436A     		ldr	r3, [r0, #36]
 475 0044 43F48023 		orr	r3, r3, #262144
 476 0048 F1E7     		b	.L69
 477              	.L71:
 478 004a 00BF     		.align	2
 479              	.L70:
 480 004c 40420F00 		.word	1000000
 482              		.section	.text.HAL_CAN_IsSleepActive,"ax",%progbits
 483              		.align	1
 484              		.global	HAL_CAN_IsSleepActive
 485              		.syntax unified
 486              		.thumb
 487              		.thumb_func
 488              		.fpu fpv4-sp-d16
 490              	HAL_CAN_IsSleepActive:
 491              		@ args = 0, pretend = 0, frame = 0
 492              		@ frame_needed = 0, uses_anonymous_args = 0
 493              		@ link register save eliminated.
 494 0000 90F82030 		ldrb	r3, [r0, #32]	@ zero_extendqisi2
 495 0004 013B     		subs	r3, r3, #1
 496 0006 012B     		cmp	r3, #1
 497 0008 9DBF     		ittte	ls
 498 000a 0368     		ldrls	r3, [r0]
 499 000c 5868     		ldrls	r0, [r3, #4]
 500 000e C0F34000 		ubfxls	r0, r0, #1, #1
 501 0012 0020     		movhi	r0, #0
 502 0014 7047     		bx	lr
 504              		.section	.text.HAL_CAN_AddTxMessage,"ax",%progbits
 505              		.align	1
 506              		.global	HAL_CAN_AddTxMessage
 507              		.syntax unified
 508              		.thumb
 509              		.thumb_func
 510              		.fpu fpv4-sp-d16
 512              	HAL_CAN_AddTxMessage:
 513              		@ args = 0, pretend = 0, frame = 0
 514              		@ frame_needed = 0, uses_anonymous_args = 0
 515 0000 F0B5     		push	{r4, r5, r6, r7, lr}
 516 0002 90F82050 		ldrb	r5, [r0, #32]	@ zero_extendqisi2
 517 0006 0668     		ldr	r6, [r0]
 518 0008 013D     		subs	r5, r5, #1
 519 000a 012D     		cmp	r5, #1
 520 000c B468     		ldr	r4, [r6, #8]
 521 000e 43D8     		bhi	.L76
 522 0010 14F0E05F 		tst	r4, #469762048
 523 0014 3CD0     		beq	.L77
 524 0016 C4F30164 		ubfx	r4, r4, #24, #2
 525 001a 032C     		cmp	r4, #3
 526 001c 4FF00105 		mov	r5, #1
 527 0020 05D1     		bne	.L78
 528 0022 436A     		ldr	r3, [r0, #36]
 529 0024 43F40003 		orr	r3, r3, #8388608
 530              	.L84:
 531 0028 4362     		str	r3, [r0, #36]
 532 002a 0120     		movs	r0, #1
 533 002c 2AE0     		b	.L79
 534              	.L78:
ARM GAS  C:\Users\q-bir\AppData\Local\Temp\ccIHogyD.s 			page 10


 535 002e A540     		lsls	r5, r5, r4
 536 0030 1D60     		str	r5, [r3]
 537 0032 D1E90207 		ldrd	r0, r7, [r1, #8]
 538 0036 04F11803 		add	r3, r4, #24
 539 003a 20BB     		cbnz	r0, .L80
 540 003c 0868     		ldr	r0, [r1]
 541 003e 47EA4050 		orr	r0, r7, r0, lsl #21
 542              	.L83:
 543 0042 1B01     		lsls	r3, r3, #4
 544 0044 F050     		str	r0, [r6, r3]
 545 0046 06EB0413 		add	r3, r6, r4, lsl #4
 546 004a 0D69     		ldr	r5, [r1, #16]
 547 004c C3F88451 		str	r5, [r3, #388]
 548 0050 097D     		ldrb	r1, [r1, #20]	@ zero_extendqisi2
 549 0052 0129     		cmp	r1, #1
 550 0054 08BF     		it	eq
 551 0056 D3F88411 		ldreq	r1, [r3, #388]
 552 005a 4FEA0410 		lsl	r0, r4, #4
 553 005e 04BF     		itt	eq
 554 0060 41F48071 		orreq	r1, r1, #256
 555 0064 C3F88411 		streq	r1, [r3, #388]
 556 0068 0644     		add	r6, r6, r0
 557 006a 5168     		ldr	r1, [r2, #4]	@ unaligned
 558 006c C6F88C11 		str	r1, [r6, #396]
 559 0070 1268     		ldr	r2, [r2]	@ unaligned
 560 0072 C6F88821 		str	r2, [r6, #392]
 561 0076 D3F88021 		ldr	r2, [r3, #384]
 562 007a 42F00102 		orr	r2, r2, #1
 563 007e C3F88021 		str	r2, [r3, #384]
 564 0082 0020     		movs	r0, #0
 565              	.L79:
 566 0084 F0BD     		pop	{r4, r5, r6, r7, pc}
 567              	.L80:
 568 0086 4D68     		ldr	r5, [r1, #4]
 569 0088 3843     		orrs	r0, r0, r7
 570 008a 40EAC500 		orr	r0, r0, r5, lsl #3
 571 008e D8E7     		b	.L83
 572              	.L77:
 573 0090 436A     		ldr	r3, [r0, #36]
 574 0092 43F40013 		orr	r3, r3, #2097152
 575 0096 C7E7     		b	.L84
 576              	.L76:
 577 0098 436A     		ldr	r3, [r0, #36]
 578 009a 43F48023 		orr	r3, r3, #262144
 579 009e C3E7     		b	.L84
 581              		.section	.text.HAL_CAN_AbortTxRequest,"ax",%progbits
 582              		.align	1
 583              		.global	HAL_CAN_AbortTxRequest
 584              		.syntax unified
 585              		.thumb
 586              		.thumb_func
 587              		.fpu fpv4-sp-d16
 589              	HAL_CAN_AbortTxRequest:
 590              		@ args = 0, pretend = 0, frame = 0
 591              		@ frame_needed = 0, uses_anonymous_args = 0
 592              		@ link register save eliminated.
 593 0000 90F82030 		ldrb	r3, [r0, #32]	@ zero_extendqisi2
ARM GAS  C:\Users\q-bir\AppData\Local\Temp\ccIHogyD.s 			page 11


 594 0004 013B     		subs	r3, r3, #1
 595 0006 012B     		cmp	r3, #1
 596 0008 17D8     		bhi	.L86
 597 000a CA07     		lsls	r2, r1, #31
 598 000c 41BF     		itttt	mi
 599 000e 0268     		ldrmi	r2, [r0]
 600 0010 9368     		ldrmi	r3, [r2, #8]
 601 0012 43F08003 		orrmi	r3, r3, #128
 602 0016 9360     		strmi	r3, [r2, #8]
 603 0018 8B07     		lsls	r3, r1, #30
 604 001a 41BF     		itttt	mi
 605 001c 0268     		ldrmi	r2, [r0]
 606 001e 9368     		ldrmi	r3, [r2, #8]
 607 0020 43F40043 		orrmi	r3, r3, #32768
 608 0024 9360     		strmi	r3, [r2, #8]
 609 0026 11F00401 		ands	r1, r1, #4
 610 002a 1FBF     		itttt	ne
 611 002c 0268     		ldrne	r2, [r0]
 612 002e 9368     		ldrne	r3, [r2, #8]
 613 0030 43F40003 		orrne	r3, r3, #8388608
 614 0034 9360     		strne	r3, [r2, #8]
 615 0036 0020     		movs	r0, #0
 616 0038 7047     		bx	lr
 617              	.L86:
 618 003a 436A     		ldr	r3, [r0, #36]
 619 003c 43F48023 		orr	r3, r3, #262144
 620 0040 4362     		str	r3, [r0, #36]
 621 0042 0120     		movs	r0, #1
 622 0044 7047     		bx	lr
 624              		.section	.text.HAL_CAN_GetTxMailboxesFreeLevel,"ax",%progbits
 625              		.align	1
 626              		.global	HAL_CAN_GetTxMailboxesFreeLevel
 627              		.syntax unified
 628              		.thumb
 629              		.thumb_func
 630              		.fpu fpv4-sp-d16
 632              	HAL_CAN_GetTxMailboxesFreeLevel:
 633              		@ args = 0, pretend = 0, frame = 0
 634              		@ frame_needed = 0, uses_anonymous_args = 0
 635              		@ link register save eliminated.
 636 0000 90F82030 		ldrb	r3, [r0, #32]	@ zero_extendqisi2
 637 0004 013B     		subs	r3, r3, #1
 638 0006 012B     		cmp	r3, #1
 639 0008 0CD8     		bhi	.L101
 640 000a 0368     		ldr	r3, [r0]
 641 000c 9868     		ldr	r0, [r3, #8]
 642 000e 9A68     		ldr	r2, [r3, #8]
 643 0010 9B68     		ldr	r3, [r3, #8]
 644 0012 1201     		lsls	r2, r2, #4
 645 0014 C0F38060 		ubfx	r0, r0, #26, #1
 646 0018 48BF     		it	mi
 647 001a 0130     		addmi	r0, r0, #1
 648 001c DB00     		lsls	r3, r3, #3
 649 001e 02D5     		bpl	.L98
 650 0020 0130     		adds	r0, r0, #1
 651 0022 7047     		bx	lr
 652              	.L101:
ARM GAS  C:\Users\q-bir\AppData\Local\Temp\ccIHogyD.s 			page 12


 653 0024 0020     		movs	r0, #0
 654              	.L98:
 655 0026 7047     		bx	lr
 657              		.section	.text.HAL_CAN_IsTxMessagePending,"ax",%progbits
 658              		.align	1
 659              		.global	HAL_CAN_IsTxMessagePending
 660              		.syntax unified
 661              		.thumb
 662              		.thumb_func
 663              		.fpu fpv4-sp-d16
 665              	HAL_CAN_IsTxMessagePending:
 666              		@ args = 0, pretend = 0, frame = 0
 667              		@ frame_needed = 0, uses_anonymous_args = 0
 668              		@ link register save eliminated.
 669 0000 90F82030 		ldrb	r3, [r0, #32]	@ zero_extendqisi2
 670 0004 013B     		subs	r3, r3, #1
 671 0006 012B     		cmp	r3, #1
 672 0008 09D8     		bhi	.L110
 673 000a 0368     		ldr	r3, [r0]
 674 000c 9B68     		ldr	r3, [r3, #8]
 675 000e 03EA8163 		and	r3, r3, r1, lsl #26
 676 0012 B3EB816F 		cmp	r3, r1, lsl #26
 677 0016 14BF     		ite	ne
 678 0018 0120     		movne	r0, #1
 679 001a 0020     		moveq	r0, #0
 680 001c 7047     		bx	lr
 681              	.L110:
 682 001e 0020     		movs	r0, #0
 683 0020 7047     		bx	lr
 685              		.section	.text.HAL_CAN_GetTxTimestamp,"ax",%progbits
 686              		.align	1
 687              		.global	HAL_CAN_GetTxTimestamp
 688              		.syntax unified
 689              		.thumb
 690              		.thumb_func
 691              		.fpu fpv4-sp-d16
 693              	HAL_CAN_GetTxTimestamp:
 694              		@ args = 0, pretend = 0, frame = 0
 695              		@ frame_needed = 0, uses_anonymous_args = 0
 696              		@ link register save eliminated.
 697 0000 90F82030 		ldrb	r3, [r0, #32]	@ zero_extendqisi2
 698 0004 013B     		subs	r3, r3, #1
 699 0006 012B     		cmp	r3, #1
 700 0008 0AD8     		bhi	.L113
 701              		.syntax unified
 702              	@ 531 "Drivers/CMSIS/Include/cmsis_gcc.h" 1
 703 000a 91FAA1F1 		rbit r1, r1
 704              	@ 0 "" 2
 705              		.thumb
 706              		.syntax unified
 707 000e 0268     		ldr	r2, [r0]
 708 0010 B1FA81F3 		clz	r3, r1
 709 0014 1833     		adds	r3, r3, #24
 710 0016 02EB0313 		add	r3, r2, r3, lsl #4
 711 001a 5868     		ldr	r0, [r3, #4]
 712 001c 000C     		lsrs	r0, r0, #16
 713 001e 7047     		bx	lr
ARM GAS  C:\Users\q-bir\AppData\Local\Temp\ccIHogyD.s 			page 13


 714              	.L113:
 715 0020 0020     		movs	r0, #0
 716 0022 7047     		bx	lr
 718              		.section	.text.HAL_CAN_GetRxMessage,"ax",%progbits
 719              		.align	1
 720              		.global	HAL_CAN_GetRxMessage
 721              		.syntax unified
 722              		.thumb
 723              		.thumb_func
 724              		.fpu fpv4-sp-d16
 726              	HAL_CAN_GetRxMessage:
 727              		@ args = 0, pretend = 0, frame = 0
 728              		@ frame_needed = 0, uses_anonymous_args = 0
 729 0000 F0B5     		push	{r4, r5, r6, r7, lr}
 730 0002 90F82040 		ldrb	r4, [r0, #32]	@ zero_extendqisi2
 731 0006 013C     		subs	r4, r4, #1
 732 0008 012C     		cmp	r4, #1
 733 000a 6CD8     		bhi	.L115
 734 000c 0668     		ldr	r6, [r0]
 735 000e 41B9     		cbnz	r1, .L116
 736 0010 F468     		ldr	r4, [r6, #12]
 737              	.L126:
 738 0012 A407     		lsls	r4, r4, #30
 739 0014 07D1     		bne	.L117
 740 0016 436A     		ldr	r3, [r0, #36]
 741 0018 43F40013 		orr	r3, r3, #2097152
 742              	.L122:
 743 001c 4362     		str	r3, [r0, #36]
 744 001e 0120     		movs	r0, #1
 745 0020 56E0     		b	.L118
 746              	.L116:
 747 0022 3469     		ldr	r4, [r6, #16]
 748 0024 F5E7     		b	.L126
 749              	.L117:
 750 0026 06EB0115 		add	r5, r6, r1, lsl #4
 751 002a 0C01     		lsls	r4, r1, #4
 752 002c D5F8B071 		ldr	r7, [r5, #432]
 753 0030 07F00407 		and	r7, r7, #4
 754 0034 9760     		str	r7, [r2, #8]
 755 0036 002F     		cmp	r7, #0
 756 0038 4BD1     		bne	.L119
 757 003a D5F8B071 		ldr	r7, [r5, #432]
 758 003e 7F0D     		lsrs	r7, r7, #21
 759 0040 1760     		str	r7, [r2]
 760              	.L120:
 761 0042 D5F8B071 		ldr	r7, [r5, #432]
 762 0046 C7F34007 		ubfx	r7, r7, #1, #1
 763 004a D760     		str	r7, [r2, #12]
 764 004c D5F8B471 		ldr	r7, [r5, #436]
 765 0050 07F00F07 		and	r7, r7, #15
 766 0054 1761     		str	r7, [r2, #16]
 767 0056 D5F8B471 		ldr	r7, [r5, #436]
 768 005a D5F8B451 		ldr	r5, [r5, #436]
 769 005e 2644     		add	r6, r6, r4
 770 0060 C7F30727 		ubfx	r7, r7, #8, #8
 771 0064 2D0C     		lsrs	r5, r5, #16
 772 0066 9761     		str	r7, [r2, #24]
ARM GAS  C:\Users\q-bir\AppData\Local\Temp\ccIHogyD.s 			page 14


 773 0068 5561     		str	r5, [r2, #20]
 774 006a D6F8B821 		ldr	r2, [r6, #440]
 775 006e 1A70     		strb	r2, [r3]
 776 0070 0268     		ldr	r2, [r0]
 777 0072 2244     		add	r2, r2, r4
 778 0074 D2F8B821 		ldr	r2, [r2, #440]
 779 0078 120A     		lsrs	r2, r2, #8
 780 007a 5A70     		strb	r2, [r3, #1]
 781 007c 0268     		ldr	r2, [r0]
 782 007e 2244     		add	r2, r2, r4
 783 0080 D2F8B821 		ldr	r2, [r2, #440]
 784 0084 120C     		lsrs	r2, r2, #16
 785 0086 9A70     		strb	r2, [r3, #2]
 786 0088 0268     		ldr	r2, [r0]
 787 008a 2244     		add	r2, r2, r4
 788 008c D2F8B821 		ldr	r2, [r2, #440]
 789 0090 120E     		lsrs	r2, r2, #24
 790 0092 DA70     		strb	r2, [r3, #3]
 791 0094 0268     		ldr	r2, [r0]
 792 0096 2244     		add	r2, r2, r4
 793 0098 D2F8BC21 		ldr	r2, [r2, #444]
 794 009c 1A71     		strb	r2, [r3, #4]
 795 009e 0268     		ldr	r2, [r0]
 796 00a0 2244     		add	r2, r2, r4
 797 00a2 D2F8BC21 		ldr	r2, [r2, #444]
 798 00a6 120A     		lsrs	r2, r2, #8
 799 00a8 5A71     		strb	r2, [r3, #5]
 800 00aa 0268     		ldr	r2, [r0]
 801 00ac 2244     		add	r2, r2, r4
 802 00ae D2F8BC21 		ldr	r2, [r2, #444]
 803 00b2 120C     		lsrs	r2, r2, #16
 804 00b4 9A71     		strb	r2, [r3, #6]
 805 00b6 0268     		ldr	r2, [r0]
 806 00b8 1444     		add	r4, r4, r2
 807 00ba D4F8BC21 		ldr	r2, [r4, #444]
 808 00be 120E     		lsrs	r2, r2, #24
 809 00c0 DA71     		strb	r2, [r3, #7]
 810 00c2 0368     		ldr	r3, [r0]
 811 00c4 51B9     		cbnz	r1, .L121
 812 00c6 DA68     		ldr	r2, [r3, #12]
 813 00c8 42F02002 		orr	r2, r2, #32
 814 00cc DA60     		str	r2, [r3, #12]
 815              	.L123:
 816 00ce 0020     		movs	r0, #0
 817              	.L118:
 818 00d0 F0BD     		pop	{r4, r5, r6, r7, pc}
 819              	.L119:
 820 00d2 D5F8B071 		ldr	r7, [r5, #432]
 821 00d6 FF08     		lsrs	r7, r7, #3
 822 00d8 5760     		str	r7, [r2, #4]
 823 00da B2E7     		b	.L120
 824              	.L121:
 825 00dc 1A69     		ldr	r2, [r3, #16]
 826 00de 42F02002 		orr	r2, r2, #32
 827 00e2 1A61     		str	r2, [r3, #16]
 828 00e4 F3E7     		b	.L123
 829              	.L115:
ARM GAS  C:\Users\q-bir\AppData\Local\Temp\ccIHogyD.s 			page 15


 830 00e6 436A     		ldr	r3, [r0, #36]
 831 00e8 43F48023 		orr	r3, r3, #262144
 832 00ec 96E7     		b	.L122
 834              		.section	.text.HAL_CAN_GetRxFifoFillLevel,"ax",%progbits
 835              		.align	1
 836              		.global	HAL_CAN_GetRxFifoFillLevel
 837              		.syntax unified
 838              		.thumb
 839              		.thumb_func
 840              		.fpu fpv4-sp-d16
 842              	HAL_CAN_GetRxFifoFillLevel:
 843              		@ args = 0, pretend = 0, frame = 0
 844              		@ frame_needed = 0, uses_anonymous_args = 0
 845              		@ link register save eliminated.
 846 0000 90F82030 		ldrb	r3, [r0, #32]	@ zero_extendqisi2
 847 0004 013B     		subs	r3, r3, #1
 848 0006 012B     		cmp	r3, #1
 849 0008 07D8     		bhi	.L130
 850 000a 0368     		ldr	r3, [r0]
 851 000c 19B9     		cbnz	r1, .L129
 852 000e D868     		ldr	r0, [r3, #12]
 853              	.L131:
 854 0010 00F00300 		and	r0, r0, #3
 855 0014 7047     		bx	lr
 856              	.L129:
 857 0016 1869     		ldr	r0, [r3, #16]
 858 0018 FAE7     		b	.L131
 859              	.L130:
 860 001a 0020     		movs	r0, #0
 861 001c 7047     		bx	lr
 863              		.section	.text.HAL_CAN_ActivateNotification,"ax",%progbits
 864              		.align	1
 865              		.global	HAL_CAN_ActivateNotification
 866              		.syntax unified
 867              		.thumb
 868              		.thumb_func
 869              		.fpu fpv4-sp-d16
 871              	HAL_CAN_ActivateNotification:
 872              		@ args = 0, pretend = 0, frame = 0
 873              		@ frame_needed = 0, uses_anonymous_args = 0
 874              		@ link register save eliminated.
 875 0000 90F82030 		ldrb	r3, [r0, #32]	@ zero_extendqisi2
 876 0004 013B     		subs	r3, r3, #1
 877 0006 012B     		cmp	r3, #1
 878 0008 05D8     		bhi	.L133
 879 000a 0268     		ldr	r2, [r0]
 880 000c 5369     		ldr	r3, [r2, #20]
 881 000e 1943     		orrs	r1, r1, r3
 882 0010 5161     		str	r1, [r2, #20]
 883 0012 0020     		movs	r0, #0
 884 0014 7047     		bx	lr
 885              	.L133:
 886 0016 436A     		ldr	r3, [r0, #36]
 887 0018 43F48023 		orr	r3, r3, #262144
 888 001c 4362     		str	r3, [r0, #36]
 889 001e 0120     		movs	r0, #1
 890 0020 7047     		bx	lr
ARM GAS  C:\Users\q-bir\AppData\Local\Temp\ccIHogyD.s 			page 16


 892              		.section	.text.HAL_CAN_DeactivateNotification,"ax",%progbits
 893              		.align	1
 894              		.global	HAL_CAN_DeactivateNotification
 895              		.syntax unified
 896              		.thumb
 897              		.thumb_func
 898              		.fpu fpv4-sp-d16
 900              	HAL_CAN_DeactivateNotification:
 901              		@ args = 0, pretend = 0, frame = 0
 902              		@ frame_needed = 0, uses_anonymous_args = 0
 903              		@ link register save eliminated.
 904 0000 90F82030 		ldrb	r3, [r0, #32]	@ zero_extendqisi2
 905 0004 013B     		subs	r3, r3, #1
 906 0006 012B     		cmp	r3, #1
 907 0008 06D8     		bhi	.L136
 908 000a 0268     		ldr	r2, [r0]
 909 000c 5369     		ldr	r3, [r2, #20]
 910 000e 23EA0101 		bic	r1, r3, r1
 911 0012 5161     		str	r1, [r2, #20]
 912 0014 0020     		movs	r0, #0
 913 0016 7047     		bx	lr
 914              	.L136:
 915 0018 436A     		ldr	r3, [r0, #36]
 916 001a 43F48023 		orr	r3, r3, #262144
 917 001e 4362     		str	r3, [r0, #36]
 918 0020 0120     		movs	r0, #1
 919 0022 7047     		bx	lr
 921              		.section	.text.HAL_CAN_TxMailbox0CompleteCallback,"ax",%progbits
 922              		.align	1
 923              		.weak	HAL_CAN_TxMailbox0CompleteCallback
 924              		.syntax unified
 925              		.thumb
 926              		.thumb_func
 927              		.fpu fpv4-sp-d16
 929              	HAL_CAN_TxMailbox0CompleteCallback:
 930              		@ args = 0, pretend = 0, frame = 0
 931              		@ frame_needed = 0, uses_anonymous_args = 0
 932              		@ link register save eliminated.
 933 0000 7047     		bx	lr
 935              		.section	.text.HAL_CAN_TxMailbox1CompleteCallback,"ax",%progbits
 936              		.align	1
 937              		.weak	HAL_CAN_TxMailbox1CompleteCallback
 938              		.syntax unified
 939              		.thumb
 940              		.thumb_func
 941              		.fpu fpv4-sp-d16
 943              	HAL_CAN_TxMailbox1CompleteCallback:
 944              		@ args = 0, pretend = 0, frame = 0
 945              		@ frame_needed = 0, uses_anonymous_args = 0
 946              		@ link register save eliminated.
 947 0000 7047     		bx	lr
 949              		.section	.text.HAL_CAN_TxMailbox2CompleteCallback,"ax",%progbits
 950              		.align	1
 951              		.weak	HAL_CAN_TxMailbox2CompleteCallback
 952              		.syntax unified
 953              		.thumb
 954              		.thumb_func
ARM GAS  C:\Users\q-bir\AppData\Local\Temp\ccIHogyD.s 			page 17


 955              		.fpu fpv4-sp-d16
 957              	HAL_CAN_TxMailbox2CompleteCallback:
 958              		@ args = 0, pretend = 0, frame = 0
 959              		@ frame_needed = 0, uses_anonymous_args = 0
 960              		@ link register save eliminated.
 961 0000 7047     		bx	lr
 963              		.section	.text.HAL_CAN_TxMailbox0AbortCallback,"ax",%progbits
 964              		.align	1
 965              		.weak	HAL_CAN_TxMailbox0AbortCallback
 966              		.syntax unified
 967              		.thumb
 968              		.thumb_func
 969              		.fpu fpv4-sp-d16
 971              	HAL_CAN_TxMailbox0AbortCallback:
 972              		@ args = 0, pretend = 0, frame = 0
 973              		@ frame_needed = 0, uses_anonymous_args = 0
 974              		@ link register save eliminated.
 975 0000 7047     		bx	lr
 977              		.section	.text.HAL_CAN_TxMailbox1AbortCallback,"ax",%progbits
 978              		.align	1
 979              		.weak	HAL_CAN_TxMailbox1AbortCallback
 980              		.syntax unified
 981              		.thumb
 982              		.thumb_func
 983              		.fpu fpv4-sp-d16
 985              	HAL_CAN_TxMailbox1AbortCallback:
 986              		@ args = 0, pretend = 0, frame = 0
 987              		@ frame_needed = 0, uses_anonymous_args = 0
 988              		@ link register save eliminated.
 989 0000 7047     		bx	lr
 991              		.section	.text.HAL_CAN_TxMailbox2AbortCallback,"ax",%progbits
 992              		.align	1
 993              		.weak	HAL_CAN_TxMailbox2AbortCallback
 994              		.syntax unified
 995              		.thumb
 996              		.thumb_func
 997              		.fpu fpv4-sp-d16
 999              	HAL_CAN_TxMailbox2AbortCallback:
 1000              		@ args = 0, pretend = 0, frame = 0
 1001              		@ frame_needed = 0, uses_anonymous_args = 0
 1002              		@ link register save eliminated.
 1003 0000 7047     		bx	lr
 1005              		.section	.text.HAL_CAN_RxFifo0MsgPendingCallback,"ax",%progbits
 1006              		.align	1
 1007              		.weak	HAL_CAN_RxFifo0MsgPendingCallback
 1008              		.syntax unified
 1009              		.thumb
 1010              		.thumb_func
 1011              		.fpu fpv4-sp-d16
 1013              	HAL_CAN_RxFifo0MsgPendingCallback:
 1014              		@ args = 0, pretend = 0, frame = 0
 1015              		@ frame_needed = 0, uses_anonymous_args = 0
 1016              		@ link register save eliminated.
 1017 0000 7047     		bx	lr
 1019              		.section	.text.HAL_CAN_RxFifo0FullCallback,"ax",%progbits
 1020              		.align	1
 1021              		.weak	HAL_CAN_RxFifo0FullCallback
ARM GAS  C:\Users\q-bir\AppData\Local\Temp\ccIHogyD.s 			page 18


 1022              		.syntax unified
 1023              		.thumb
 1024              		.thumb_func
 1025              		.fpu fpv4-sp-d16
 1027              	HAL_CAN_RxFifo0FullCallback:
 1028              		@ args = 0, pretend = 0, frame = 0
 1029              		@ frame_needed = 0, uses_anonymous_args = 0
 1030              		@ link register save eliminated.
 1031 0000 7047     		bx	lr
 1033              		.section	.text.HAL_CAN_RxFifo1MsgPendingCallback,"ax",%progbits
 1034              		.align	1
 1035              		.weak	HAL_CAN_RxFifo1MsgPendingCallback
 1036              		.syntax unified
 1037              		.thumb
 1038              		.thumb_func
 1039              		.fpu fpv4-sp-d16
 1041              	HAL_CAN_RxFifo1MsgPendingCallback:
 1042              		@ args = 0, pretend = 0, frame = 0
 1043              		@ frame_needed = 0, uses_anonymous_args = 0
 1044              		@ link register save eliminated.
 1045 0000 7047     		bx	lr
 1047              		.section	.text.HAL_CAN_RxFifo1FullCallback,"ax",%progbits
 1048              		.align	1
 1049              		.weak	HAL_CAN_RxFifo1FullCallback
 1050              		.syntax unified
 1051              		.thumb
 1052              		.thumb_func
 1053              		.fpu fpv4-sp-d16
 1055              	HAL_CAN_RxFifo1FullCallback:
 1056              		@ args = 0, pretend = 0, frame = 0
 1057              		@ frame_needed = 0, uses_anonymous_args = 0
 1058              		@ link register save eliminated.
 1059 0000 7047     		bx	lr
 1061              		.section	.text.HAL_CAN_SleepCallback,"ax",%progbits
 1062              		.align	1
 1063              		.weak	HAL_CAN_SleepCallback
 1064              		.syntax unified
 1065              		.thumb
 1066              		.thumb_func
 1067              		.fpu fpv4-sp-d16
 1069              	HAL_CAN_SleepCallback:
 1070              		@ args = 0, pretend = 0, frame = 0
 1071              		@ frame_needed = 0, uses_anonymous_args = 0
 1072              		@ link register save eliminated.
 1073 0000 7047     		bx	lr
 1075              		.section	.text.HAL_CAN_WakeUpFromRxMsgCallback,"ax",%progbits
 1076              		.align	1
 1077              		.weak	HAL_CAN_WakeUpFromRxMsgCallback
 1078              		.syntax unified
 1079              		.thumb
 1080              		.thumb_func
 1081              		.fpu fpv4-sp-d16
 1083              	HAL_CAN_WakeUpFromRxMsgCallback:
 1084              		@ args = 0, pretend = 0, frame = 0
 1085              		@ frame_needed = 0, uses_anonymous_args = 0
 1086              		@ link register save eliminated.
 1087 0000 7047     		bx	lr
ARM GAS  C:\Users\q-bir\AppData\Local\Temp\ccIHogyD.s 			page 19


 1089              		.section	.text.HAL_CAN_ErrorCallback,"ax",%progbits
 1090              		.align	1
 1091              		.weak	HAL_CAN_ErrorCallback
 1092              		.syntax unified
 1093              		.thumb
 1094              		.thumb_func
 1095              		.fpu fpv4-sp-d16
 1097              	HAL_CAN_ErrorCallback:
 1098              		@ args = 0, pretend = 0, frame = 0
 1099              		@ frame_needed = 0, uses_anonymous_args = 0
 1100              		@ link register save eliminated.
 1101 0000 7047     		bx	lr
 1103              		.section	.text.HAL_CAN_IRQHandler,"ax",%progbits
 1104              		.align	1
 1105              		.global	HAL_CAN_IRQHandler
 1106              		.syntax unified
 1107              		.thumb
 1108              		.thumb_func
 1109              		.fpu fpv4-sp-d16
 1111              	HAL_CAN_IRQHandler:
 1112              		@ args = 0, pretend = 0, frame = 0
 1113              		@ frame_needed = 0, uses_anonymous_args = 0
 1114 0000 2DE9F84F 		push	{r3, r4, r5, r6, r7, r8, r9, r10, fp, lr}
 1115 0004 0368     		ldr	r3, [r0]
 1116 0006 5E69     		ldr	r6, [r3, #20]
 1117 0008 D3F80490 		ldr	r9, [r3, #4]
 1118 000c 9F68     		ldr	r7, [r3, #8]
 1119 000e D3F80CB0 		ldr	fp, [r3, #12]
 1120 0012 D3F810A0 		ldr	r10, [r3, #16]
 1121 0016 D3F81880 		ldr	r8, [r3, #24]
 1122 001a 16F00104 		ands	r4, r6, #1
 1123 001e 0546     		mov	r5, r0
 1124 0020 22D0     		beq	.L152
 1125 0022 17F00104 		ands	r4, r7, #1
 1126 0026 07D0     		beq	.L153
 1127 0028 0122     		movs	r2, #1
 1128 002a B907     		lsls	r1, r7, #30
 1129 002c 9A60     		str	r2, [r3, #8]
 1130 002e 40F1A580 		bpl	.L154
 1131 0032 FFF7FEFF 		bl	HAL_CAN_TxMailbox0CompleteCallback
 1132 0036 0024     		movs	r4, #0
 1133              	.L153:
 1134 0038 FB05     		lsls	r3, r7, #23
 1135 003a 09D5     		bpl	.L155
 1136 003c 2B68     		ldr	r3, [r5]
 1137 003e 4FF48072 		mov	r2, #256
 1138 0042 B805     		lsls	r0, r7, #22
 1139 0044 9A60     		str	r2, [r3, #8]
 1140 0046 40F1A780 		bpl	.L156
 1141 004a 2846     		mov	r0, r5
 1142 004c FFF7FEFF 		bl	HAL_CAN_TxMailbox1CompleteCallback
 1143              	.L155:
 1144 0050 FB03     		lsls	r3, r7, #15
 1145 0052 09D5     		bpl	.L152
 1146 0054 2B68     		ldr	r3, [r5]
 1147 0056 4FF48032 		mov	r2, #65536
 1148 005a B803     		lsls	r0, r7, #14
ARM GAS  C:\Users\q-bir\AppData\Local\Temp\ccIHogyD.s 			page 20


 1149 005c 9A60     		str	r2, [r3, #8]
 1150 005e 40F1A980 		bpl	.L159
 1151 0062 2846     		mov	r0, r5
 1152 0064 FFF7FEFF 		bl	HAL_CAN_TxMailbox2CompleteCallback
 1153              	.L152:
 1154 0068 3307     		lsls	r3, r6, #28
 1155 006a 07D5     		bpl	.L162
 1156 006c 1BF0100F 		tst	fp, #16
 1157 0070 1FBF     		itttt	ne
 1158 0072 2B68     		ldrne	r3, [r5]
 1159 0074 1022     		movne	r2, #16
 1160 0076 44F40074 		orrne	r4, r4, #512
 1161 007a DA60     		strne	r2, [r3, #12]
 1162              	.L162:
 1163 007c 7707     		lsls	r7, r6, #29
 1164 007e 08D5     		bpl	.L163
 1165 0080 1BF0080F 		tst	fp, #8
 1166 0084 05D0     		beq	.L163
 1167 0086 2B68     		ldr	r3, [r5]
 1168 0088 0822     		movs	r2, #8
 1169 008a DA60     		str	r2, [r3, #12]
 1170 008c 2846     		mov	r0, r5
 1171 008e FFF7FEFF 		bl	HAL_CAN_RxFifo0FullCallback
 1172              	.L163:
 1173 0092 B007     		lsls	r0, r6, #30
 1174 0094 06D5     		bpl	.L164
 1175 0096 2B68     		ldr	r3, [r5]
 1176 0098 DB68     		ldr	r3, [r3, #12]
 1177 009a 9907     		lsls	r1, r3, #30
 1178 009c 02D0     		beq	.L164
 1179 009e 2846     		mov	r0, r5
 1180 00a0 FFF7FEFF 		bl	HAL_CAN_RxFifo0MsgPendingCallback
 1181              	.L164:
 1182 00a4 7206     		lsls	r2, r6, #25
 1183 00a6 07D5     		bpl	.L165
 1184 00a8 1AF0100F 		tst	r10, #16
 1185 00ac 1FBF     		itttt	ne
 1186 00ae 2B68     		ldrne	r3, [r5]
 1187 00b0 1022     		movne	r2, #16
 1188 00b2 44F48064 		orrne	r4, r4, #1024
 1189 00b6 1A61     		strne	r2, [r3, #16]
 1190              	.L165:
 1191 00b8 B306     		lsls	r3, r6, #26
 1192 00ba 08D5     		bpl	.L166
 1193 00bc 1AF0080F 		tst	r10, #8
 1194 00c0 05D0     		beq	.L166
 1195 00c2 2B68     		ldr	r3, [r5]
 1196 00c4 0822     		movs	r2, #8
 1197 00c6 1A61     		str	r2, [r3, #16]
 1198 00c8 2846     		mov	r0, r5
 1199 00ca FFF7FEFF 		bl	HAL_CAN_RxFifo1FullCallback
 1200              	.L166:
 1201 00ce F706     		lsls	r7, r6, #27
 1202 00d0 06D5     		bpl	.L167
 1203 00d2 2B68     		ldr	r3, [r5]
 1204 00d4 1B69     		ldr	r3, [r3, #16]
 1205 00d6 9807     		lsls	r0, r3, #30
ARM GAS  C:\Users\q-bir\AppData\Local\Temp\ccIHogyD.s 			page 21


 1206 00d8 02D0     		beq	.L167
 1207 00da 2846     		mov	r0, r5
 1208 00dc FFF7FEFF 		bl	HAL_CAN_RxFifo1MsgPendingCallback
 1209              	.L167:
 1210 00e0 B103     		lsls	r1, r6, #14
 1211 00e2 08D5     		bpl	.L168
 1212 00e4 19F0100F 		tst	r9, #16
 1213 00e8 05D0     		beq	.L168
 1214 00ea 2B68     		ldr	r3, [r5]
 1215 00ec 1022     		movs	r2, #16
 1216 00ee 5A60     		str	r2, [r3, #4]
 1217 00f0 2846     		mov	r0, r5
 1218 00f2 FFF7FEFF 		bl	HAL_CAN_SleepCallback
 1219              	.L168:
 1220 00f6 F203     		lsls	r2, r6, #15
 1221 00f8 08D5     		bpl	.L169
 1222 00fa 19F0080F 		tst	r9, #8
 1223 00fe 05D0     		beq	.L169
 1224 0100 2B68     		ldr	r3, [r5]
 1225 0102 0822     		movs	r2, #8
 1226 0104 5A60     		str	r2, [r3, #4]
 1227 0106 2846     		mov	r0, r5
 1228 0108 FFF7FEFF 		bl	HAL_CAN_WakeUpFromRxMsgCallback
 1229              	.L169:
 1230 010c 3304     		lsls	r3, r6, #16
 1231 010e 2CD5     		bpl	.L170
 1232 0110 19F0040F 		tst	r9, #4
 1233 0114 2A68     		ldr	r2, [r5]
 1234 0116 26D0     		beq	.L171
 1235 0118 F705     		lsls	r7, r6, #23
 1236 011a 04D5     		bpl	.L172
 1237 011c 18F0010F 		tst	r8, #1
 1238 0120 18BF     		it	ne
 1239 0122 44F00104 		orrne	r4, r4, #1
 1240              	.L172:
 1241 0126 B005     		lsls	r0, r6, #22
 1242 0128 04D5     		bpl	.L173
 1243 012a 18F0020F 		tst	r8, #2
 1244 012e 18BF     		it	ne
 1245 0130 44F00204 		orrne	r4, r4, #2
 1246              	.L173:
 1247 0134 7105     		lsls	r1, r6, #21
 1248 0136 04D5     		bpl	.L174
 1249 0138 18F0040F 		tst	r8, #4
 1250 013c 18BF     		it	ne
 1251 013e 44F00404 		orrne	r4, r4, #4
 1252              	.L174:
 1253 0142 3305     		lsls	r3, r6, #20
 1254 0144 0FD5     		bpl	.L171
 1255 0146 18F07003 		ands	r3, r8, #112
 1256 014a 0CD0     		beq	.L171
 1257 014c 402B     		cmp	r3, #64
 1258 014e 4FD0     		beq	.L175
 1259 0150 3ED8     		bhi	.L176
 1260 0152 202B     		cmp	r3, #32
 1261 0154 46D0     		beq	.L177
 1262 0156 302B     		cmp	r3, #48
ARM GAS  C:\Users\q-bir\AppData\Local\Temp\ccIHogyD.s 			page 22


 1263 0158 47D0     		beq	.L178
 1264 015a 102B     		cmp	r3, #16
 1265 015c 3FD0     		beq	.L179
 1266              	.L180:
 1267 015e 9369     		ldr	r3, [r2, #24]
 1268 0160 23F07003 		bic	r3, r3, #112
 1269 0164 9361     		str	r3, [r2, #24]
 1270              	.L171:
 1271 0166 0423     		movs	r3, #4
 1272 0168 5360     		str	r3, [r2, #4]
 1273              	.L170:
 1274 016a 2CB1     		cbz	r4, .L151
 1275 016c 6B6A     		ldr	r3, [r5, #36]
 1276 016e 1C43     		orrs	r4, r4, r3
 1277 0170 6C62     		str	r4, [r5, #36]
 1278 0172 2846     		mov	r0, r5
 1279 0174 FFF7FEFF 		bl	HAL_CAN_ErrorCallback
 1280              	.L151:
 1281 0178 BDE8F88F 		pop	{r3, r4, r5, r6, r7, r8, r9, r10, fp, pc}
 1282              	.L154:
 1283 017c 7A07     		lsls	r2, r7, #29
 1284 017e 05D4     		bmi	.L184
 1285 0180 17F00804 		ands	r4, r7, #8
 1286 0184 05D1     		bne	.L185
 1287 0186 FFF7FEFF 		bl	HAL_CAN_TxMailbox0AbortCallback
 1288 018a 55E7     		b	.L153
 1289              	.L184:
 1290 018c 4FF40064 		mov	r4, #2048
 1291 0190 52E7     		b	.L153
 1292              	.L185:
 1293 0192 4FF48054 		mov	r4, #4096
 1294 0196 4FE7     		b	.L153
 1295              	.L156:
 1296 0198 7905     		lsls	r1, r7, #21
 1297 019a 02D5     		bpl	.L157
 1298 019c 44F40054 		orr	r4, r4, #8192
 1299 01a0 56E7     		b	.L155
 1300              	.L157:
 1301 01a2 3A05     		lsls	r2, r7, #20
 1302 01a4 02D5     		bpl	.L158
 1303 01a6 44F48044 		orr	r4, r4, #16384
 1304 01aa 51E7     		b	.L155
 1305              	.L158:
 1306 01ac 2846     		mov	r0, r5
 1307 01ae FFF7FEFF 		bl	HAL_CAN_TxMailbox1AbortCallback
 1308 01b2 4DE7     		b	.L155
 1309              	.L159:
 1310 01b4 7903     		lsls	r1, r7, #13
 1311 01b6 02D5     		bpl	.L160
 1312 01b8 44F40044 		orr	r4, r4, #32768
 1313 01bc 54E7     		b	.L152
 1314              	.L160:
 1315 01be 3A03     		lsls	r2, r7, #12
 1316 01c0 02D5     		bpl	.L161
 1317 01c2 44F48034 		orr	r4, r4, #65536
 1318 01c6 4FE7     		b	.L152
 1319              	.L161:
ARM GAS  C:\Users\q-bir\AppData\Local\Temp\ccIHogyD.s 			page 23


 1320 01c8 2846     		mov	r0, r5
 1321 01ca FFF7FEFF 		bl	HAL_CAN_TxMailbox2AbortCallback
 1322 01ce 4BE7     		b	.L152
 1323              	.L176:
 1324 01d0 502B     		cmp	r3, #80
 1325 01d2 10D0     		beq	.L181
 1326 01d4 602B     		cmp	r3, #96
 1327 01d6 C2D1     		bne	.L180
 1328 01d8 44F48074 		orr	r4, r4, #256
 1329 01dc BFE7     		b	.L180
 1330              	.L179:
 1331 01de 44F00804 		orr	r4, r4, #8
 1332 01e2 BCE7     		b	.L180
 1333              	.L177:
 1334 01e4 44F01004 		orr	r4, r4, #16
 1335 01e8 B9E7     		b	.L180
 1336              	.L178:
 1337 01ea 44F02004 		orr	r4, r4, #32
 1338 01ee B6E7     		b	.L180
 1339              	.L175:
 1340 01f0 44F04004 		orr	r4, r4, #64
 1341 01f4 B3E7     		b	.L180
 1342              	.L181:
 1343 01f6 44F08004 		orr	r4, r4, #128
 1344 01fa B0E7     		b	.L180
 1346              		.section	.text.HAL_CAN_GetState,"ax",%progbits
 1347              		.align	1
 1348              		.global	HAL_CAN_GetState
 1349              		.syntax unified
 1350              		.thumb
 1351              		.thumb_func
 1352              		.fpu fpv4-sp-d16
 1354              	HAL_CAN_GetState:
 1355              		@ args = 0, pretend = 0, frame = 0
 1356              		@ frame_needed = 0, uses_anonymous_args = 0
 1357              		@ link register save eliminated.
 1358 0000 90F82020 		ldrb	r2, [r0, #32]	@ zero_extendqisi2
 1359 0004 0346     		mov	r3, r0
 1360 0006 D0B2     		uxtb	r0, r2
 1361 0008 013A     		subs	r2, r2, #1
 1362 000a 012A     		cmp	r2, #1
 1363 000c 0AD8     		bhi	.L280
 1364 000e 1B68     		ldr	r3, [r3]
 1365 0010 5A68     		ldr	r2, [r3, #4]
 1366 0012 9207     		lsls	r2, r2, #30
 1367 0014 05D4     		bmi	.L281
 1368 0016 1B68     		ldr	r3, [r3]
 1369 0018 13F0020F 		tst	r3, #2
 1370 001c 18BF     		it	ne
 1371 001e 0320     		movne	r0, #3
 1372 0020 7047     		bx	lr
 1373              	.L281:
 1374 0022 0420     		movs	r0, #4
 1375              	.L280:
 1376 0024 7047     		bx	lr
 1378              		.section	.text.HAL_CAN_GetError,"ax",%progbits
 1379              		.align	1
ARM GAS  C:\Users\q-bir\AppData\Local\Temp\ccIHogyD.s 			page 24


 1380              		.global	HAL_CAN_GetError
 1381              		.syntax unified
 1382              		.thumb
 1383              		.thumb_func
 1384              		.fpu fpv4-sp-d16
 1386              	HAL_CAN_GetError:
 1387              		@ args = 0, pretend = 0, frame = 0
 1388              		@ frame_needed = 0, uses_anonymous_args = 0
 1389              		@ link register save eliminated.
 1390 0000 406A     		ldr	r0, [r0, #36]
 1391 0002 7047     		bx	lr
 1393              		.section	.text.HAL_CAN_ResetError,"ax",%progbits
 1394              		.align	1
 1395              		.global	HAL_CAN_ResetError
 1396              		.syntax unified
 1397              		.thumb
 1398              		.thumb_func
 1399              		.fpu fpv4-sp-d16
 1401              	HAL_CAN_ResetError:
 1402              		@ args = 0, pretend = 0, frame = 0
 1403              		@ frame_needed = 0, uses_anonymous_args = 0
 1404              		@ link register save eliminated.
 1405 0000 90F82030 		ldrb	r3, [r0, #32]	@ zero_extendqisi2
 1406 0004 013B     		subs	r3, r3, #1
 1407 0006 012B     		cmp	r3, #1
 1408 0008 8BBF     		itete	hi
 1409 000a 436A     		ldrhi	r3, [r0, #36]
 1410 000c 0023     		movls	r3, #0
 1411 000e 43F48023 		orrhi	r3, r3, #262144
 1412 0012 4362     		strls	r3, [r0, #36]
 1413 0014 8ABF     		itet	hi
 1414 0016 4362     		strhi	r3, [r0, #36]
 1415 0018 1846     		movls	r0, r3
 1416 001a 0120     		movhi	r0, #1
 1417 001c 7047     		bx	lr
 1419              		.ident	"GCC: (GNU Arm Embedded Toolchain 9-2020-q2-update) 9.3.1 20200408 (release)"
ARM GAS  C:\Users\q-bir\AppData\Local\Temp\ccIHogyD.s 			page 25


DEFINED SYMBOLS
                            *ABS*:00000000 stm32f3xx_hal_can.c
C:\Users\q-bir\AppData\Local\Temp\ccIHogyD.s:16     .text.HAL_CAN_MspInit:00000000 $t
C:\Users\q-bir\AppData\Local\Temp\ccIHogyD.s:24     .text.HAL_CAN_MspInit:00000000 HAL_CAN_MspInit
C:\Users\q-bir\AppData\Local\Temp\ccIHogyD.s:31     .text.HAL_CAN_Init:00000000 $t
C:\Users\q-bir\AppData\Local\Temp\ccIHogyD.s:38     .text.HAL_CAN_Init:00000000 HAL_CAN_Init
C:\Users\q-bir\AppData\Local\Temp\ccIHogyD.s:150    .text.HAL_CAN_MspDeInit:00000000 $t
C:\Users\q-bir\AppData\Local\Temp\ccIHogyD.s:157    .text.HAL_CAN_MspDeInit:00000000 HAL_CAN_MspDeInit
C:\Users\q-bir\AppData\Local\Temp\ccIHogyD.s:164    .text.HAL_CAN_ConfigFilter:00000000 $t
C:\Users\q-bir\AppData\Local\Temp\ccIHogyD.s:171    .text.HAL_CAN_ConfigFilter:00000000 HAL_CAN_ConfigFilter
C:\Users\q-bir\AppData\Local\Temp\ccIHogyD.s:262    .text.HAL_CAN_Start:00000000 $t
C:\Users\q-bir\AppData\Local\Temp\ccIHogyD.s:269    .text.HAL_CAN_Start:00000000 HAL_CAN_Start
C:\Users\q-bir\AppData\Local\Temp\ccIHogyD.s:315    .text.HAL_CAN_Stop:00000000 $t
C:\Users\q-bir\AppData\Local\Temp\ccIHogyD.s:322    .text.HAL_CAN_Stop:00000000 HAL_CAN_Stop
C:\Users\q-bir\AppData\Local\Temp\ccIHogyD.s:369    .text.HAL_CAN_DeInit:00000000 $t
C:\Users\q-bir\AppData\Local\Temp\ccIHogyD.s:376    .text.HAL_CAN_DeInit:00000000 HAL_CAN_DeInit
C:\Users\q-bir\AppData\Local\Temp\ccIHogyD.s:399    .text.HAL_CAN_RequestSleep:00000000 $t
C:\Users\q-bir\AppData\Local\Temp\ccIHogyD.s:406    .text.HAL_CAN_RequestSleep:00000000 HAL_CAN_RequestSleep
C:\Users\q-bir\AppData\Local\Temp\ccIHogyD.s:428    .text.HAL_CAN_WakeUp:00000000 $t
C:\Users\q-bir\AppData\Local\Temp\ccIHogyD.s:435    .text.HAL_CAN_WakeUp:00000000 HAL_CAN_WakeUp
C:\Users\q-bir\AppData\Local\Temp\ccIHogyD.s:480    .text.HAL_CAN_WakeUp:0000004c $d
C:\Users\q-bir\AppData\Local\Temp\ccIHogyD.s:483    .text.HAL_CAN_IsSleepActive:00000000 $t
C:\Users\q-bir\AppData\Local\Temp\ccIHogyD.s:490    .text.HAL_CAN_IsSleepActive:00000000 HAL_CAN_IsSleepActive
C:\Users\q-bir\AppData\Local\Temp\ccIHogyD.s:505    .text.HAL_CAN_AddTxMessage:00000000 $t
C:\Users\q-bir\AppData\Local\Temp\ccIHogyD.s:512    .text.HAL_CAN_AddTxMessage:00000000 HAL_CAN_AddTxMessage
C:\Users\q-bir\AppData\Local\Temp\ccIHogyD.s:582    .text.HAL_CAN_AbortTxRequest:00000000 $t
C:\Users\q-bir\AppData\Local\Temp\ccIHogyD.s:589    .text.HAL_CAN_AbortTxRequest:00000000 HAL_CAN_AbortTxRequest
C:\Users\q-bir\AppData\Local\Temp\ccIHogyD.s:625    .text.HAL_CAN_GetTxMailboxesFreeLevel:00000000 $t
C:\Users\q-bir\AppData\Local\Temp\ccIHogyD.s:632    .text.HAL_CAN_GetTxMailboxesFreeLevel:00000000 HAL_CAN_GetTxMailboxesFreeLevel
C:\Users\q-bir\AppData\Local\Temp\ccIHogyD.s:658    .text.HAL_CAN_IsTxMessagePending:00000000 $t
C:\Users\q-bir\AppData\Local\Temp\ccIHogyD.s:665    .text.HAL_CAN_IsTxMessagePending:00000000 HAL_CAN_IsTxMessagePending
C:\Users\q-bir\AppData\Local\Temp\ccIHogyD.s:686    .text.HAL_CAN_GetTxTimestamp:00000000 $t
C:\Users\q-bir\AppData\Local\Temp\ccIHogyD.s:693    .text.HAL_CAN_GetTxTimestamp:00000000 HAL_CAN_GetTxTimestamp
C:\Users\q-bir\AppData\Local\Temp\ccIHogyD.s:719    .text.HAL_CAN_GetRxMessage:00000000 $t
C:\Users\q-bir\AppData\Local\Temp\ccIHogyD.s:726    .text.HAL_CAN_GetRxMessage:00000000 HAL_CAN_GetRxMessage
C:\Users\q-bir\AppData\Local\Temp\ccIHogyD.s:835    .text.HAL_CAN_GetRxFifoFillLevel:00000000 $t
C:\Users\q-bir\AppData\Local\Temp\ccIHogyD.s:842    .text.HAL_CAN_GetRxFifoFillLevel:00000000 HAL_CAN_GetRxFifoFillLevel
C:\Users\q-bir\AppData\Local\Temp\ccIHogyD.s:864    .text.HAL_CAN_ActivateNotification:00000000 $t
C:\Users\q-bir\AppData\Local\Temp\ccIHogyD.s:871    .text.HAL_CAN_ActivateNotification:00000000 HAL_CAN_ActivateNotification
C:\Users\q-bir\AppData\Local\Temp\ccIHogyD.s:893    .text.HAL_CAN_DeactivateNotification:00000000 $t
C:\Users\q-bir\AppData\Local\Temp\ccIHogyD.s:900    .text.HAL_CAN_DeactivateNotification:00000000 HAL_CAN_DeactivateNotification
C:\Users\q-bir\AppData\Local\Temp\ccIHogyD.s:922    .text.HAL_CAN_TxMailbox0CompleteCallback:00000000 $t
C:\Users\q-bir\AppData\Local\Temp\ccIHogyD.s:929    .text.HAL_CAN_TxMailbox0CompleteCallback:00000000 HAL_CAN_TxMailbox0CompleteCallback
C:\Users\q-bir\AppData\Local\Temp\ccIHogyD.s:936    .text.HAL_CAN_TxMailbox1CompleteCallback:00000000 $t
C:\Users\q-bir\AppData\Local\Temp\ccIHogyD.s:943    .text.HAL_CAN_TxMailbox1CompleteCallback:00000000 HAL_CAN_TxMailbox1CompleteCallback
C:\Users\q-bir\AppData\Local\Temp\ccIHogyD.s:950    .text.HAL_CAN_TxMailbox2CompleteCallback:00000000 $t
C:\Users\q-bir\AppData\Local\Temp\ccIHogyD.s:957    .text.HAL_CAN_TxMailbox2CompleteCallback:00000000 HAL_CAN_TxMailbox2CompleteCallback
C:\Users\q-bir\AppData\Local\Temp\ccIHogyD.s:964    .text.HAL_CAN_TxMailbox0AbortCallback:00000000 $t
C:\Users\q-bir\AppData\Local\Temp\ccIHogyD.s:971    .text.HAL_CAN_TxMailbox0AbortCallback:00000000 HAL_CAN_TxMailbox0AbortCallback
C:\Users\q-bir\AppData\Local\Temp\ccIHogyD.s:978    .text.HAL_CAN_TxMailbox1AbortCallback:00000000 $t
C:\Users\q-bir\AppData\Local\Temp\ccIHogyD.s:985    .text.HAL_CAN_TxMailbox1AbortCallback:00000000 HAL_CAN_TxMailbox1AbortCallback
C:\Users\q-bir\AppData\Local\Temp\ccIHogyD.s:992    .text.HAL_CAN_TxMailbox2AbortCallback:00000000 $t
C:\Users\q-bir\AppData\Local\Temp\ccIHogyD.s:999    .text.HAL_CAN_TxMailbox2AbortCallback:00000000 HAL_CAN_TxMailbox2AbortCallback
C:\Users\q-bir\AppData\Local\Temp\ccIHogyD.s:1006   .text.HAL_CAN_RxFifo0MsgPendingCallback:00000000 $t
C:\Users\q-bir\AppData\Local\Temp\ccIHogyD.s:1013   .text.HAL_CAN_RxFifo0MsgPendingCallback:00000000 HAL_CAN_RxFifo0MsgPendingCallback
C:\Users\q-bir\AppData\Local\Temp\ccIHogyD.s:1020   .text.HAL_CAN_RxFifo0FullCallback:00000000 $t
C:\Users\q-bir\AppData\Local\Temp\ccIHogyD.s:1027   .text.HAL_CAN_RxFifo0FullCallback:00000000 HAL_CAN_RxFifo0FullCallback
ARM GAS  C:\Users\q-bir\AppData\Local\Temp\ccIHogyD.s 			page 26


C:\Users\q-bir\AppData\Local\Temp\ccIHogyD.s:1034   .text.HAL_CAN_RxFifo1MsgPendingCallback:00000000 $t
C:\Users\q-bir\AppData\Local\Temp\ccIHogyD.s:1041   .text.HAL_CAN_RxFifo1MsgPendingCallback:00000000 HAL_CAN_RxFifo1MsgPendingCallback
C:\Users\q-bir\AppData\Local\Temp\ccIHogyD.s:1048   .text.HAL_CAN_RxFifo1FullCallback:00000000 $t
C:\Users\q-bir\AppData\Local\Temp\ccIHogyD.s:1055   .text.HAL_CAN_RxFifo1FullCallback:00000000 HAL_CAN_RxFifo1FullCallback
C:\Users\q-bir\AppData\Local\Temp\ccIHogyD.s:1062   .text.HAL_CAN_SleepCallback:00000000 $t
C:\Users\q-bir\AppData\Local\Temp\ccIHogyD.s:1069   .text.HAL_CAN_SleepCallback:00000000 HAL_CAN_SleepCallback
C:\Users\q-bir\AppData\Local\Temp\ccIHogyD.s:1076   .text.HAL_CAN_WakeUpFromRxMsgCallback:00000000 $t
C:\Users\q-bir\AppData\Local\Temp\ccIHogyD.s:1083   .text.HAL_CAN_WakeUpFromRxMsgCallback:00000000 HAL_CAN_WakeUpFromRxMsgCallback
C:\Users\q-bir\AppData\Local\Temp\ccIHogyD.s:1090   .text.HAL_CAN_ErrorCallback:00000000 $t
C:\Users\q-bir\AppData\Local\Temp\ccIHogyD.s:1097   .text.HAL_CAN_ErrorCallback:00000000 HAL_CAN_ErrorCallback
C:\Users\q-bir\AppData\Local\Temp\ccIHogyD.s:1104   .text.HAL_CAN_IRQHandler:00000000 $t
C:\Users\q-bir\AppData\Local\Temp\ccIHogyD.s:1111   .text.HAL_CAN_IRQHandler:00000000 HAL_CAN_IRQHandler
C:\Users\q-bir\AppData\Local\Temp\ccIHogyD.s:1347   .text.HAL_CAN_GetState:00000000 $t
C:\Users\q-bir\AppData\Local\Temp\ccIHogyD.s:1354   .text.HAL_CAN_GetState:00000000 HAL_CAN_GetState
C:\Users\q-bir\AppData\Local\Temp\ccIHogyD.s:1379   .text.HAL_CAN_GetError:00000000 $t
C:\Users\q-bir\AppData\Local\Temp\ccIHogyD.s:1386   .text.HAL_CAN_GetError:00000000 HAL_CAN_GetError
C:\Users\q-bir\AppData\Local\Temp\ccIHogyD.s:1394   .text.HAL_CAN_ResetError:00000000 $t
C:\Users\q-bir\AppData\Local\Temp\ccIHogyD.s:1401   .text.HAL_CAN_ResetError:00000000 HAL_CAN_ResetError

UNDEFINED SYMBOLS
HAL_GetTick
