ARM GAS  C:\Users\gyoku\AppData\Local\Temp\ccFqN08K.s 			page 1


   1              		.cpu cortex-m4
   2              		.eabi_attribute 27, 1
   3              		.eabi_attribute 28, 1
   4              		.eabi_attribute 20, 1
   5              		.eabi_attribute 21, 1
   6              		.eabi_attribute 23, 3
   7              		.eabi_attribute 24, 1
   8              		.eabi_attribute 25, 1
   9              		.eabi_attribute 26, 1
  10              		.eabi_attribute 30, 4
  11              		.eabi_attribute 34, 1
  12              		.eabi_attribute 18, 4
  13              		.file	"stm32f3xx_hal_i2c.c"
  14              		.text
  15              		.section	.text.I2C_Flush_TXDR,"ax",%progbits
  16              		.align	1
  17              		.arch armv7e-m
  18              		.syntax unified
  19              		.thumb
  20              		.thumb_func
  21              		.fpu fpv4-sp-d16
  23              	I2C_Flush_TXDR:
  24              		@ args = 0, pretend = 0, frame = 0
  25              		@ frame_needed = 0, uses_anonymous_args = 0
  26              		@ link register save eliminated.
  27 0000 0368     		ldr	r3, [r0]
  28 0002 9A69     		ldr	r2, [r3, #24]
  29 0004 9107     		lsls	r1, r2, #30
  30 0006 44BF     		itt	mi
  31 0008 0022     		movmi	r2, #0
  32 000a 9A62     		strmi	r2, [r3, #40]
  33 000c 9A69     		ldr	r2, [r3, #24]
  34 000e D207     		lsls	r2, r2, #31
  35 0010 5EBF     		ittt	pl
  36 0012 9A69     		ldrpl	r2, [r3, #24]
  37 0014 42F00102 		orrpl	r2, r2, #1
  38 0018 9A61     		strpl	r2, [r3, #24]
  39 001a 7047     		bx	lr
  41              		.section	.text.I2C_DMASlaveTransmitCplt,"ax",%progbits
  42              		.align	1
  43              		.syntax unified
  44              		.thumb
  45              		.thumb_func
  46              		.fpu fpv4-sp-d16
  48              	I2C_DMASlaveTransmitCplt:
  49              		@ args = 0, pretend = 0, frame = 0
  50              		@ frame_needed = 0, uses_anonymous_args = 0
  51              		@ link register save eliminated.
  52 0000 7047     		bx	lr
  54              		.section	.text.I2C_TransferConfig,"ax",%progbits
  55              		.align	1
  56              		.syntax unified
  57              		.thumb
  58              		.thumb_func
  59              		.fpu fpv4-sp-d16
  61              	I2C_TransferConfig:
  62              		@ args = 4, pretend = 0, frame = 0
ARM GAS  C:\Users\gyoku\AppData\Local\Temp\ccFqN08K.s 			page 2


  63              		@ frame_needed = 0, uses_anonymous_args = 0
  64 0000 30B5     		push	{r4, r5, lr}
  65 0002 039D     		ldr	r5, [sp, #12]
  66 0004 0468     		ldr	r4, [r0]
  67 0006 45EA0242 		orr	r2, r5, r2, lsl #16
  68 000a 1343     		orrs	r3, r3, r2
  69 000c C1F30902 		ubfx	r2, r1, #0, #10
  70 0010 1A43     		orrs	r2, r2, r3
  71 0012 044B     		ldr	r3, .L9
  72 0014 6068     		ldr	r0, [r4, #4]
  73 0016 43EA5553 		orr	r3, r3, r5, lsr #21
  74 001a 20EA0300 		bic	r0, r0, r3
  75 001e 0243     		orrs	r2, r2, r0
  76 0020 6260     		str	r2, [r4, #4]
  77 0022 30BD     		pop	{r4, r5, pc}
  78              	.L10:
  79              		.align	2
  80              	.L9:
  81 0024 FF63FF03 		.word	67068927
  83              		.section	.text.I2C_Enable_IRQ,"ax",%progbits
  84              		.align	1
  85              		.syntax unified
  86              		.thumb
  87              		.thumb_func
  88              		.fpu fpv4-sp-d16
  90              	I2C_Enable_IRQ:
  91              		@ args = 0, pretend = 0, frame = 0
  92              		@ frame_needed = 0, uses_anonymous_args = 0
  93 0000 01F00403 		and	r3, r1, #4
  94 0004 154A     		ldr	r2, .L28
  95 0006 30B5     		push	{r4, r5, lr}
  96 0008 446B     		ldr	r4, [r0, #52]
  97 000a 002B     		cmp	r3, #0
  98 000c 0CBF     		ite	eq
  99 000e 0023     		moveq	r3, #0
 100 0010 B823     		movne	r3, #184
 101 0012 9442     		cmp	r4, r2
 102 0014 01F01202 		and	r2, r1, #18
 103 0018 02D0     		beq	.L12
 104 001a 114D     		ldr	r5, .L28+4
 105 001c AC42     		cmp	r4, r5
 106 001e 0FD1     		bne	.L13
 107              	.L12:
 108 0020 01F01101 		and	r1, r1, #17
 109 0024 1129     		cmp	r1, #17
 110 0026 08BF     		it	eq
 111 0028 43F09003 		orreq	r3, r3, #144
 112 002c 122A     		cmp	r2, #18
 113 002e 01D1     		bne	.L16
 114 0030 43F06003 		orr	r3, r3, #96
 115              	.L16:
 116 0034 0168     		ldr	r1, [r0]
 117 0036 0A68     		ldr	r2, [r1]
 118 0038 1343     		orrs	r3, r3, r2
 119 003a 0B60     		str	r3, [r1]
 120 003c 0020     		movs	r0, #0
 121 003e 30BD     		pop	{r4, r5, pc}
ARM GAS  C:\Users\gyoku\AppData\Local\Temp\ccFqN08K.s 			page 3


 122              	.L13:
 123 0040 CC07     		lsls	r4, r1, #31
 124 0042 48BF     		it	mi
 125 0044 43F0F203 		orrmi	r3, r3, #242
 126 0048 8907     		lsls	r1, r1, #30
 127 004a 48BF     		it	mi
 128 004c 43F0F403 		orrmi	r3, r3, #244
 129 0050 122A     		cmp	r2, #18
 130 0052 08BF     		it	eq
 131 0054 43F02003 		orreq	r3, r3, #32
 132 0058 ECE7     		b	.L16
 133              	.L29:
 134 005a 00BF     		.align	2
 135              	.L28:
 136 005c 00000000 		.word	I2C_Master_ISR_DMA
 137 0060 00000000 		.word	I2C_Slave_ISR_DMA
 139              		.section	.text.I2C_Disable_IRQ,"ax",%progbits
 140              		.align	1
 141              		.syntax unified
 142              		.thumb
 143              		.thumb_func
 144              		.fpu fpv4-sp-d16
 146              	I2C_Disable_IRQ:
 147              		@ args = 0, pretend = 0, frame = 0
 148              		@ frame_needed = 0, uses_anonymous_args = 0
 149              		@ link register save eliminated.
 150 0000 11F00103 		ands	r3, r1, #1
 151 0004 07D0     		beq	.L31
 152 0006 90F84130 		ldrb	r3, [r0, #65]	@ zero_extendqisi2
 153 000a 03F02803 		and	r3, r3, #40
 154 000e 282B     		cmp	r3, #40
 155 0010 0CBF     		ite	eq
 156 0012 4223     		moveq	r3, #66
 157 0014 F223     		movne	r3, #242
 158              	.L31:
 159 0016 8A07     		lsls	r2, r1, #30
 160 0018 09D5     		bpl	.L32
 161 001a 90F84120 		ldrb	r2, [r0, #65]	@ zero_extendqisi2
 162 001e 02F02802 		and	r2, r2, #40
 163 0022 282A     		cmp	r2, #40
 164 0024 0CBF     		ite	eq
 165 0026 43F04403 		orreq	r3, r3, #68
 166 002a 43F0F403 		orrne	r3, r3, #244
 167              	.L32:
 168 002e 4A07     		lsls	r2, r1, #29
 169 0030 0168     		ldr	r1, [r0]
 170 0032 0A68     		ldr	r2, [r1]
 171 0034 48BF     		it	mi
 172 0036 43F0B803 		orrmi	r3, r3, #184
 173 003a 22EA0303 		bic	r3, r2, r3
 174 003e 0B60     		str	r3, [r1]
 175 0040 0020     		movs	r0, #0
 176 0042 7047     		bx	lr
 178              		.section	.text.I2C_WaitOnFlagUntilTimeout,"ax",%progbits
 179              		.align	1
 180              		.syntax unified
 181              		.thumb
ARM GAS  C:\Users\gyoku\AppData\Local\Temp\ccFqN08K.s 			page 4


 182              		.thumb_func
 183              		.fpu fpv4-sp-d16
 185              	I2C_WaitOnFlagUntilTimeout:
 186              		@ args = 4, pretend = 0, frame = 0
 187              		@ frame_needed = 0, uses_anonymous_args = 0
 188 0000 2DE9F041 		push	{r4, r5, r6, r7, r8, lr}
 189 0004 069F     		ldr	r7, [sp, #24]
 190 0006 0446     		mov	r4, r0
 191 0008 8846     		mov	r8, r1
 192 000a 1646     		mov	r6, r2
 193 000c 1D46     		mov	r5, r3
 194              	.L44:
 195 000e 2268     		ldr	r2, [r4]
 196              	.L45:
 197 0010 9369     		ldr	r3, [r2, #24]
 198 0012 38EA0303 		bics	r3, r8, r3
 199 0016 0CBF     		ite	eq
 200 0018 0123     		moveq	r3, #1
 201 001a 0023     		movne	r3, #0
 202 001c B342     		cmp	r3, r6
 203 001e 01D0     		beq	.L49
 204 0020 0020     		movs	r0, #0
 205 0022 0BE0     		b	.L47
 206              	.L49:
 207 0024 6B1C     		adds	r3, r5, #1
 208 0026 F3D0     		beq	.L45
 209 0028 55B9     		cbnz	r5, .L46
 210              	.L48:
 211 002a 2023     		movs	r3, #32
 212 002c 84F84130 		strb	r3, [r4, #65]
 213 0030 0023     		movs	r3, #0
 214 0032 84F84230 		strb	r3, [r4, #66]
 215 0036 84F84030 		strb	r3, [r4, #64]
 216 003a 0320     		movs	r0, #3
 217              	.L47:
 218 003c BDE8F081 		pop	{r4, r5, r6, r7, r8, pc}
 219              	.L46:
 220 0040 FFF7FEFF 		bl	HAL_GetTick
 221 0044 C01B     		subs	r0, r0, r7
 222 0046 A842     		cmp	r0, r5
 223 0048 E1D9     		bls	.L44
 224 004a EEE7     		b	.L48
 226              		.section	.text.I2C_DMAMasterTransmitCplt,"ax",%progbits
 227              		.align	1
 228              		.syntax unified
 229              		.thumb
 230              		.thumb_func
 231              		.fpu fpv4-sp-d16
 233              	I2C_DMAMasterTransmitCplt:
 234              		@ args = 0, pretend = 0, frame = 0
 235              		@ frame_needed = 0, uses_anonymous_args = 0
 236 0000 10B5     		push	{r4, lr}
 237 0002 446A     		ldr	r4, [r0, #36]
 238 0004 2268     		ldr	r2, [r4]
 239 0006 1368     		ldr	r3, [r2]
 240 0008 23F48043 		bic	r3, r3, #16384
 241 000c 1360     		str	r3, [r2]
ARM GAS  C:\Users\gyoku\AppData\Local\Temp\ccFqN08K.s 			page 5


 242 000e 638D     		ldrh	r3, [r4, #42]
 243 0010 9BB2     		uxth	r3, r3
 244 0012 2BB9     		cbnz	r3, .L53
 245              	.L56:
 246 0014 2046     		mov	r0, r4
 247 0016 1221     		movs	r1, #18
 248 0018 BDE81040 		pop	{r4, lr}
 249 001c FFF7FEBF 		b	I2C_Enable_IRQ
 250              	.L53:
 251 0020 238D     		ldrh	r3, [r4, #40]
 252 0022 616A     		ldr	r1, [r4, #36]
 253 0024 A06B     		ldr	r0, [r4, #56]
 254 0026 1944     		add	r1, r1, r3
 255 0028 638D     		ldrh	r3, [r4, #42]
 256 002a 6162     		str	r1, [r4, #36]
 257 002c FF2B     		cmp	r3, #255
 258 002e 96BF     		itet	ls
 259 0030 638D     		ldrhls	r3, [r4, #42]
 260 0032 FF23     		movhi	r3, #255
 261 0034 9BB2     		uxthls	r3, r3
 262 0036 2385     		strh	r3, [r4, #40]	@ movhi
 263 0038 2832     		adds	r2, r2, #40
 264 003a FFF7FEFF 		bl	HAL_DMA_Start_IT
 265 003e E9E7     		b	.L56
 267              		.section	.text.I2C_DMAMasterReceiveCplt,"ax",%progbits
 268              		.align	1
 269              		.syntax unified
 270              		.thumb
 271              		.thumb_func
 272              		.fpu fpv4-sp-d16
 274              	I2C_DMAMasterReceiveCplt:
 275              		@ args = 0, pretend = 0, frame = 0
 276              		@ frame_needed = 0, uses_anonymous_args = 0
 277 0000 10B5     		push	{r4, lr}
 278 0002 446A     		ldr	r4, [r0, #36]
 279 0004 2168     		ldr	r1, [r4]
 280 0006 0B68     		ldr	r3, [r1]
 281 0008 23F40043 		bic	r3, r3, #32768
 282 000c 0B60     		str	r3, [r1]
 283 000e 638D     		ldrh	r3, [r4, #42]
 284 0010 9BB2     		uxth	r3, r3
 285 0012 2BB9     		cbnz	r3, .L58
 286              	.L61:
 287 0014 2046     		mov	r0, r4
 288 0016 1221     		movs	r1, #18
 289 0018 BDE81040 		pop	{r4, lr}
 290 001c FFF7FEBF 		b	I2C_Enable_IRQ
 291              	.L58:
 292 0020 238D     		ldrh	r3, [r4, #40]
 293 0022 626A     		ldr	r2, [r4, #36]
 294 0024 E06B     		ldr	r0, [r4, #60]
 295 0026 1A44     		add	r2, r2, r3
 296 0028 638D     		ldrh	r3, [r4, #42]
 297 002a 6262     		str	r2, [r4, #36]
 298 002c FF2B     		cmp	r3, #255
 299 002e 96BF     		itet	ls
 300 0030 638D     		ldrhls	r3, [r4, #42]
ARM GAS  C:\Users\gyoku\AppData\Local\Temp\ccFqN08K.s 			page 6


 301 0032 FF23     		movhi	r3, #255
 302 0034 9BB2     		uxthls	r3, r3
 303 0036 2385     		strh	r3, [r4, #40]	@ movhi
 304 0038 2431     		adds	r1, r1, #36
 305 003a FFF7FEFF 		bl	HAL_DMA_Start_IT
 306 003e E9E7     		b	.L61
 308              		.section	.text.I2C_IsAcknowledgeFailed,"ax",%progbits
 309              		.align	1
 310              		.syntax unified
 311              		.thumb
 312              		.thumb_func
 313              		.fpu fpv4-sp-d16
 315              	I2C_IsAcknowledgeFailed:
 316              		@ args = 0, pretend = 0, frame = 0
 317              		@ frame_needed = 0, uses_anonymous_args = 0
 318 0000 0368     		ldr	r3, [r0]
 319 0002 70B5     		push	{r4, r5, r6, lr}
 320 0004 0446     		mov	r4, r0
 321 0006 9869     		ldr	r0, [r3, #24]
 322 0008 10F01000 		ands	r0, r0, #16
 323 000c 0D46     		mov	r5, r1
 324 000e 1646     		mov	r6, r2
 325 0010 12D1     		bne	.L63
 326              	.L64:
 327 0012 70BD     		pop	{r4, r5, r6, pc}
 328              	.L67:
 329 0014 691C     		adds	r1, r5, #1
 330 0016 10D0     		beq	.L65
 331 0018 25B1     		cbz	r5, .L66
 332 001a FFF7FEFF 		bl	HAL_GetTick
 333 001e 801B     		subs	r0, r0, r6
 334 0020 8542     		cmp	r5, r0
 335 0022 09D2     		bcs	.L63
 336              	.L66:
 337 0024 2023     		movs	r3, #32
 338 0026 84F84130 		strb	r3, [r4, #65]
 339 002a 0023     		movs	r3, #0
 340 002c 84F84230 		strb	r3, [r4, #66]
 341 0030 84F84030 		strb	r3, [r4, #64]
 342 0034 0320     		movs	r0, #3
 343 0036 ECE7     		b	.L64
 344              	.L63:
 345 0038 2368     		ldr	r3, [r4]
 346              	.L65:
 347 003a 9969     		ldr	r1, [r3, #24]
 348 003c 8A06     		lsls	r2, r1, #26
 349 003e E9D5     		bpl	.L67
 350 0040 1022     		movs	r2, #16
 351 0042 2025     		movs	r5, #32
 352 0044 DA61     		str	r2, [r3, #28]
 353 0046 2046     		mov	r0, r4
 354 0048 DD61     		str	r5, [r3, #28]
 355 004a FFF7FEFF 		bl	I2C_Flush_TXDR
 356 004e 2268     		ldr	r2, [r4]
 357 0050 5368     		ldr	r3, [r2, #4]
 358 0052 23F0FF73 		bic	r3, r3, #33423360
 359 0056 23F48B33 		bic	r3, r3, #71168
ARM GAS  C:\Users\gyoku\AppData\Local\Temp\ccFqN08K.s 			page 7


 360 005a 23F4FF73 		bic	r3, r3, #510
 361 005e 23F00103 		bic	r3, r3, #1
 362 0062 5360     		str	r3, [r2, #4]
 363 0064 0423     		movs	r3, #4
 364 0066 6364     		str	r3, [r4, #68]
 365 0068 0023     		movs	r3, #0
 366 006a 84F84150 		strb	r5, [r4, #65]
 367 006e 84F84030 		strb	r3, [r4, #64]
 368 0072 84F84230 		strb	r3, [r4, #66]
 369 0076 0120     		movs	r0, #1
 370 0078 CBE7     		b	.L64
 372              		.section	.text.I2C_WaitOnRXNEFlagUntilTimeout,"ax",%progbits
 373              		.align	1
 374              		.syntax unified
 375              		.thumb
 376              		.thumb_func
 377              		.fpu fpv4-sp-d16
 379              	I2C_WaitOnRXNEFlagUntilTimeout:
 380              		@ args = 0, pretend = 0, frame = 0
 381              		@ frame_needed = 0, uses_anonymous_args = 0
 382 0000 70B5     		push	{r4, r5, r6, lr}
 383 0002 0446     		mov	r4, r0
 384 0004 0D46     		mov	r5, r1
 385 0006 1646     		mov	r6, r2
 386              	.L76:
 387 0008 2368     		ldr	r3, [r4]
 388 000a 9B69     		ldr	r3, [r3, #24]
 389 000c 5B07     		lsls	r3, r3, #29
 390 000e 0ED4     		bmi	.L83
 391 0010 3246     		mov	r2, r6
 392 0012 2946     		mov	r1, r5
 393 0014 2046     		mov	r0, r4
 394 0016 FFF7FEFF 		bl	I2C_IsAcknowledgeFailed
 395 001a F0B9     		cbnz	r0, .L84
 396 001c 2368     		ldr	r3, [r4]
 397 001e 9A69     		ldr	r2, [r3, #24]
 398 0020 9106     		lsls	r1, r2, #26
 399 0022 1CD5     		bpl	.L78
 400 0024 9A69     		ldr	r2, [r3, #24]
 401 0026 5207     		lsls	r2, r2, #29
 402 0028 03D5     		bpl	.L79
 403 002a 228D     		ldrh	r2, [r4, #40]
 404 002c 0AB1     		cbz	r2, .L79
 405              	.L83:
 406 002e 0020     		movs	r0, #0
 407              	.L77:
 408 0030 70BD     		pop	{r4, r5, r6, pc}
 409              	.L79:
 410 0032 2021     		movs	r1, #32
 411 0034 D961     		str	r1, [r3, #28]
 412 0036 5A68     		ldr	r2, [r3, #4]
 413 0038 22F0FF72 		bic	r2, r2, #33423360
 414 003c 22F48B32 		bic	r2, r2, #71168
 415 0040 22F4FF72 		bic	r2, r2, #510
 416 0044 22F00102 		bic	r2, r2, #1
 417 0048 5A60     		str	r2, [r3, #4]
 418 004a 0023     		movs	r3, #0
ARM GAS  C:\Users\gyoku\AppData\Local\Temp\ccFqN08K.s 			page 8


 419 004c 6364     		str	r3, [r4, #68]
 420 004e 84F84030 		strb	r3, [r4, #64]
 421 0052 84F84110 		strb	r1, [r4, #65]
 422 0056 84F84230 		strb	r3, [r4, #66]
 423              	.L84:
 424 005a 0120     		movs	r0, #1
 425 005c E8E7     		b	.L77
 426              	.L78:
 427 005e 5DB9     		cbnz	r5, .L80
 428              	.L81:
 429 0060 636C     		ldr	r3, [r4, #68]
 430 0062 43F02003 		orr	r3, r3, #32
 431 0066 6364     		str	r3, [r4, #68]
 432 0068 2023     		movs	r3, #32
 433 006a 84F84130 		strb	r3, [r4, #65]
 434 006e 0023     		movs	r3, #0
 435 0070 84F84030 		strb	r3, [r4, #64]
 436 0074 0320     		movs	r0, #3
 437 0076 DBE7     		b	.L77
 438              	.L80:
 439 0078 FFF7FEFF 		bl	HAL_GetTick
 440 007c 801B     		subs	r0, r0, r6
 441 007e A842     		cmp	r0, r5
 442 0080 C2D9     		bls	.L76
 443 0082 EDE7     		b	.L81
 445              		.section	.text.I2C_WaitOnTXISFlagUntilTimeout,"ax",%progbits
 446              		.align	1
 447              		.syntax unified
 448              		.thumb
 449              		.thumb_func
 450              		.fpu fpv4-sp-d16
 452              	I2C_WaitOnTXISFlagUntilTimeout:
 453              		@ args = 0, pretend = 0, frame = 0
 454              		@ frame_needed = 0, uses_anonymous_args = 0
 455 0000 70B5     		push	{r4, r5, r6, lr}
 456 0002 0446     		mov	r4, r0
 457 0004 0D46     		mov	r5, r1
 458 0006 1646     		mov	r6, r2
 459              	.L94:
 460 0008 2368     		ldr	r3, [r4]
 461 000a 9B69     		ldr	r3, [r3, #24]
 462 000c 9B07     		lsls	r3, r3, #30
 463 000e 01D5     		bpl	.L97
 464 0010 0020     		movs	r0, #0
 465 0012 15E0     		b	.L93
 466              	.L97:
 467 0014 3246     		mov	r2, r6
 468 0016 2946     		mov	r1, r5
 469 0018 2046     		mov	r0, r4
 470 001a FFF7FEFF 		bl	I2C_IsAcknowledgeFailed
 471 001e B0B9     		cbnz	r0, .L98
 472 0020 6A1C     		adds	r2, r5, #1
 473 0022 F1D0     		beq	.L94
 474 0024 6DB9     		cbnz	r5, .L95
 475              	.L96:
 476 0026 636C     		ldr	r3, [r4, #68]
 477 0028 43F02003 		orr	r3, r3, #32
ARM GAS  C:\Users\gyoku\AppData\Local\Temp\ccFqN08K.s 			page 9


 478 002c 6364     		str	r3, [r4, #68]
 479 002e 2023     		movs	r3, #32
 480 0030 84F84130 		strb	r3, [r4, #65]
 481 0034 0023     		movs	r3, #0
 482 0036 84F84230 		strb	r3, [r4, #66]
 483 003a 84F84030 		strb	r3, [r4, #64]
 484 003e 0320     		movs	r0, #3
 485              	.L93:
 486 0040 70BD     		pop	{r4, r5, r6, pc}
 487              	.L95:
 488 0042 FFF7FEFF 		bl	HAL_GetTick
 489 0046 801B     		subs	r0, r0, r6
 490 0048 A842     		cmp	r0, r5
 491 004a DDD9     		bls	.L94
 492 004c EBE7     		b	.L96
 493              	.L98:
 494 004e 0120     		movs	r0, #1
 495 0050 F6E7     		b	.L93
 497              		.section	.text.I2C_RequestMemoryWrite,"ax",%progbits
 498              		.align	1
 499              		.syntax unified
 500              		.thumb
 501              		.thumb_func
 502              		.fpu fpv4-sp-d16
 504              	I2C_RequestMemoryWrite:
 505              		@ args = 8, pretend = 0, frame = 0
 506              		@ frame_needed = 0, uses_anonymous_args = 0
 507 0000 F7B5     		push	{r0, r1, r2, r4, r5, r6, r7, lr}
 508 0002 099E     		ldr	r6, [sp, #36]
 509 0004 1F46     		mov	r7, r3
 510 0006 184B     		ldr	r3, .L117
 511 0008 0093     		str	r3, [sp]
 512 000a 0446     		mov	r4, r0
 513 000c 1546     		mov	r5, r2
 514 000e 4FF08073 		mov	r3, #16777216
 515 0012 FAB2     		uxtb	r2, r7
 516 0014 FFF7FEFF 		bl	I2C_TransferConfig
 517 0018 3246     		mov	r2, r6
 518 001a 0899     		ldr	r1, [sp, #32]
 519 001c 2046     		mov	r0, r4
 520 001e FFF7FEFF 		bl	I2C_WaitOnTXISFlagUntilTimeout
 521 0022 38B1     		cbz	r0, .L102
 522              	.L115:
 523 0024 636C     		ldr	r3, [r4, #68]
 524 0026 042B     		cmp	r3, #4
 525 0028 02D0     		beq	.L103
 526              	.L108:
 527 002a 0320     		movs	r0, #3
 528              	.L104:
 529 002c 03B0     		add	sp, sp, #12
 530              		@ sp needed
 531 002e F0BD     		pop	{r4, r5, r6, r7, pc}
 532              	.L103:
 533 0030 0120     		movs	r0, #1
 534 0032 FBE7     		b	.L104
 535              	.L102:
 536 0034 012F     		cmp	r7, #1
ARM GAS  C:\Users\gyoku\AppData\Local\Temp\ccFqN08K.s 			page 10


 537 0036 2368     		ldr	r3, [r4]
 538 0038 0BD1     		bne	.L105
 539              	.L116:
 540 003a EDB2     		uxtb	r5, r5
 541 003c 9D62     		str	r5, [r3, #40]
 542 003e 089B     		ldr	r3, [sp, #32]
 543 0040 0096     		str	r6, [sp]
 544 0042 0022     		movs	r2, #0
 545 0044 8021     		movs	r1, #128
 546 0046 2046     		mov	r0, r4
 547 0048 FFF7FEFF 		bl	I2C_WaitOnFlagUntilTimeout
 548 004c 0028     		cmp	r0, #0
 549 004e EDD0     		beq	.L104
 550 0050 EBE7     		b	.L108
 551              	.L105:
 552 0052 2A0A     		lsrs	r2, r5, #8
 553 0054 9A62     		str	r2, [r3, #40]
 554 0056 0899     		ldr	r1, [sp, #32]
 555 0058 3246     		mov	r2, r6
 556 005a 2046     		mov	r0, r4
 557 005c FFF7FEFF 		bl	I2C_WaitOnTXISFlagUntilTimeout
 558 0060 0028     		cmp	r0, #0
 559 0062 DFD1     		bne	.L115
 560 0064 2368     		ldr	r3, [r4]
 561 0066 E8E7     		b	.L116
 562              	.L118:
 563              		.align	2
 564              	.L117:
 565 0068 00200080 		.word	-2147475456
 567              		.section	.text.I2C_RequestMemoryRead,"ax",%progbits
 568              		.align	1
 569              		.syntax unified
 570              		.thumb
 571              		.thumb_func
 572              		.fpu fpv4-sp-d16
 574              	I2C_RequestMemoryRead:
 575              		@ args = 8, pretend = 0, frame = 0
 576              		@ frame_needed = 0, uses_anonymous_args = 0
 577 0000 F7B5     		push	{r0, r1, r2, r4, r5, r6, r7, lr}
 578 0002 099E     		ldr	r6, [sp, #36]
 579 0004 1F46     		mov	r7, r3
 580 0006 184B     		ldr	r3, .L135
 581 0008 0093     		str	r3, [sp]
 582 000a 0446     		mov	r4, r0
 583 000c 1546     		mov	r5, r2
 584 000e 0023     		movs	r3, #0
 585 0010 FAB2     		uxtb	r2, r7
 586 0012 FFF7FEFF 		bl	I2C_TransferConfig
 587 0016 3246     		mov	r2, r6
 588 0018 0899     		ldr	r1, [sp, #32]
 589 001a 2046     		mov	r0, r4
 590 001c FFF7FEFF 		bl	I2C_WaitOnTXISFlagUntilTimeout
 591 0020 38B1     		cbz	r0, .L120
 592              	.L133:
 593 0022 636C     		ldr	r3, [r4, #68]
 594 0024 042B     		cmp	r3, #4
 595 0026 02D0     		beq	.L121
ARM GAS  C:\Users\gyoku\AppData\Local\Temp\ccFqN08K.s 			page 11


 596              	.L126:
 597 0028 0320     		movs	r0, #3
 598              	.L122:
 599 002a 03B0     		add	sp, sp, #12
 600              		@ sp needed
 601 002c F0BD     		pop	{r4, r5, r6, r7, pc}
 602              	.L121:
 603 002e 0120     		movs	r0, #1
 604 0030 FBE7     		b	.L122
 605              	.L120:
 606 0032 012F     		cmp	r7, #1
 607 0034 2368     		ldr	r3, [r4]
 608 0036 0BD1     		bne	.L123
 609              	.L134:
 610 0038 EDB2     		uxtb	r5, r5
 611 003a 9D62     		str	r5, [r3, #40]
 612 003c 089B     		ldr	r3, [sp, #32]
 613 003e 0096     		str	r6, [sp]
 614 0040 0022     		movs	r2, #0
 615 0042 4021     		movs	r1, #64
 616 0044 2046     		mov	r0, r4
 617 0046 FFF7FEFF 		bl	I2C_WaitOnFlagUntilTimeout
 618 004a 0028     		cmp	r0, #0
 619 004c EDD0     		beq	.L122
 620 004e EBE7     		b	.L126
 621              	.L123:
 622 0050 2A0A     		lsrs	r2, r5, #8
 623 0052 9A62     		str	r2, [r3, #40]
 624 0054 0899     		ldr	r1, [sp, #32]
 625 0056 3246     		mov	r2, r6
 626 0058 2046     		mov	r0, r4
 627 005a FFF7FEFF 		bl	I2C_WaitOnTXISFlagUntilTimeout
 628 005e 0028     		cmp	r0, #0
 629 0060 DFD1     		bne	.L133
 630 0062 2368     		ldr	r3, [r4]
 631 0064 E8E7     		b	.L134
 632              	.L136:
 633 0066 00BF     		.align	2
 634              	.L135:
 635 0068 00200080 		.word	-2147475456
 637              		.section	.text.I2C_DMASlaveReceiveCplt,"ax",%progbits
 638              		.align	1
 639              		.syntax unified
 640              		.thumb
 641              		.thumb_func
 642              		.fpu fpv4-sp-d16
 644              	I2C_DMASlaveReceiveCplt:
 645              		@ args = 0, pretend = 0, frame = 0
 646              		@ frame_needed = 0, uses_anonymous_args = 0
 647              		@ link register save eliminated.
 648 0000 7047     		bx	lr
 650              		.section	.text.I2C_WaitOnSTOPFlagUntilTimeout,"ax",%progbits
 651              		.align	1
 652              		.syntax unified
 653              		.thumb
 654              		.thumb_func
 655              		.fpu fpv4-sp-d16
ARM GAS  C:\Users\gyoku\AppData\Local\Temp\ccFqN08K.s 			page 12


 657              	I2C_WaitOnSTOPFlagUntilTimeout:
 658              		@ args = 0, pretend = 0, frame = 0
 659              		@ frame_needed = 0, uses_anonymous_args = 0
 660 0000 70B5     		push	{r4, r5, r6, lr}
 661 0002 0446     		mov	r4, r0
 662 0004 0D46     		mov	r5, r1
 663 0006 1646     		mov	r6, r2
 664              	.L139:
 665 0008 2368     		ldr	r3, [r4]
 666 000a 9B69     		ldr	r3, [r3, #24]
 667 000c 9B06     		lsls	r3, r3, #26
 668 000e 01D5     		bpl	.L143
 669 0010 0020     		movs	r0, #0
 670 0012 13E0     		b	.L140
 671              	.L143:
 672 0014 3246     		mov	r2, r6
 673 0016 2946     		mov	r1, r5
 674 0018 2046     		mov	r0, r4
 675 001a FFF7FEFF 		bl	I2C_IsAcknowledgeFailed
 676 001e A0B9     		cbnz	r0, .L144
 677 0020 6DB9     		cbnz	r5, .L141
 678              	.L142:
 679 0022 636C     		ldr	r3, [r4, #68]
 680 0024 43F02003 		orr	r3, r3, #32
 681 0028 6364     		str	r3, [r4, #68]
 682 002a 2023     		movs	r3, #32
 683 002c 84F84130 		strb	r3, [r4, #65]
 684 0030 0023     		movs	r3, #0
 685 0032 84F84230 		strb	r3, [r4, #66]
 686 0036 84F84030 		strb	r3, [r4, #64]
 687 003a 0320     		movs	r0, #3
 688              	.L140:
 689 003c 70BD     		pop	{r4, r5, r6, pc}
 690              	.L141:
 691 003e FFF7FEFF 		bl	HAL_GetTick
 692 0042 801B     		subs	r0, r0, r6
 693 0044 A842     		cmp	r0, r5
 694 0046 DFD9     		bls	.L139
 695 0048 EBE7     		b	.L142
 696              	.L144:
 697 004a 0120     		movs	r0, #1
 698 004c F6E7     		b	.L140
 700              		.section	.text.HAL_I2C_MspInit,"ax",%progbits
 701              		.align	1
 702              		.weak	HAL_I2C_MspInit
 703              		.syntax unified
 704              		.thumb
 705              		.thumb_func
 706              		.fpu fpv4-sp-d16
 708              	HAL_I2C_MspInit:
 709              		@ args = 0, pretend = 0, frame = 0
 710              		@ frame_needed = 0, uses_anonymous_args = 0
 711              		@ link register save eliminated.
 712 0000 7047     		bx	lr
 714              		.section	.text.HAL_I2C_Init,"ax",%progbits
 715              		.align	1
 716              		.global	HAL_I2C_Init
ARM GAS  C:\Users\gyoku\AppData\Local\Temp\ccFqN08K.s 			page 13


 717              		.syntax unified
 718              		.thumb
 719              		.thumb_func
 720              		.fpu fpv4-sp-d16
 722              	HAL_I2C_Init:
 723              		@ args = 0, pretend = 0, frame = 0
 724              		@ frame_needed = 0, uses_anonymous_args = 0
 725 0000 10B5     		push	{r4, lr}
 726 0002 0446     		mov	r4, r0
 727 0004 0028     		cmp	r0, #0
 728 0006 4AD0     		beq	.L151
 729 0008 90F84130 		ldrb	r3, [r0, #65]	@ zero_extendqisi2
 730 000c 03F0FF02 		and	r2, r3, #255
 731 0010 1BB9     		cbnz	r3, .L148
 732 0012 80F84020 		strb	r2, [r0, #64]
 733 0016 FFF7FEFF 		bl	HAL_I2C_MspInit
 734              	.L148:
 735 001a 2423     		movs	r3, #36
 736 001c 84F84130 		strb	r3, [r4, #65]
 737 0020 2368     		ldr	r3, [r4]
 738 0022 1A68     		ldr	r2, [r3]
 739 0024 22F00102 		bic	r2, r2, #1
 740 0028 1A60     		str	r2, [r3]
 741 002a 6268     		ldr	r2, [r4, #4]
 742 002c 22F07062 		bic	r2, r2, #251658240
 743 0030 1A61     		str	r2, [r3, #16]
 744 0032 9A68     		ldr	r2, [r3, #8]
 745 0034 22F40042 		bic	r2, r2, #32768
 746 0038 9A60     		str	r2, [r3, #8]
 747 003a D4E90221 		ldrd	r2, r1, [r4, #8]
 748 003e 0129     		cmp	r1, #1
 749 0040 24D1     		bne	.L149
 750 0042 42F40042 		orr	r2, r2, #32768
 751 0046 9A60     		str	r2, [r3, #8]
 752              	.L150:
 753 0048 5A68     		ldr	r2, [r3, #4]
 754 004a 42F00072 		orr	r2, r2, #33554432
 755 004e 42F40042 		orr	r2, r2, #32768
 756 0052 5A60     		str	r2, [r3, #4]
 757 0054 DA68     		ldr	r2, [r3, #12]
 758 0056 22F40042 		bic	r2, r2, #32768
 759 005a DA60     		str	r2, [r3, #12]
 760 005c D4E90421 		ldrd	r2, r1, [r4, #16]
 761 0060 0A43     		orrs	r2, r2, r1
 762 0062 A169     		ldr	r1, [r4, #24]
 763 0064 42EA0122 		orr	r2, r2, r1, lsl #8
 764 0068 DA60     		str	r2, [r3, #12]
 765 006a D4E90721 		ldrd	r2, r1, [r4, #28]
 766 006e 0A43     		orrs	r2, r2, r1
 767 0070 1A60     		str	r2, [r3]
 768 0072 1A68     		ldr	r2, [r3]
 769 0074 42F00102 		orr	r2, r2, #1
 770 0078 1A60     		str	r2, [r3]
 771 007a 0020     		movs	r0, #0
 772 007c 2023     		movs	r3, #32
 773 007e 6064     		str	r0, [r4, #68]
 774 0080 84F84130 		strb	r3, [r4, #65]
ARM GAS  C:\Users\gyoku\AppData\Local\Temp\ccFqN08K.s 			page 14


 775 0084 2063     		str	r0, [r4, #48]
 776 0086 84F84200 		strb	r0, [r4, #66]
 777              	.L147:
 778 008a 10BD     		pop	{r4, pc}
 779              	.L149:
 780 008c 42F40442 		orr	r2, r2, #33792
 781 0090 0229     		cmp	r1, #2
 782 0092 9A60     		str	r2, [r3, #8]
 783 0094 04BF     		itt	eq
 784 0096 4FF40062 		moveq	r2, #2048
 785 009a 5A60     		streq	r2, [r3, #4]
 786 009c D4E7     		b	.L150
 787              	.L151:
 788 009e 0120     		movs	r0, #1
 789 00a0 F3E7     		b	.L147
 791              		.section	.text.HAL_I2C_MspDeInit,"ax",%progbits
 792              		.align	1
 793              		.weak	HAL_I2C_MspDeInit
 794              		.syntax unified
 795              		.thumb
 796              		.thumb_func
 797              		.fpu fpv4-sp-d16
 799              	HAL_I2C_MspDeInit:
 800              		@ args = 0, pretend = 0, frame = 0
 801              		@ frame_needed = 0, uses_anonymous_args = 0
 802              		@ link register save eliminated.
 803 0000 7047     		bx	lr
 805              		.section	.text.HAL_I2C_DeInit,"ax",%progbits
 806              		.align	1
 807              		.global	HAL_I2C_DeInit
 808              		.syntax unified
 809              		.thumb
 810              		.thumb_func
 811              		.fpu fpv4-sp-d16
 813              	HAL_I2C_DeInit:
 814              		@ args = 0, pretend = 0, frame = 0
 815              		@ frame_needed = 0, uses_anonymous_args = 0
 816 0000 10B5     		push	{r4, lr}
 817 0002 0446     		mov	r4, r0
 818 0004 98B1     		cbz	r0, .L155
 819 0006 0268     		ldr	r2, [r0]
 820 0008 2423     		movs	r3, #36
 821 000a 80F84130 		strb	r3, [r0, #65]
 822 000e 1368     		ldr	r3, [r2]
 823 0010 23F00103 		bic	r3, r3, #1
 824 0014 1360     		str	r3, [r2]
 825 0016 FFF7FEFF 		bl	HAL_I2C_MspDeInit
 826 001a 0020     		movs	r0, #0
 827 001c 6064     		str	r0, [r4, #68]
 828 001e 84F84000 		strb	r0, [r4, #64]
 829 0022 84F84100 		strb	r0, [r4, #65]
 830 0026 2063     		str	r0, [r4, #48]
 831 0028 84F84200 		strb	r0, [r4, #66]
 832              	.L154:
 833 002c 10BD     		pop	{r4, pc}
 834              	.L155:
 835 002e 0120     		movs	r0, #1
ARM GAS  C:\Users\gyoku\AppData\Local\Temp\ccFqN08K.s 			page 15


 836 0030 FCE7     		b	.L154
 838              		.section	.text.HAL_I2C_Master_Transmit,"ax",%progbits
 839              		.align	1
 840              		.global	HAL_I2C_Master_Transmit
 841              		.syntax unified
 842              		.thumb
 843              		.thumb_func
 844              		.fpu fpv4-sp-d16
 846              	HAL_I2C_Master_Transmit:
 847              		@ args = 4, pretend = 0, frame = 0
 848              		@ frame_needed = 0, uses_anonymous_args = 0
 849 0000 2DE9F743 		push	{r0, r1, r2, r4, r5, r6, r7, r8, r9, lr}
 850 0004 9846     		mov	r8, r3
 851 0006 90F84130 		ldrb	r3, [r0, #65]	@ zero_extendqisi2
 852 000a 202B     		cmp	r3, #32
 853 000c 0446     		mov	r4, r0
 854 000e 0E46     		mov	r6, r1
 855 0010 9146     		mov	r9, r2
 856 0012 40F08780 		bne	.L169
 857 0016 90F84030 		ldrb	r3, [r0, #64]	@ zero_extendqisi2
 858 001a 012B     		cmp	r3, #1
 859 001c 00F08280 		beq	.L169
 860 0020 0127     		movs	r7, #1
 861 0022 80F84070 		strb	r7, [r0, #64]
 862 0026 FFF7FEFF 		bl	HAL_GetTick
 863 002a 1923     		movs	r3, #25
 864 002c 0546     		mov	r5, r0
 865 002e 0090     		str	r0, [sp]
 866 0030 3A46     		mov	r2, r7
 867 0032 4FF40041 		mov	r1, #32768
 868 0036 2046     		mov	r0, r4
 869 0038 FFF7FEFF 		bl	I2C_WaitOnFlagUntilTimeout
 870 003c 0028     		cmp	r0, #0
 871 003e 47D1     		bne	.L158
 872 0040 2123     		movs	r3, #33
 873 0042 84F84130 		strb	r3, [r4, #65]
 874 0046 1023     		movs	r3, #16
 875 0048 84F84230 		strb	r3, [r4, #66]
 876 004c 6064     		str	r0, [r4, #68]
 877 004e A4F82A80 		strh	r8, [r4, #42]	@ movhi
 878 0052 638D     		ldrh	r3, [r4, #42]
 879 0054 C4F82490 		str	r9, [r4, #36]
 880 0058 FF2B     		cmp	r3, #255
 881 005a 6063     		str	r0, [r4, #52]
 882 005c 324B     		ldr	r3, .L181
 883 005e 25D9     		bls	.L159
 884 0060 FF22     		movs	r2, #255
 885 0062 2285     		strh	r2, [r4, #40]	@ movhi
 886 0064 0093     		str	r3, [sp]
 887              	.L180:
 888 0066 4FF08073 		mov	r3, #16777216
 889              	.L178:
 890 006a 3146     		mov	r1, r6
 891 006c 2046     		mov	r0, r4
 892 006e FFF7FEFF 		bl	I2C_TransferConfig
 893              	.L161:
 894 0072 638D     		ldrh	r3, [r4, #42]
ARM GAS  C:\Users\gyoku\AppData\Local\Temp\ccFqN08K.s 			page 16


 895 0074 0A99     		ldr	r1, [sp, #40]
 896 0076 9BB2     		uxth	r3, r3
 897 0078 2A46     		mov	r2, r5
 898 007a 2046     		mov	r0, r4
 899 007c F3B9     		cbnz	r3, .L165
 900 007e FFF7FEFF 		bl	I2C_WaitOnSTOPFlagUntilTimeout
 901 0082 F0B9     		cbnz	r0, .L177
 902 0084 2368     		ldr	r3, [r4]
 903 0086 2021     		movs	r1, #32
 904 0088 D961     		str	r1, [r3, #28]
 905 008a 5A68     		ldr	r2, [r3, #4]
 906 008c 22F0FF72 		bic	r2, r2, #33423360
 907 0090 22F48B32 		bic	r2, r2, #71168
 908 0094 22F4FF72 		bic	r2, r2, #510
 909 0098 22F00102 		bic	r2, r2, #1
 910 009c 5A60     		str	r2, [r3, #4]
 911 009e 84F84110 		strb	r1, [r4, #65]
 912 00a2 84F84000 		strb	r0, [r4, #64]
 913 00a6 84F84200 		strb	r0, [r4, #66]
 914 00aa 0EE0     		b	.L157
 915              	.L159:
 916 00ac 628D     		ldrh	r2, [r4, #42]
 917 00ae 0093     		str	r3, [sp]
 918 00b0 92B2     		uxth	r2, r2
 919 00b2 2285     		strh	r2, [r4, #40]	@ movhi
 920              	.L179:
 921 00b4 4FF00073 		mov	r3, #33554432
 922 00b8 D2B2     		uxtb	r2, r2
 923 00ba D6E7     		b	.L178
 924              	.L165:
 925 00bc FFF7FEFF 		bl	I2C_WaitOnTXISFlagUntilTimeout
 926 00c0 40B1     		cbz	r0, .L162
 927              	.L177:
 928 00c2 636C     		ldr	r3, [r4, #68]
 929 00c4 042B     		cmp	r3, #4
 930 00c6 03D1     		bne	.L158
 931 00c8 0120     		movs	r0, #1
 932              	.L157:
 933 00ca 03B0     		add	sp, sp, #12
 934              		@ sp needed
 935 00cc BDE8F083 		pop	{r4, r5, r6, r7, r8, r9, pc}
 936              	.L158:
 937 00d0 0320     		movs	r0, #3
 938 00d2 FAE7     		b	.L157
 939              	.L162:
 940 00d4 636A     		ldr	r3, [r4, #36]
 941 00d6 5A1C     		adds	r2, r3, #1
 942 00d8 6262     		str	r2, [r4, #36]
 943 00da 2268     		ldr	r2, [r4]
 944 00dc 1B78     		ldrb	r3, [r3]	@ zero_extendqisi2
 945 00de 9362     		str	r3, [r2, #40]
 946 00e0 638D     		ldrh	r3, [r4, #42]
 947 00e2 228D     		ldrh	r2, [r4, #40]
 948 00e4 013B     		subs	r3, r3, #1
 949 00e6 013A     		subs	r2, r2, #1
 950 00e8 9BB2     		uxth	r3, r3
 951 00ea 92B2     		uxth	r2, r2
ARM GAS  C:\Users\gyoku\AppData\Local\Temp\ccFqN08K.s 			page 17


 952 00ec 6385     		strh	r3, [r4, #42]	@ movhi
 953 00ee 2285     		strh	r2, [r4, #40]	@ movhi
 954 00f0 002A     		cmp	r2, #0
 955 00f2 BED1     		bne	.L161
 956 00f4 638D     		ldrh	r3, [r4, #42]
 957 00f6 9BB2     		uxth	r3, r3
 958 00f8 002B     		cmp	r3, #0
 959 00fa BAD0     		beq	.L161
 960 00fc 0095     		str	r5, [sp]
 961 00fe 0A9B     		ldr	r3, [sp, #40]
 962 0100 8021     		movs	r1, #128
 963 0102 2046     		mov	r0, r4
 964 0104 FFF7FEFF 		bl	I2C_WaitOnFlagUntilTimeout
 965 0108 0028     		cmp	r0, #0
 966 010a E1D1     		bne	.L158
 967 010c 638D     		ldrh	r3, [r4, #42]
 968 010e FF2B     		cmp	r3, #255
 969 0110 03D9     		bls	.L164
 970 0112 FF22     		movs	r2, #255
 971 0114 2285     		strh	r2, [r4, #40]	@ movhi
 972 0116 0090     		str	r0, [sp]
 973 0118 A5E7     		b	.L180
 974              	.L164:
 975 011a 628D     		ldrh	r2, [r4, #42]
 976 011c 0090     		str	r0, [sp]
 977 011e 92B2     		uxth	r2, r2
 978 0120 2285     		strh	r2, [r4, #40]	@ movhi
 979 0122 C7E7     		b	.L179
 980              	.L169:
 981 0124 0220     		movs	r0, #2
 982 0126 D0E7     		b	.L157
 983              	.L182:
 984              		.align	2
 985              	.L181:
 986 0128 00200080 		.word	-2147475456
 988              		.section	.text.HAL_I2C_Master_Receive,"ax",%progbits
 989              		.align	1
 990              		.global	HAL_I2C_Master_Receive
 991              		.syntax unified
 992              		.thumb
 993              		.thumb_func
 994              		.fpu fpv4-sp-d16
 996              	HAL_I2C_Master_Receive:
 997              		@ args = 4, pretend = 0, frame = 0
 998              		@ frame_needed = 0, uses_anonymous_args = 0
 999 0000 2DE9F743 		push	{r0, r1, r2, r4, r5, r6, r7, r8, r9, lr}
 1000 0004 9846     		mov	r8, r3
 1001 0006 90F84130 		ldrb	r3, [r0, #65]	@ zero_extendqisi2
 1002 000a 202B     		cmp	r3, #32
 1003 000c 0446     		mov	r4, r0
 1004 000e 0E46     		mov	r6, r1
 1005 0010 9146     		mov	r9, r2
 1006 0012 40F08780 		bne	.L196
 1007 0016 90F84030 		ldrb	r3, [r0, #64]	@ zero_extendqisi2
 1008 001a 012B     		cmp	r3, #1
 1009 001c 00F08280 		beq	.L196
 1010 0020 0127     		movs	r7, #1
ARM GAS  C:\Users\gyoku\AppData\Local\Temp\ccFqN08K.s 			page 18


 1011 0022 80F84070 		strb	r7, [r0, #64]
 1012 0026 FFF7FEFF 		bl	HAL_GetTick
 1013 002a 1923     		movs	r3, #25
 1014 002c 0546     		mov	r5, r0
 1015 002e 0090     		str	r0, [sp]
 1016 0030 3A46     		mov	r2, r7
 1017 0032 4FF40041 		mov	r1, #32768
 1018 0036 2046     		mov	r0, r4
 1019 0038 FFF7FEFF 		bl	I2C_WaitOnFlagUntilTimeout
 1020 003c 0028     		cmp	r0, #0
 1021 003e 47D1     		bne	.L185
 1022 0040 2223     		movs	r3, #34
 1023 0042 84F84130 		strb	r3, [r4, #65]
 1024 0046 1023     		movs	r3, #16
 1025 0048 84F84230 		strb	r3, [r4, #66]
 1026 004c 6064     		str	r0, [r4, #68]
 1027 004e A4F82A80 		strh	r8, [r4, #42]	@ movhi
 1028 0052 638D     		ldrh	r3, [r4, #42]
 1029 0054 C4F82490 		str	r9, [r4, #36]
 1030 0058 FF2B     		cmp	r3, #255
 1031 005a 6063     		str	r0, [r4, #52]
 1032 005c 324B     		ldr	r3, .L208
 1033 005e 25D9     		bls	.L186
 1034 0060 FF22     		movs	r2, #255
 1035 0062 2285     		strh	r2, [r4, #40]	@ movhi
 1036 0064 0093     		str	r3, [sp]
 1037              	.L207:
 1038 0066 4FF08073 		mov	r3, #16777216
 1039              	.L205:
 1040 006a 3146     		mov	r1, r6
 1041 006c 2046     		mov	r0, r4
 1042 006e FFF7FEFF 		bl	I2C_TransferConfig
 1043              	.L188:
 1044 0072 638D     		ldrh	r3, [r4, #42]
 1045 0074 0A99     		ldr	r1, [sp, #40]
 1046 0076 9BB2     		uxth	r3, r3
 1047 0078 2A46     		mov	r2, r5
 1048 007a 2046     		mov	r0, r4
 1049 007c F3B9     		cbnz	r3, .L192
 1050 007e FFF7FEFF 		bl	I2C_WaitOnSTOPFlagUntilTimeout
 1051 0082 F0B9     		cbnz	r0, .L204
 1052 0084 2368     		ldr	r3, [r4]
 1053 0086 2021     		movs	r1, #32
 1054 0088 D961     		str	r1, [r3, #28]
 1055 008a 5A68     		ldr	r2, [r3, #4]
 1056 008c 22F0FF72 		bic	r2, r2, #33423360
 1057 0090 22F48B32 		bic	r2, r2, #71168
 1058 0094 22F4FF72 		bic	r2, r2, #510
 1059 0098 22F00102 		bic	r2, r2, #1
 1060 009c 5A60     		str	r2, [r3, #4]
 1061 009e 84F84110 		strb	r1, [r4, #65]
 1062 00a2 84F84000 		strb	r0, [r4, #64]
 1063 00a6 84F84200 		strb	r0, [r4, #66]
 1064 00aa 0EE0     		b	.L184
 1065              	.L186:
 1066 00ac 628D     		ldrh	r2, [r4, #42]
 1067 00ae 0093     		str	r3, [sp]
ARM GAS  C:\Users\gyoku\AppData\Local\Temp\ccFqN08K.s 			page 19


 1068 00b0 92B2     		uxth	r2, r2
 1069 00b2 2285     		strh	r2, [r4, #40]	@ movhi
 1070              	.L206:
 1071 00b4 4FF00073 		mov	r3, #33554432
 1072 00b8 D2B2     		uxtb	r2, r2
 1073 00ba D6E7     		b	.L205
 1074              	.L192:
 1075 00bc FFF7FEFF 		bl	I2C_WaitOnRXNEFlagUntilTimeout
 1076 00c0 40B1     		cbz	r0, .L189
 1077              	.L204:
 1078 00c2 636C     		ldr	r3, [r4, #68]
 1079 00c4 042B     		cmp	r3, #4
 1080 00c6 03D1     		bne	.L185
 1081 00c8 0120     		movs	r0, #1
 1082              	.L184:
 1083 00ca 03B0     		add	sp, sp, #12
 1084              		@ sp needed
 1085 00cc BDE8F083 		pop	{r4, r5, r6, r7, r8, r9, pc}
 1086              	.L185:
 1087 00d0 0320     		movs	r0, #3
 1088 00d2 FAE7     		b	.L184
 1089              	.L189:
 1090 00d4 2368     		ldr	r3, [r4]
 1091 00d6 5A6A     		ldr	r2, [r3, #36]
 1092 00d8 636A     		ldr	r3, [r4, #36]
 1093 00da 591C     		adds	r1, r3, #1
 1094 00dc 6162     		str	r1, [r4, #36]
 1095 00de 1A70     		strb	r2, [r3]
 1096 00e0 228D     		ldrh	r2, [r4, #40]
 1097 00e2 638D     		ldrh	r3, [r4, #42]
 1098 00e4 013A     		subs	r2, r2, #1
 1099 00e6 013B     		subs	r3, r3, #1
 1100 00e8 92B2     		uxth	r2, r2
 1101 00ea 9BB2     		uxth	r3, r3
 1102 00ec 2285     		strh	r2, [r4, #40]	@ movhi
 1103 00ee 6385     		strh	r3, [r4, #42]	@ movhi
 1104 00f0 002A     		cmp	r2, #0
 1105 00f2 BED1     		bne	.L188
 1106 00f4 638D     		ldrh	r3, [r4, #42]
 1107 00f6 9BB2     		uxth	r3, r3
 1108 00f8 002B     		cmp	r3, #0
 1109 00fa BAD0     		beq	.L188
 1110 00fc 0095     		str	r5, [sp]
 1111 00fe 0A9B     		ldr	r3, [sp, #40]
 1112 0100 8021     		movs	r1, #128
 1113 0102 2046     		mov	r0, r4
 1114 0104 FFF7FEFF 		bl	I2C_WaitOnFlagUntilTimeout
 1115 0108 0028     		cmp	r0, #0
 1116 010a E1D1     		bne	.L185
 1117 010c 638D     		ldrh	r3, [r4, #42]
 1118 010e FF2B     		cmp	r3, #255
 1119 0110 03D9     		bls	.L191
 1120 0112 FF22     		movs	r2, #255
 1121 0114 2285     		strh	r2, [r4, #40]	@ movhi
 1122 0116 0090     		str	r0, [sp]
 1123 0118 A5E7     		b	.L207
 1124              	.L191:
ARM GAS  C:\Users\gyoku\AppData\Local\Temp\ccFqN08K.s 			page 20


 1125 011a 628D     		ldrh	r2, [r4, #42]
 1126 011c 0090     		str	r0, [sp]
 1127 011e 92B2     		uxth	r2, r2
 1128 0120 2285     		strh	r2, [r4, #40]	@ movhi
 1129 0122 C7E7     		b	.L206
 1130              	.L196:
 1131 0124 0220     		movs	r0, #2
 1132 0126 D0E7     		b	.L184
 1133              	.L209:
 1134              		.align	2
 1135              	.L208:
 1136 0128 00240080 		.word	-2147474432
 1138              		.section	.text.HAL_I2C_Slave_Transmit,"ax",%progbits
 1139              		.align	1
 1140              		.global	HAL_I2C_Slave_Transmit
 1141              		.syntax unified
 1142              		.thumb
 1143              		.thumb_func
 1144              		.fpu fpv4-sp-d16
 1146              	HAL_I2C_Slave_Transmit:
 1147              		@ args = 0, pretend = 0, frame = 0
 1148              		@ frame_needed = 0, uses_anonymous_args = 0
 1149 0000 2DE9F743 		push	{r0, r1, r2, r4, r5, r6, r7, r8, r9, lr}
 1150 0004 90F84170 		ldrb	r7, [r0, #65]	@ zero_extendqisi2
 1151 0008 FFB2     		uxtb	r7, r7
 1152 000a 202F     		cmp	r7, #32
 1153 000c 0446     		mov	r4, r0
 1154 000e 8946     		mov	r9, r1
 1155 0010 9046     		mov	r8, r2
 1156 0012 1D46     		mov	r5, r3
 1157 0014 40F09080 		bne	.L224
 1158 0018 19B9     		cbnz	r1, .L212
 1159              	.L213:
 1160 001a 0120     		movs	r0, #1
 1161              	.L211:
 1162 001c 03B0     		add	sp, sp, #12
 1163              		@ sp needed
 1164 001e BDE8F083 		pop	{r4, r5, r6, r7, r8, r9, pc}
 1165              	.L212:
 1166 0022 002A     		cmp	r2, #0
 1167 0024 F9D0     		beq	.L213
 1168 0026 90F84030 		ldrb	r3, [r0, #64]	@ zero_extendqisi2
 1169 002a 012B     		cmp	r3, #1
 1170 002c 00F08480 		beq	.L224
 1171 0030 0123     		movs	r3, #1
 1172 0032 80F84030 		strb	r3, [r0, #64]
 1173 0036 FFF7FEFF 		bl	HAL_GetTick
 1174 003a 0022     		movs	r2, #0
 1175 003c 2168     		ldr	r1, [r4]
 1176 003e 6263     		str	r2, [r4, #52]
 1177 0040 2123     		movs	r3, #33
 1178 0042 84F84130 		strb	r3, [r4, #65]
 1179 0046 84F84270 		strb	r7, [r4, #66]
 1180 004a 6264     		str	r2, [r4, #68]
 1181 004c A4F82A80 		strh	r8, [r4, #42]	@ movhi
 1182 0050 4B68     		ldr	r3, [r1, #4]
 1183 0052 C4F82490 		str	r9, [r4, #36]
ARM GAS  C:\Users\gyoku\AppData\Local\Temp\ccFqN08K.s 			page 21


 1184 0056 23F40043 		bic	r3, r3, #32768
 1185 005a 4B60     		str	r3, [r1, #4]
 1186 005c 0646     		mov	r6, r0
 1187 005e 0090     		str	r0, [sp]
 1188 0060 2B46     		mov	r3, r5
 1189 0062 0821     		movs	r1, #8
 1190 0064 2046     		mov	r0, r4
 1191 0066 FFF7FEFF 		bl	I2C_WaitOnFlagUntilTimeout
 1192 006a 2368     		ldr	r3, [r4]
 1193 006c 0246     		mov	r2, r0
 1194 006e 28B1     		cbz	r0, .L214
 1195              	.L236:
 1196 0070 5A68     		ldr	r2, [r3, #4]
 1197 0072 42F40042 		orr	r2, r2, #32768
 1198 0076 5A60     		str	r2, [r3, #4]
 1199              	.L237:
 1200 0078 0320     		movs	r0, #3
 1201 007a CFE7     		b	.L211
 1202              	.L214:
 1203 007c 0827     		movs	r7, #8
 1204 007e DF61     		str	r7, [r3, #28]
 1205 0080 E368     		ldr	r3, [r4, #12]
 1206 0082 022B     		cmp	r3, #2
 1207 0084 09D1     		bne	.L215
 1208 0086 2B46     		mov	r3, r5
 1209 0088 0096     		str	r6, [sp]
 1210 008a 3946     		mov	r1, r7
 1211 008c 2046     		mov	r0, r4
 1212 008e FFF7FEFF 		bl	I2C_WaitOnFlagUntilTimeout
 1213 0092 2368     		ldr	r3, [r4]
 1214 0094 0028     		cmp	r0, #0
 1215 0096 EBD1     		bne	.L236
 1216 0098 DF61     		str	r7, [r3, #28]
 1217              	.L215:
 1218 009a 0096     		str	r6, [sp]
 1219 009c 2B46     		mov	r3, r5
 1220 009e 0022     		movs	r2, #0
 1221 00a0 4FF48031 		mov	r1, #65536
 1222 00a4 2046     		mov	r0, r4
 1223 00a6 FFF7FEFF 		bl	I2C_WaitOnFlagUntilTimeout
 1224 00aa D0B1     		cbz	r0, .L217
 1225 00ac 2268     		ldr	r2, [r4]
 1226 00ae 5368     		ldr	r3, [r2, #4]
 1227 00b0 43F40043 		orr	r3, r3, #32768
 1228 00b4 5360     		str	r3, [r2, #4]
 1229 00b6 DFE7     		b	.L237
 1230              	.L219:
 1231 00b8 FFF7FEFF 		bl	I2C_WaitOnTXISFlagUntilTimeout
 1232 00bc 2368     		ldr	r3, [r4]
 1233 00be 38B1     		cbz	r0, .L218
 1234 00c0 5A68     		ldr	r2, [r3, #4]
 1235 00c2 42F40042 		orr	r2, r2, #32768
 1236 00c6 5A60     		str	r2, [r3, #4]
 1237 00c8 636C     		ldr	r3, [r4, #68]
 1238 00ca 042B     		cmp	r3, #4
 1239 00cc D4D1     		bne	.L237
 1240 00ce A4E7     		b	.L213
ARM GAS  C:\Users\gyoku\AppData\Local\Temp\ccFqN08K.s 			page 22


 1241              	.L218:
 1242 00d0 626A     		ldr	r2, [r4, #36]
 1243 00d2 511C     		adds	r1, r2, #1
 1244 00d4 6162     		str	r1, [r4, #36]
 1245 00d6 1278     		ldrb	r2, [r2]	@ zero_extendqisi2
 1246 00d8 9A62     		str	r2, [r3, #40]
 1247 00da 638D     		ldrh	r3, [r4, #42]
 1248 00dc 013B     		subs	r3, r3, #1
 1249 00de 9BB2     		uxth	r3, r3
 1250 00e0 6385     		strh	r3, [r4, #42]	@ movhi
 1251              	.L217:
 1252 00e2 678D     		ldrh	r7, [r4, #42]
 1253 00e4 BFB2     		uxth	r7, r7
 1254 00e6 3246     		mov	r2, r6
 1255 00e8 2946     		mov	r1, r5
 1256 00ea 2046     		mov	r0, r4
 1257 00ec 002F     		cmp	r7, #0
 1258 00ee E3D1     		bne	.L219
 1259 00f0 FFF7FEFF 		bl	I2C_WaitOnSTOPFlagUntilTimeout
 1260 00f4 2368     		ldr	r3, [r4]
 1261 00f6 38B1     		cbz	r0, .L220
 1262 00f8 5A68     		ldr	r2, [r3, #4]
 1263 00fa 42F40042 		orr	r2, r2, #32768
 1264 00fe 5A60     		str	r2, [r3, #4]
 1265 0100 626C     		ldr	r2, [r4, #68]
 1266 0102 042A     		cmp	r2, #4
 1267 0104 B8D1     		bne	.L237
 1268 0106 6764     		str	r7, [r4, #68]
 1269              	.L220:
 1270 0108 2027     		movs	r7, #32
 1271 010a DF61     		str	r7, [r3, #28]
 1272 010c 0122     		movs	r2, #1
 1273 010e 2B46     		mov	r3, r5
 1274 0110 0096     		str	r6, [sp]
 1275 0112 4FF40041 		mov	r1, #32768
 1276 0116 2046     		mov	r0, r4
 1277 0118 FFF7FEFF 		bl	I2C_WaitOnFlagUntilTimeout
 1278 011c 2368     		ldr	r3, [r4]
 1279 011e 5A68     		ldr	r2, [r3, #4]
 1280 0120 42F40042 		orr	r2, r2, #32768
 1281 0124 5A60     		str	r2, [r3, #4]
 1282 0126 0028     		cmp	r0, #0
 1283 0128 A6D1     		bne	.L237
 1284 012a 84F84170 		strb	r7, [r4, #65]
 1285 012e 84F84000 		strb	r0, [r4, #64]
 1286 0132 84F84200 		strb	r0, [r4, #66]
 1287 0136 71E7     		b	.L211
 1288              	.L224:
 1289 0138 0220     		movs	r0, #2
 1290 013a 6FE7     		b	.L211
 1292              		.section	.text.HAL_I2C_Slave_Receive,"ax",%progbits
 1293              		.align	1
 1294              		.global	HAL_I2C_Slave_Receive
 1295              		.syntax unified
 1296              		.thumb
 1297              		.thumb_func
 1298              		.fpu fpv4-sp-d16
ARM GAS  C:\Users\gyoku\AppData\Local\Temp\ccFqN08K.s 			page 23


 1300              	HAL_I2C_Slave_Receive:
 1301              		@ args = 0, pretend = 0, frame = 0
 1302              		@ frame_needed = 0, uses_anonymous_args = 0
 1303 0000 2DE9F347 		push	{r0, r1, r4, r5, r6, r7, r8, r9, r10, lr}
 1304 0004 90F84170 		ldrb	r7, [r0, #65]	@ zero_extendqisi2
 1305 0008 FFB2     		uxtb	r7, r7
 1306 000a 202F     		cmp	r7, #32
 1307 000c 0446     		mov	r4, r0
 1308 000e 8A46     		mov	r10, r1
 1309 0010 9146     		mov	r9, r2
 1310 0012 1D46     		mov	r5, r3
 1311 0014 40F08F80 		bne	.L250
 1312 0018 0029     		cmp	r1, #0
 1313 001a 54D0     		beq	.L240
 1314 001c 002A     		cmp	r2, #0
 1315 001e 52D0     		beq	.L240
 1316 0020 90F84030 		ldrb	r3, [r0, #64]	@ zero_extendqisi2
 1317 0024 012B     		cmp	r3, #1
 1318 0026 00F08680 		beq	.L250
 1319 002a 4FF00108 		mov	r8, #1
 1320 002e 80F84080 		strb	r8, [r0, #64]
 1321 0032 FFF7FEFF 		bl	HAL_GetTick
 1322 0036 2168     		ldr	r1, [r4]
 1323 0038 C4F824A0 		str	r10, [r4, #36]
 1324 003c 0022     		movs	r2, #0
 1325 003e 2223     		movs	r3, #34
 1326 0040 84F84130 		strb	r3, [r4, #65]
 1327 0044 84F84270 		strb	r7, [r4, #66]
 1328 0048 6264     		str	r2, [r4, #68]
 1329 004a A4F82A90 		strh	r9, [r4, #42]	@ movhi
 1330 004e 4B68     		ldr	r3, [r1, #4]
 1331 0050 6263     		str	r2, [r4, #52]
 1332 0052 23F40043 		bic	r3, r3, #32768
 1333 0056 4B60     		str	r3, [r1, #4]
 1334 0058 0646     		mov	r6, r0
 1335 005a 0090     		str	r0, [sp]
 1336 005c 2B46     		mov	r3, r5
 1337 005e 0821     		movs	r1, #8
 1338 0060 2046     		mov	r0, r4
 1339 0062 FFF7FEFF 		bl	I2C_WaitOnFlagUntilTimeout
 1340 0066 2368     		ldr	r3, [r4]
 1341 0068 28B1     		cbz	r0, .L241
 1342 006a 5A68     		ldr	r2, [r3, #4]
 1343 006c 42F40042 		orr	r2, r2, #32768
 1344 0070 5A60     		str	r2, [r3, #4]
 1345              	.L268:
 1346 0072 0320     		movs	r0, #3
 1347 0074 28E0     		b	.L239
 1348              	.L241:
 1349 0076 0822     		movs	r2, #8
 1350 0078 DA61     		str	r2, [r3, #28]
 1351 007a 4FF48031 		mov	r1, #65536
 1352 007e 0096     		str	r6, [sp]
 1353 0080 2B46     		mov	r3, r5
 1354 0082 4246     		mov	r2, r8
 1355 0084 2046     		mov	r0, r4
 1356 0086 FFF7FEFF 		bl	I2C_WaitOnFlagUntilTimeout
ARM GAS  C:\Users\gyoku\AppData\Local\Temp\ccFqN08K.s 			page 24


 1357 008a 48B3     		cbz	r0, .L242
 1358 008c 2268     		ldr	r2, [r4]
 1359 008e 5368     		ldr	r3, [r2, #4]
 1360 0090 43F40043 		orr	r3, r3, #32768
 1361 0094 5360     		str	r3, [r2, #4]
 1362 0096 ECE7     		b	.L268
 1363              	.L246:
 1364 0098 FFF7FEFF 		bl	I2C_WaitOnRXNEFlagUntilTimeout
 1365 009c 2368     		ldr	r3, [r4]
 1366 009e B0B1     		cbz	r0, .L243
 1367 00a0 5A68     		ldr	r2, [r3, #4]
 1368 00a2 42F40042 		orr	r2, r2, #32768
 1369 00a6 5A60     		str	r2, [r3, #4]
 1370 00a8 9A69     		ldr	r2, [r3, #24]
 1371 00aa 5207     		lsls	r2, r2, #29
 1372 00ac 08D5     		bpl	.L244
 1373 00ae 5A6A     		ldr	r2, [r3, #36]
 1374 00b0 636A     		ldr	r3, [r4, #36]
 1375 00b2 591C     		adds	r1, r3, #1
 1376 00b4 6162     		str	r1, [r4, #36]
 1377 00b6 1A70     		strb	r2, [r3]
 1378 00b8 638D     		ldrh	r3, [r4, #42]
 1379 00ba 013B     		subs	r3, r3, #1
 1380 00bc 9BB2     		uxth	r3, r3
 1381 00be 6385     		strh	r3, [r4, #42]	@ movhi
 1382              	.L244:
 1383 00c0 636C     		ldr	r3, [r4, #68]
 1384 00c2 202B     		cmp	r3, #32
 1385 00c4 D5D0     		beq	.L268
 1386              	.L240:
 1387 00c6 0120     		movs	r0, #1
 1388              	.L239:
 1389 00c8 02B0     		add	sp, sp, #8
 1390              		@ sp needed
 1391 00ca BDE8F087 		pop	{r4, r5, r6, r7, r8, r9, r10, pc}
 1392              	.L243:
 1393 00ce 5A6A     		ldr	r2, [r3, #36]
 1394 00d0 636A     		ldr	r3, [r4, #36]
 1395 00d2 591C     		adds	r1, r3, #1
 1396 00d4 6162     		str	r1, [r4, #36]
 1397 00d6 1A70     		strb	r2, [r3]
 1398 00d8 638D     		ldrh	r3, [r4, #42]
 1399 00da 013B     		subs	r3, r3, #1
 1400 00dc 9BB2     		uxth	r3, r3
 1401 00de 6385     		strh	r3, [r4, #42]	@ movhi
 1402              	.L242:
 1403 00e0 638D     		ldrh	r3, [r4, #42]
 1404 00e2 9BB2     		uxth	r3, r3
 1405 00e4 3246     		mov	r2, r6
 1406 00e6 2946     		mov	r1, r5
 1407 00e8 2046     		mov	r0, r4
 1408 00ea 002B     		cmp	r3, #0
 1409 00ec D4D1     		bne	.L246
 1410 00ee FFF7FEFF 		bl	I2C_WaitOnSTOPFlagUntilTimeout
 1411 00f2 2368     		ldr	r3, [r4]
 1412 00f4 38B1     		cbz	r0, .L247
 1413 00f6 5A68     		ldr	r2, [r3, #4]
ARM GAS  C:\Users\gyoku\AppData\Local\Temp\ccFqN08K.s 			page 25


 1414 00f8 42F40042 		orr	r2, r2, #32768
 1415 00fc 5A60     		str	r2, [r3, #4]
 1416 00fe 636C     		ldr	r3, [r4, #68]
 1417 0100 042B     		cmp	r3, #4
 1418 0102 B6D1     		bne	.L268
 1419 0104 DFE7     		b	.L240
 1420              	.L247:
 1421 0106 2027     		movs	r7, #32
 1422 0108 DF61     		str	r7, [r3, #28]
 1423 010a 0122     		movs	r2, #1
 1424 010c 2B46     		mov	r3, r5
 1425 010e 0096     		str	r6, [sp]
 1426 0110 4FF40041 		mov	r1, #32768
 1427 0114 2046     		mov	r0, r4
 1428 0116 FFF7FEFF 		bl	I2C_WaitOnFlagUntilTimeout
 1429 011a 2368     		ldr	r3, [r4]
 1430 011c 5A68     		ldr	r2, [r3, #4]
 1431 011e 42F40042 		orr	r2, r2, #32768
 1432 0122 5A60     		str	r2, [r3, #4]
 1433 0124 0028     		cmp	r0, #0
 1434 0126 A4D1     		bne	.L268
 1435 0128 84F84170 		strb	r7, [r4, #65]
 1436 012c 84F84000 		strb	r0, [r4, #64]
 1437 0130 84F84200 		strb	r0, [r4, #66]
 1438 0134 C8E7     		b	.L239
 1439              	.L250:
 1440 0136 0220     		movs	r0, #2
 1441 0138 C6E7     		b	.L239
 1443              		.section	.text.HAL_I2C_Master_Transmit_IT,"ax",%progbits
 1444              		.align	1
 1445              		.global	HAL_I2C_Master_Transmit_IT
 1446              		.syntax unified
 1447              		.thumb
 1448              		.thumb_func
 1449              		.fpu fpv4-sp-d16
 1451              	HAL_I2C_Master_Transmit_IT:
 1452              		@ args = 0, pretend = 0, frame = 0
 1453              		@ frame_needed = 0, uses_anonymous_args = 0
 1454 0000 37B5     		push	{r0, r1, r2, r4, r5, lr}
 1455 0002 0446     		mov	r4, r0
 1456 0004 90F84100 		ldrb	r0, [r0, #65]	@ zero_extendqisi2
 1457 0008 2028     		cmp	r0, #32
 1458 000a 34D1     		bne	.L274
 1459 000c 2068     		ldr	r0, [r4]
 1460 000e 8069     		ldr	r0, [r0, #24]
 1461 0010 10F40040 		ands	r0, r0, #32768
 1462 0014 2FD1     		bne	.L274
 1463 0016 94F84050 		ldrb	r5, [r4, #64]	@ zero_extendqisi2
 1464 001a 012D     		cmp	r5, #1
 1465 001c 2BD0     		beq	.L274
 1466 001e 0125     		movs	r5, #1
 1467 0020 84F84050 		strb	r5, [r4, #64]
 1468 0024 2125     		movs	r5, #33
 1469 0026 84F84150 		strb	r5, [r4, #65]
 1470 002a 1025     		movs	r5, #16
 1471 002c 84F84250 		strb	r5, [r4, #66]
 1472 0030 6064     		str	r0, [r4, #68]
ARM GAS  C:\Users\gyoku\AppData\Local\Temp\ccFqN08K.s 			page 26


 1473 0032 6385     		strh	r3, [r4, #42]	@ movhi
 1474 0034 114B     		ldr	r3, .L276
 1475 0036 E362     		str	r3, [r4, #44]
 1476 0038 114B     		ldr	r3, .L276+4
 1477 003a 6363     		str	r3, [r4, #52]
 1478 003c 638D     		ldrh	r3, [r4, #42]
 1479 003e 6262     		str	r2, [r4, #36]
 1480 0040 FF2B     		cmp	r3, #255
 1481 0042 98BF     		it	ls
 1482 0044 628D     		ldrhls	r2, [r4, #42]
 1483 0046 0F48     		ldr	r0, .L276+8
 1484 0048 0090     		str	r0, [sp]
 1485 004a 95BF     		itete	ls
 1486 004c 92B2     		uxthls	r2, r2
 1487 004e FF22     		movhi	r2, #255
 1488 0050 4FF00073 		movls	r3, #33554432
 1489 0054 4FF08073 		movhi	r3, #16777216
 1490 0058 2285     		strh	r2, [r4, #40]	@ movhi
 1491 005a 2046     		mov	r0, r4
 1492 005c D2B2     		uxtb	r2, r2
 1493 005e 0025     		movs	r5, #0
 1494 0060 FFF7FEFF 		bl	I2C_TransferConfig
 1495 0064 84F84050 		strb	r5, [r4, #64]
 1496 0068 0121     		movs	r1, #1
 1497 006a 2046     		mov	r0, r4
 1498 006c FFF7FEFF 		bl	I2C_Enable_IRQ
 1499 0070 2846     		mov	r0, r5
 1500              	.L270:
 1501 0072 03B0     		add	sp, sp, #12
 1502              		@ sp needed
 1503 0074 30BD     		pop	{r4, r5, pc}
 1504              	.L274:
 1505 0076 0220     		movs	r0, #2
 1506 0078 FBE7     		b	.L270
 1507              	.L277:
 1508 007a 00BF     		.align	2
 1509              	.L276:
 1510 007c 0000FFFF 		.word	-65536
 1511 0080 00000000 		.word	I2C_Master_ISR_IT
 1512 0084 00200080 		.word	-2147475456
 1514              		.section	.text.HAL_I2C_Master_Receive_IT,"ax",%progbits
 1515              		.align	1
 1516              		.global	HAL_I2C_Master_Receive_IT
 1517              		.syntax unified
 1518              		.thumb
 1519              		.thumb_func
 1520              		.fpu fpv4-sp-d16
 1522              	HAL_I2C_Master_Receive_IT:
 1523              		@ args = 0, pretend = 0, frame = 0
 1524              		@ frame_needed = 0, uses_anonymous_args = 0
 1525 0000 37B5     		push	{r0, r1, r2, r4, r5, lr}
 1526 0002 0446     		mov	r4, r0
 1527 0004 90F84100 		ldrb	r0, [r0, #65]	@ zero_extendqisi2
 1528 0008 2028     		cmp	r0, #32
 1529 000a 34D1     		bne	.L283
 1530 000c 2068     		ldr	r0, [r4]
 1531 000e 8069     		ldr	r0, [r0, #24]
ARM GAS  C:\Users\gyoku\AppData\Local\Temp\ccFqN08K.s 			page 27


 1532 0010 10F40040 		ands	r0, r0, #32768
 1533 0014 2FD1     		bne	.L283
 1534 0016 94F84050 		ldrb	r5, [r4, #64]	@ zero_extendqisi2
 1535 001a 012D     		cmp	r5, #1
 1536 001c 2BD0     		beq	.L283
 1537 001e 0125     		movs	r5, #1
 1538 0020 84F84050 		strb	r5, [r4, #64]
 1539 0024 2225     		movs	r5, #34
 1540 0026 84F84150 		strb	r5, [r4, #65]
 1541 002a 1025     		movs	r5, #16
 1542 002c 84F84250 		strb	r5, [r4, #66]
 1543 0030 6064     		str	r0, [r4, #68]
 1544 0032 6385     		strh	r3, [r4, #42]	@ movhi
 1545 0034 114B     		ldr	r3, .L285
 1546 0036 E362     		str	r3, [r4, #44]
 1547 0038 114B     		ldr	r3, .L285+4
 1548 003a 6363     		str	r3, [r4, #52]
 1549 003c 638D     		ldrh	r3, [r4, #42]
 1550 003e 6262     		str	r2, [r4, #36]
 1551 0040 FF2B     		cmp	r3, #255
 1552 0042 98BF     		it	ls
 1553 0044 628D     		ldrhls	r2, [r4, #42]
 1554 0046 0F48     		ldr	r0, .L285+8
 1555 0048 0090     		str	r0, [sp]
 1556 004a 95BF     		itete	ls
 1557 004c 92B2     		uxthls	r2, r2
 1558 004e FF22     		movhi	r2, #255
 1559 0050 4FF00073 		movls	r3, #33554432
 1560 0054 4FF08073 		movhi	r3, #16777216
 1561 0058 2285     		strh	r2, [r4, #40]	@ movhi
 1562 005a 2046     		mov	r0, r4
 1563 005c D2B2     		uxtb	r2, r2
 1564 005e 0025     		movs	r5, #0
 1565 0060 FFF7FEFF 		bl	I2C_TransferConfig
 1566 0064 84F84050 		strb	r5, [r4, #64]
 1567 0068 0221     		movs	r1, #2
 1568 006a 2046     		mov	r0, r4
 1569 006c FFF7FEFF 		bl	I2C_Enable_IRQ
 1570 0070 2846     		mov	r0, r5
 1571              	.L279:
 1572 0072 03B0     		add	sp, sp, #12
 1573              		@ sp needed
 1574 0074 30BD     		pop	{r4, r5, pc}
 1575              	.L283:
 1576 0076 0220     		movs	r0, #2
 1577 0078 FBE7     		b	.L279
 1578              	.L286:
 1579 007a 00BF     		.align	2
 1580              	.L285:
 1581 007c 0000FFFF 		.word	-65536
 1582 0080 00000000 		.word	I2C_Master_ISR_IT
 1583 0084 00240080 		.word	-2147474432
 1585              		.section	.text.HAL_I2C_Slave_Transmit_IT,"ax",%progbits
 1586              		.align	1
 1587              		.global	HAL_I2C_Slave_Transmit_IT
 1588              		.syntax unified
 1589              		.thumb
ARM GAS  C:\Users\gyoku\AppData\Local\Temp\ccFqN08K.s 			page 28


 1590              		.thumb_func
 1591              		.fpu fpv4-sp-d16
 1593              	HAL_I2C_Slave_Transmit_IT:
 1594              		@ args = 0, pretend = 0, frame = 0
 1595              		@ frame_needed = 0, uses_anonymous_args = 0
 1596 0000 70B5     		push	{r4, r5, r6, lr}
 1597 0002 90F84140 		ldrb	r4, [r0, #65]	@ zero_extendqisi2
 1598 0006 E4B2     		uxtb	r4, r4
 1599 0008 202C     		cmp	r4, #32
 1600 000a 1ED1     		bne	.L290
 1601 000c 90F84050 		ldrb	r5, [r0, #64]	@ zero_extendqisi2
 1602 0010 012D     		cmp	r5, #1
 1603 0012 1AD0     		beq	.L290
 1604 0014 2125     		movs	r5, #33
 1605 0016 80F84150 		strb	r5, [r0, #65]
 1606 001a 0668     		ldr	r6, [r0]
 1607 001c 80F84240 		strb	r4, [r0, #66]
 1608 0020 0024     		movs	r4, #0
 1609 0022 4464     		str	r4, [r0, #68]
 1610 0024 7568     		ldr	r5, [r6, #4]
 1611 0026 25F40045 		bic	r5, r5, #32768
 1612 002a 7560     		str	r5, [r6, #4]
 1613 002c 4285     		strh	r2, [r0, #42]	@ movhi
 1614 002e 428D     		ldrh	r2, [r0, #42]
 1615 0030 0285     		strh	r2, [r0, #40]	@ movhi
 1616 0032 074A     		ldr	r2, .L291
 1617 0034 C262     		str	r2, [r0, #44]
 1618 0036 074A     		ldr	r2, .L291+4
 1619 0038 4162     		str	r1, [r0, #36]
 1620 003a 4263     		str	r2, [r0, #52]
 1621 003c 80F84040 		strb	r4, [r0, #64]
 1622 0040 0521     		movs	r1, #5
 1623 0042 FFF7FEFF 		bl	I2C_Enable_IRQ
 1624 0046 2046     		mov	r0, r4
 1625              	.L288:
 1626 0048 70BD     		pop	{r4, r5, r6, pc}
 1627              	.L290:
 1628 004a 0220     		movs	r0, #2
 1629 004c FCE7     		b	.L288
 1630              	.L292:
 1631 004e 00BF     		.align	2
 1632              	.L291:
 1633 0050 0000FFFF 		.word	-65536
 1634 0054 00000000 		.word	I2C_Slave_ISR_IT
 1636              		.section	.text.HAL_I2C_Slave_Receive_IT,"ax",%progbits
 1637              		.align	1
 1638              		.global	HAL_I2C_Slave_Receive_IT
 1639              		.syntax unified
 1640              		.thumb
 1641              		.thumb_func
 1642              		.fpu fpv4-sp-d16
 1644              	HAL_I2C_Slave_Receive_IT:
 1645              		@ args = 0, pretend = 0, frame = 0
 1646              		@ frame_needed = 0, uses_anonymous_args = 0
 1647 0000 70B5     		push	{r4, r5, r6, lr}
 1648 0002 90F84140 		ldrb	r4, [r0, #65]	@ zero_extendqisi2
 1649 0006 E4B2     		uxtb	r4, r4
ARM GAS  C:\Users\gyoku\AppData\Local\Temp\ccFqN08K.s 			page 29


 1650 0008 202C     		cmp	r4, #32
 1651 000a 1ED1     		bne	.L296
 1652 000c 90F84050 		ldrb	r5, [r0, #64]	@ zero_extendqisi2
 1653 0010 012D     		cmp	r5, #1
 1654 0012 1AD0     		beq	.L296
 1655 0014 2225     		movs	r5, #34
 1656 0016 80F84150 		strb	r5, [r0, #65]
 1657 001a 0668     		ldr	r6, [r0]
 1658 001c 80F84240 		strb	r4, [r0, #66]
 1659 0020 0024     		movs	r4, #0
 1660 0022 4464     		str	r4, [r0, #68]
 1661 0024 7568     		ldr	r5, [r6, #4]
 1662 0026 25F40045 		bic	r5, r5, #32768
 1663 002a 7560     		str	r5, [r6, #4]
 1664 002c 4285     		strh	r2, [r0, #42]	@ movhi
 1665 002e 428D     		ldrh	r2, [r0, #42]
 1666 0030 0285     		strh	r2, [r0, #40]	@ movhi
 1667 0032 074A     		ldr	r2, .L297
 1668 0034 C262     		str	r2, [r0, #44]
 1669 0036 074A     		ldr	r2, .L297+4
 1670 0038 4162     		str	r1, [r0, #36]
 1671 003a 4263     		str	r2, [r0, #52]
 1672 003c 80F84040 		strb	r4, [r0, #64]
 1673 0040 0621     		movs	r1, #6
 1674 0042 FFF7FEFF 		bl	I2C_Enable_IRQ
 1675 0046 2046     		mov	r0, r4
 1676              	.L294:
 1677 0048 70BD     		pop	{r4, r5, r6, pc}
 1678              	.L296:
 1679 004a 0220     		movs	r0, #2
 1680 004c FCE7     		b	.L294
 1681              	.L298:
 1682 004e 00BF     		.align	2
 1683              	.L297:
 1684 0050 0000FFFF 		.word	-65536
 1685 0054 00000000 		.word	I2C_Slave_ISR_IT
 1687              		.section	.text.HAL_I2C_Master_Transmit_DMA,"ax",%progbits
 1688              		.align	1
 1689              		.global	HAL_I2C_Master_Transmit_DMA
 1690              		.syntax unified
 1691              		.thumb
 1692              		.thumb_func
 1693              		.fpu fpv4-sp-d16
 1695              	HAL_I2C_Master_Transmit_DMA:
 1696              		@ args = 0, pretend = 0, frame = 0
 1697              		@ frame_needed = 0, uses_anonymous_args = 0
 1698 0000 2DE9F341 		push	{r0, r1, r4, r5, r6, r7, r8, lr}
 1699 0004 0F46     		mov	r7, r1
 1700 0006 1146     		mov	r1, r2
 1701 0008 90F84120 		ldrb	r2, [r0, #65]	@ zero_extendqisi2
 1702 000c 202A     		cmp	r2, #32
 1703 000e 0446     		mov	r4, r0
 1704 0010 61D1     		bne	.L305
 1705 0012 0268     		ldr	r2, [r0]
 1706 0014 9069     		ldr	r0, [r2, #24]
 1707 0016 10F40040 		ands	r0, r0, #32768
 1708 001a 5CD1     		bne	.L305
ARM GAS  C:\Users\gyoku\AppData\Local\Temp\ccFqN08K.s 			page 30


 1709 001c 94F84050 		ldrb	r5, [r4, #64]	@ zero_extendqisi2
 1710 0020 012D     		cmp	r5, #1
 1711 0022 58D0     		beq	.L305
 1712 0024 0125     		movs	r5, #1
 1713 0026 84F84050 		strb	r5, [r4, #64]
 1714 002a 2125     		movs	r5, #33
 1715 002c 84F84150 		strb	r5, [r4, #65]
 1716 0030 1025     		movs	r5, #16
 1717 0032 84F84250 		strb	r5, [r4, #66]
 1718 0036 6064     		str	r0, [r4, #68]
 1719 0038 6385     		strh	r3, [r4, #42]	@ movhi
 1720 003a 284B     		ldr	r3, .L307
 1721 003c E362     		str	r3, [r4, #44]
 1722 003e 284B     		ldr	r3, .L307+4
 1723 0040 6363     		str	r3, [r4, #52]
 1724 0042 638D     		ldrh	r3, [r4, #42]
 1725 0044 6162     		str	r1, [r4, #36]
 1726 0046 FF2B     		cmp	r3, #255
 1727 0048 97BF     		itett	ls
 1728 004a 658D     		ldrhls	r5, [r4, #42]
 1729 004c FF25     		movhi	r5, #255
 1730 004e ADB2     		uxthls	r5, r5
 1731 0050 4FF00078 		movls	r8, #33554432
 1732 0054 88BF     		it	hi
 1733 0056 4FF08078 		movhi	r8, #16777216
 1734 005a 2585     		strh	r5, [r4, #40]	@ movhi
 1735 005c 45B3     		cbz	r5, .L302
 1736 005e A06B     		ldr	r0, [r4, #56]
 1737 0060 204B     		ldr	r3, .L307+8
 1738 0062 8362     		str	r3, [r0, #40]
 1739 0064 0026     		movs	r6, #0
 1740 0066 204B     		ldr	r3, .L307+12
 1741 0068 0363     		str	r3, [r0, #48]
 1742 006a 2832     		adds	r2, r2, #40
 1743 006c 2B46     		mov	r3, r5
 1744 006e C662     		str	r6, [r0, #44]
 1745 0070 4663     		str	r6, [r0, #52]
 1746 0072 FFF7FEFF 		bl	HAL_DMA_Start_IT
 1747 0076 1D4B     		ldr	r3, .L307+16
 1748 0078 0093     		str	r3, [sp]
 1749 007a 94F82820 		ldrb	r2, [r4, #40]	@ zero_extendqisi2
 1750 007e 4346     		mov	r3, r8
 1751 0080 3946     		mov	r1, r7
 1752 0082 2046     		mov	r0, r4
 1753 0084 FFF7FEFF 		bl	I2C_TransferConfig
 1754 0088 638D     		ldrh	r3, [r4, #42]
 1755 008a 228D     		ldrh	r2, [r4, #40]
 1756 008c 84F84060 		strb	r6, [r4, #64]
 1757 0090 9B1A     		subs	r3, r3, r2
 1758 0092 9BB2     		uxth	r3, r3
 1759 0094 6385     		strh	r3, [r4, #42]	@ movhi
 1760 0096 1121     		movs	r1, #17
 1761 0098 2046     		mov	r0, r4
 1762 009a FFF7FEFF 		bl	I2C_Enable_IRQ
 1763 009e 2268     		ldr	r2, [r4]
 1764 00a0 1368     		ldr	r3, [r2]
 1765 00a2 43F48043 		orr	r3, r3, #16384
ARM GAS  C:\Users\gyoku\AppData\Local\Temp\ccFqN08K.s 			page 31


 1766 00a6 1360     		str	r3, [r2]
 1767 00a8 3046     		mov	r0, r6
 1768              	.L300:
 1769 00aa 02B0     		add	sp, sp, #8
 1770              		@ sp needed
 1771 00ac BDE8F081 		pop	{r4, r5, r6, r7, r8, pc}
 1772              	.L302:
 1773 00b0 0F4B     		ldr	r3, .L307+20
 1774 00b2 6363     		str	r3, [r4, #52]
 1775 00b4 0D4B     		ldr	r3, .L307+16
 1776 00b6 0093     		str	r3, [sp]
 1777 00b8 2A46     		mov	r2, r5
 1778 00ba 4FF00073 		mov	r3, #33554432
 1779 00be 3946     		mov	r1, r7
 1780 00c0 2046     		mov	r0, r4
 1781 00c2 FFF7FEFF 		bl	I2C_TransferConfig
 1782 00c6 84F84050 		strb	r5, [r4, #64]
 1783 00ca 0121     		movs	r1, #1
 1784 00cc 2046     		mov	r0, r4
 1785 00ce FFF7FEFF 		bl	I2C_Enable_IRQ
 1786 00d2 2846     		mov	r0, r5
 1787 00d4 E9E7     		b	.L300
 1788              	.L305:
 1789 00d6 0220     		movs	r0, #2
 1790 00d8 E7E7     		b	.L300
 1791              	.L308:
 1792 00da 00BF     		.align	2
 1793              	.L307:
 1794 00dc 0000FFFF 		.word	-65536
 1795 00e0 00000000 		.word	I2C_Master_ISR_DMA
 1796 00e4 00000000 		.word	I2C_DMAMasterTransmitCplt
 1797 00e8 00000000 		.word	I2C_DMAError
 1798 00ec 00200080 		.word	-2147475456
 1799 00f0 00000000 		.word	I2C_Master_ISR_IT
 1801              		.section	.text.HAL_I2C_Master_Receive_DMA,"ax",%progbits
 1802              		.align	1
 1803              		.global	HAL_I2C_Master_Receive_DMA
 1804              		.syntax unified
 1805              		.thumb
 1806              		.thumb_func
 1807              		.fpu fpv4-sp-d16
 1809              	HAL_I2C_Master_Receive_DMA:
 1810              		@ args = 0, pretend = 0, frame = 0
 1811              		@ frame_needed = 0, uses_anonymous_args = 0
 1812 0000 2DE9F341 		push	{r0, r1, r4, r5, r6, r7, r8, lr}
 1813 0004 0F46     		mov	r7, r1
 1814 0006 90F84110 		ldrb	r1, [r0, #65]	@ zero_extendqisi2
 1815 000a 2029     		cmp	r1, #32
 1816 000c 0446     		mov	r4, r0
 1817 000e 61D1     		bne	.L315
 1818 0010 0168     		ldr	r1, [r0]
 1819 0012 8869     		ldr	r0, [r1, #24]
 1820 0014 10F40040 		ands	r0, r0, #32768
 1821 0018 5CD1     		bne	.L315
 1822 001a 94F84050 		ldrb	r5, [r4, #64]	@ zero_extendqisi2
 1823 001e 012D     		cmp	r5, #1
 1824 0020 58D0     		beq	.L315
ARM GAS  C:\Users\gyoku\AppData\Local\Temp\ccFqN08K.s 			page 32


 1825 0022 0125     		movs	r5, #1
 1826 0024 84F84050 		strb	r5, [r4, #64]
 1827 0028 2225     		movs	r5, #34
 1828 002a 84F84150 		strb	r5, [r4, #65]
 1829 002e 1025     		movs	r5, #16
 1830 0030 84F84250 		strb	r5, [r4, #66]
 1831 0034 6064     		str	r0, [r4, #68]
 1832 0036 6385     		strh	r3, [r4, #42]	@ movhi
 1833 0038 274B     		ldr	r3, .L317
 1834 003a E362     		str	r3, [r4, #44]
 1835 003c 274B     		ldr	r3, .L317+4
 1836 003e 6363     		str	r3, [r4, #52]
 1837 0040 638D     		ldrh	r3, [r4, #42]
 1838 0042 6262     		str	r2, [r4, #36]
 1839 0044 FF2B     		cmp	r3, #255
 1840 0046 97BF     		itett	ls
 1841 0048 658D     		ldrhls	r5, [r4, #42]
 1842 004a FF25     		movhi	r5, #255
 1843 004c ADB2     		uxthls	r5, r5
 1844 004e 4FF00078 		movls	r8, #33554432
 1845 0052 88BF     		it	hi
 1846 0054 4FF08078 		movhi	r8, #16777216
 1847 0058 2585     		strh	r5, [r4, #40]	@ movhi
 1848 005a 45B3     		cbz	r5, .L312
 1849 005c E06B     		ldr	r0, [r4, #60]
 1850 005e 204B     		ldr	r3, .L317+8
 1851 0060 8362     		str	r3, [r0, #40]
 1852 0062 0026     		movs	r6, #0
 1853 0064 1F4B     		ldr	r3, .L317+12
 1854 0066 0363     		str	r3, [r0, #48]
 1855 0068 2431     		adds	r1, r1, #36
 1856 006a 2B46     		mov	r3, r5
 1857 006c C662     		str	r6, [r0, #44]
 1858 006e 4663     		str	r6, [r0, #52]
 1859 0070 FFF7FEFF 		bl	HAL_DMA_Start_IT
 1860 0074 1C4B     		ldr	r3, .L317+16
 1861 0076 0093     		str	r3, [sp]
 1862 0078 94F82820 		ldrb	r2, [r4, #40]	@ zero_extendqisi2
 1863 007c 4346     		mov	r3, r8
 1864 007e 3946     		mov	r1, r7
 1865 0080 2046     		mov	r0, r4
 1866 0082 FFF7FEFF 		bl	I2C_TransferConfig
 1867 0086 638D     		ldrh	r3, [r4, #42]
 1868 0088 228D     		ldrh	r2, [r4, #40]
 1869 008a 84F84060 		strb	r6, [r4, #64]
 1870 008e 9B1A     		subs	r3, r3, r2
 1871 0090 9BB2     		uxth	r3, r3
 1872 0092 6385     		strh	r3, [r4, #42]	@ movhi
 1873 0094 1121     		movs	r1, #17
 1874 0096 2046     		mov	r0, r4
 1875 0098 FFF7FEFF 		bl	I2C_Enable_IRQ
 1876 009c 2268     		ldr	r2, [r4]
 1877 009e 1368     		ldr	r3, [r2]
 1878 00a0 43F40043 		orr	r3, r3, #32768
 1879 00a4 1360     		str	r3, [r2]
 1880 00a6 3046     		mov	r0, r6
 1881              	.L310:
ARM GAS  C:\Users\gyoku\AppData\Local\Temp\ccFqN08K.s 			page 33


 1882 00a8 02B0     		add	sp, sp, #8
 1883              		@ sp needed
 1884 00aa BDE8F081 		pop	{r4, r5, r6, r7, r8, pc}
 1885              	.L312:
 1886 00ae 0F4B     		ldr	r3, .L317+20
 1887 00b0 6363     		str	r3, [r4, #52]
 1888 00b2 0D4B     		ldr	r3, .L317+16
 1889 00b4 0093     		str	r3, [sp]
 1890 00b6 2A46     		mov	r2, r5
 1891 00b8 4FF00073 		mov	r3, #33554432
 1892 00bc 3946     		mov	r1, r7
 1893 00be 2046     		mov	r0, r4
 1894 00c0 FFF7FEFF 		bl	I2C_TransferConfig
 1895 00c4 84F84050 		strb	r5, [r4, #64]
 1896 00c8 0121     		movs	r1, #1
 1897 00ca 2046     		mov	r0, r4
 1898 00cc FFF7FEFF 		bl	I2C_Enable_IRQ
 1899 00d0 2846     		mov	r0, r5
 1900 00d2 E9E7     		b	.L310
 1901              	.L315:
 1902 00d4 0220     		movs	r0, #2
 1903 00d6 E7E7     		b	.L310
 1904              	.L318:
 1905              		.align	2
 1906              	.L317:
 1907 00d8 0000FFFF 		.word	-65536
 1908 00dc 00000000 		.word	I2C_Master_ISR_DMA
 1909 00e0 00000000 		.word	I2C_DMAMasterReceiveCplt
 1910 00e4 00000000 		.word	I2C_DMAError
 1911 00e8 00240080 		.word	-2147474432
 1912 00ec 00000000 		.word	I2C_Master_ISR_IT
 1914              		.section	.text.HAL_I2C_Slave_Transmit_DMA,"ax",%progbits
 1915              		.align	1
 1916              		.global	HAL_I2C_Slave_Transmit_DMA
 1917              		.syntax unified
 1918              		.thumb
 1919              		.thumb_func
 1920              		.fpu fpv4-sp-d16
 1922              	HAL_I2C_Slave_Transmit_DMA:
 1923              		@ args = 0, pretend = 0, frame = 0
 1924              		@ frame_needed = 0, uses_anonymous_args = 0
 1925 0000 38B5     		push	{r3, r4, r5, lr}
 1926 0002 0446     		mov	r4, r0
 1927 0004 94F84130 		ldrb	r3, [r4, #65]	@ zero_extendqisi2
 1928 0008 DBB2     		uxtb	r3, r3
 1929 000a 202B     		cmp	r3, #32
 1930 000c 39D1     		bne	.L324
 1931 000e 0029     		cmp	r1, #0
 1932 0010 35D0     		beq	.L323
 1933 0012 002A     		cmp	r2, #0
 1934 0014 33D0     		beq	.L323
 1935 0016 94F84050 		ldrb	r5, [r4, #64]	@ zero_extendqisi2
 1936 001a 012D     		cmp	r5, #1
 1937 001c 31D0     		beq	.L324
 1938 001e 0125     		movs	r5, #1
 1939 0020 84F84050 		strb	r5, [r4, #64]
 1940 0024 2125     		movs	r5, #33
ARM GAS  C:\Users\gyoku\AppData\Local\Temp\ccFqN08K.s 			page 34


 1941 0026 84F84150 		strb	r5, [r4, #65]
 1942 002a 0025     		movs	r5, #0
 1943 002c 84F84230 		strb	r3, [r4, #66]
 1944 0030 6564     		str	r5, [r4, #68]
 1945 0032 6285     		strh	r2, [r4, #42]	@ movhi
 1946 0034 638D     		ldrh	r3, [r4, #42]
 1947 0036 144A     		ldr	r2, .L325
 1948 0038 E262     		str	r2, [r4, #44]
 1949 003a A06B     		ldr	r0, [r4, #56]
 1950 003c 134A     		ldr	r2, .L325+4
 1951 003e 6263     		str	r2, [r4, #52]
 1952 0040 9BB2     		uxth	r3, r3
 1953 0042 134A     		ldr	r2, .L325+8
 1954 0044 6162     		str	r1, [r4, #36]
 1955 0046 2385     		strh	r3, [r4, #40]	@ movhi
 1956 0048 8262     		str	r2, [r0, #40]
 1957 004a 124A     		ldr	r2, .L325+12
 1958 004c 4563     		str	r5, [r0, #52]
 1959 004e C0E90B52 		strd	r5, r2, [r0, #44]
 1960 0052 2268     		ldr	r2, [r4]
 1961 0054 2832     		adds	r2, r2, #40
 1962 0056 FFF7FEFF 		bl	HAL_DMA_Start_IT
 1963 005a 2268     		ldr	r2, [r4]
 1964 005c 5368     		ldr	r3, [r2, #4]
 1965 005e 23F40043 		bic	r3, r3, #32768
 1966 0062 5360     		str	r3, [r2, #4]
 1967 0064 0421     		movs	r1, #4
 1968 0066 84F84050 		strb	r5, [r4, #64]
 1969 006a 2046     		mov	r0, r4
 1970 006c FFF7FEFF 		bl	I2C_Enable_IRQ
 1971 0070 2268     		ldr	r2, [r4]
 1972 0072 1368     		ldr	r3, [r2]
 1973 0074 43F48043 		orr	r3, r3, #16384
 1974 0078 1360     		str	r3, [r2]
 1975 007a 2846     		mov	r0, r5
 1976              	.L320:
 1977 007c 38BD     		pop	{r3, r4, r5, pc}
 1978              	.L323:
 1979 007e 0120     		movs	r0, #1
 1980 0080 FCE7     		b	.L320
 1981              	.L324:
 1982 0082 0220     		movs	r0, #2
 1983 0084 FAE7     		b	.L320
 1984              	.L326:
 1985 0086 00BF     		.align	2
 1986              	.L325:
 1987 0088 0000FFFF 		.word	-65536
 1988 008c 00000000 		.word	I2C_Slave_ISR_DMA
 1989 0090 00000000 		.word	I2C_DMASlaveTransmitCplt
 1990 0094 00000000 		.word	I2C_DMAError
 1992              		.section	.text.HAL_I2C_Slave_Receive_DMA,"ax",%progbits
 1993              		.align	1
 1994              		.global	HAL_I2C_Slave_Receive_DMA
 1995              		.syntax unified
 1996              		.thumb
 1997              		.thumb_func
 1998              		.fpu fpv4-sp-d16
ARM GAS  C:\Users\gyoku\AppData\Local\Temp\ccFqN08K.s 			page 35


 2000              	HAL_I2C_Slave_Receive_DMA:
 2001              		@ args = 0, pretend = 0, frame = 0
 2002              		@ frame_needed = 0, uses_anonymous_args = 0
 2003 0000 90F84130 		ldrb	r3, [r0, #65]	@ zero_extendqisi2
 2004 0004 DBB2     		uxtb	r3, r3
 2005 0006 202B     		cmp	r3, #32
 2006 0008 70B5     		push	{r4, r5, r6, lr}
 2007 000a 0446     		mov	r4, r0
 2008 000c 3BD1     		bne	.L332
 2009 000e 0029     		cmp	r1, #0
 2010 0010 37D0     		beq	.L331
 2011 0012 002A     		cmp	r2, #0
 2012 0014 35D0     		beq	.L331
 2013 0016 90F84000 		ldrb	r0, [r0, #64]	@ zero_extendqisi2
 2014 001a 0128     		cmp	r0, #1
 2015 001c 33D0     		beq	.L332
 2016 001e 0120     		movs	r0, #1
 2017 0020 84F84000 		strb	r0, [r4, #64]
 2018 0024 0025     		movs	r5, #0
 2019 0026 2220     		movs	r0, #34
 2020 0028 84F84100 		strb	r0, [r4, #65]
 2021 002c 84F84230 		strb	r3, [r4, #66]
 2022 0030 6564     		str	r5, [r4, #68]
 2023 0032 6285     		strh	r2, [r4, #42]	@ movhi
 2024 0034 638D     		ldrh	r3, [r4, #42]
 2025 0036 154A     		ldr	r2, .L333
 2026 0038 E262     		str	r2, [r4, #44]
 2027 003a E06B     		ldr	r0, [r4, #60]
 2028 003c 144A     		ldr	r2, .L333+4
 2029 003e 6263     		str	r2, [r4, #52]
 2030 0040 9BB2     		uxth	r3, r3
 2031 0042 144A     		ldr	r2, .L333+8
 2032 0044 6162     		str	r1, [r4, #36]
 2033 0046 2385     		strh	r3, [r4, #40]	@ movhi
 2034 0048 2668     		ldr	r6, [r4]
 2035 004a 8262     		str	r2, [r0, #40]
 2036 004c 124A     		ldr	r2, .L333+12
 2037 004e 4563     		str	r5, [r0, #52]
 2038 0050 C0E90B52 		strd	r5, r2, [r0, #44]
 2039 0054 0A46     		mov	r2, r1
 2040 0056 06F12401 		add	r1, r6, #36
 2041 005a FFF7FEFF 		bl	HAL_DMA_Start_IT
 2042 005e 2268     		ldr	r2, [r4]
 2043 0060 5368     		ldr	r3, [r2, #4]
 2044 0062 23F40043 		bic	r3, r3, #32768
 2045 0066 5360     		str	r3, [r2, #4]
 2046 0068 0421     		movs	r1, #4
 2047 006a 84F84050 		strb	r5, [r4, #64]
 2048 006e 2046     		mov	r0, r4
 2049 0070 FFF7FEFF 		bl	I2C_Enable_IRQ
 2050 0074 2268     		ldr	r2, [r4]
 2051 0076 1368     		ldr	r3, [r2]
 2052 0078 43F40043 		orr	r3, r3, #32768
 2053 007c 1360     		str	r3, [r2]
 2054 007e 2846     		mov	r0, r5
 2055              	.L328:
 2056 0080 70BD     		pop	{r4, r5, r6, pc}
ARM GAS  C:\Users\gyoku\AppData\Local\Temp\ccFqN08K.s 			page 36


 2057              	.L331:
 2058 0082 0120     		movs	r0, #1
 2059 0084 FCE7     		b	.L328
 2060              	.L332:
 2061 0086 0220     		movs	r0, #2
 2062 0088 FAE7     		b	.L328
 2063              	.L334:
 2064 008a 00BF     		.align	2
 2065              	.L333:
 2066 008c 0000FFFF 		.word	-65536
 2067 0090 00000000 		.word	I2C_Slave_ISR_DMA
 2068 0094 00000000 		.word	I2C_DMASlaveReceiveCplt
 2069 0098 00000000 		.word	I2C_DMAError
 2071              		.section	.text.HAL_I2C_Mem_Write,"ax",%progbits
 2072              		.align	1
 2073              		.global	HAL_I2C_Mem_Write
 2074              		.syntax unified
 2075              		.thumb
 2076              		.thumb_func
 2077              		.fpu fpv4-sp-d16
 2079              	HAL_I2C_Mem_Write:
 2080              		@ args = 12, pretend = 0, frame = 8
 2081              		@ frame_needed = 0, uses_anonymous_args = 0
 2082 0000 2DE9F04F 		push	{r4, r5, r6, r7, r8, r9, r10, fp, lr}
 2083 0004 9B46     		mov	fp, r3
 2084 0006 90F84130 		ldrb	r3, [r0, #65]	@ zero_extendqisi2
 2085 000a 85B0     		sub	sp, sp, #20
 2086 000c 202B     		cmp	r3, #32
 2087 000e 0446     		mov	r4, r0
 2088 0010 0F46     		mov	r7, r1
 2089 0012 0392     		str	r2, [sp, #12]
 2090 0014 BDF83CA0 		ldrh	r10, [sp, #60]
 2091 0018 DDF84090 		ldr	r9, [sp, #64]
 2092 001c 40F0A380 		bne	.L350
 2093 0020 0E9B     		ldr	r3, [sp, #56]
 2094 0022 1BB9     		cbnz	r3, .L337
 2095              	.L338:
 2096 0024 0120     		movs	r0, #1
 2097              	.L336:
 2098 0026 05B0     		add	sp, sp, #20
 2099              		@ sp needed
 2100 0028 BDE8F08F 		pop	{r4, r5, r6, r7, r8, r9, r10, fp, pc}
 2101              	.L337:
 2102 002c BAF1000F 		cmp	r10, #0
 2103 0030 F8D0     		beq	.L338
 2104 0032 90F84030 		ldrb	r3, [r0, #64]	@ zero_extendqisi2
 2105 0036 012B     		cmp	r3, #1
 2106 0038 00F09580 		beq	.L350
 2107 003c 0125     		movs	r5, #1
 2108 003e 80F84050 		strb	r5, [r0, #64]
 2109 0042 FFF7FEFF 		bl	HAL_GetTick
 2110 0046 1923     		movs	r3, #25
 2111 0048 0090     		str	r0, [sp]
 2112 004a 0646     		mov	r6, r0
 2113 004c 2A46     		mov	r2, r5
 2114 004e 4FF40041 		mov	r1, #32768
 2115 0052 2046     		mov	r0, r4
ARM GAS  C:\Users\gyoku\AppData\Local\Temp\ccFqN08K.s 			page 37


 2116 0054 FFF7FEFF 		bl	I2C_WaitOnFlagUntilTimeout
 2117 0058 8046     		mov	r8, r0
 2118 005a C8B9     		cbnz	r0, .L339
 2119 005c 2123     		movs	r3, #33
 2120 005e 84F84130 		strb	r3, [r4, #65]
 2121 0062 4023     		movs	r3, #64
 2122 0064 84F84230 		strb	r3, [r4, #66]
 2123 0068 0E9B     		ldr	r3, [sp, #56]
 2124 006a 6064     		str	r0, [r4, #68]
 2125 006c 6362     		str	r3, [r4, #36]
 2126 006e 6063     		str	r0, [r4, #52]
 2127 0070 A4F82AA0 		strh	r10, [r4, #42]	@ movhi
 2128 0074 CDE90096 		strd	r9, r6, [sp]
 2129 0078 5B46     		mov	r3, fp
 2130 007a 039A     		ldr	r2, [sp, #12]
 2131 007c 3946     		mov	r1, r7
 2132 007e 2046     		mov	r0, r4
 2133 0080 FFF7FEFF 		bl	I2C_RequestMemoryWrite
 2134 0084 30B1     		cbz	r0, .L340
 2135 0086 636C     		ldr	r3, [r4, #68]
 2136 0088 84F84080 		strb	r8, [r4, #64]
 2137              	.L368:
 2138 008c 042B     		cmp	r3, #4
 2139 008e C9D0     		beq	.L338
 2140              	.L339:
 2141 0090 0320     		movs	r0, #3
 2142 0092 C8E7     		b	.L336
 2143              	.L340:
 2144 0094 638D     		ldrh	r3, [r4, #42]
 2145 0096 FF2B     		cmp	r3, #255
 2146 0098 10D9     		bls	.L342
 2147 009a FF22     		movs	r2, #255
 2148 009c 2285     		strh	r2, [r4, #40]	@ movhi
 2149 009e 0090     		str	r0, [sp]
 2150 00a0 4FF08073 		mov	r3, #16777216
 2151              	.L365:
 2152 00a4 3946     		mov	r1, r7
 2153 00a6 2046     		mov	r0, r4
 2154 00a8 FFF7FEFF 		bl	I2C_TransferConfig
 2155              	.L343:
 2156 00ac 3246     		mov	r2, r6
 2157 00ae 4946     		mov	r1, r9
 2158 00b0 2046     		mov	r0, r4
 2159 00b2 FFF7FEFF 		bl	I2C_WaitOnTXISFlagUntilTimeout
 2160 00b6 48B1     		cbz	r0, .L345
 2161              	.L364:
 2162 00b8 636C     		ldr	r3, [r4, #68]
 2163 00ba E7E7     		b	.L368
 2164              	.L342:
 2165 00bc 628D     		ldrh	r2, [r4, #42]
 2166 00be 0090     		str	r0, [sp]
 2167 00c0 92B2     		uxth	r2, r2
 2168 00c2 2285     		strh	r2, [r4, #40]	@ movhi
 2169 00c4 4FF00073 		mov	r3, #33554432
 2170 00c8 D2B2     		uxtb	r2, r2
 2171 00ca EBE7     		b	.L365
 2172              	.L345:
ARM GAS  C:\Users\gyoku\AppData\Local\Temp\ccFqN08K.s 			page 38


 2173 00cc 636A     		ldr	r3, [r4, #36]
 2174 00ce 5A1C     		adds	r2, r3, #1
 2175 00d0 6262     		str	r2, [r4, #36]
 2176 00d2 2268     		ldr	r2, [r4]
 2177 00d4 1B78     		ldrb	r3, [r3]	@ zero_extendqisi2
 2178 00d6 9362     		str	r3, [r2, #40]
 2179 00d8 638D     		ldrh	r3, [r4, #42]
 2180 00da 228D     		ldrh	r2, [r4, #40]
 2181 00dc 013B     		subs	r3, r3, #1
 2182 00de 013A     		subs	r2, r2, #1
 2183 00e0 9BB2     		uxth	r3, r3
 2184 00e2 92B2     		uxth	r2, r2
 2185 00e4 6385     		strh	r3, [r4, #42]	@ movhi
 2186 00e6 2285     		strh	r2, [r4, #40]	@ movhi
 2187 00e8 B2B9     		cbnz	r2, .L346
 2188 00ea 638D     		ldrh	r3, [r4, #42]
 2189 00ec 9BB2     		uxth	r3, r3
 2190 00ee 9BB1     		cbz	r3, .L346
 2191 00f0 0096     		str	r6, [sp]
 2192 00f2 4B46     		mov	r3, r9
 2193 00f4 8021     		movs	r1, #128
 2194 00f6 2046     		mov	r0, r4
 2195 00f8 FFF7FEFF 		bl	I2C_WaitOnFlagUntilTimeout
 2196 00fc 0028     		cmp	r0, #0
 2197 00fe C7D1     		bne	.L339
 2198 0100 638D     		ldrh	r3, [r4, #42]
 2199 0102 FF2B     		cmp	r3, #255
 2200 0104 27D9     		bls	.L347
 2201 0106 FF22     		movs	r2, #255
 2202 0108 2285     		strh	r2, [r4, #40]	@ movhi
 2203 010a 0090     		str	r0, [sp]
 2204 010c 4FF08073 		mov	r3, #16777216
 2205              	.L366:
 2206 0110 3946     		mov	r1, r7
 2207 0112 2046     		mov	r0, r4
 2208 0114 FFF7FEFF 		bl	I2C_TransferConfig
 2209              	.L346:
 2210 0118 638D     		ldrh	r3, [r4, #42]
 2211 011a 9BB2     		uxth	r3, r3
 2212 011c 002B     		cmp	r3, #0
 2213 011e C5D1     		bne	.L343
 2214 0120 3246     		mov	r2, r6
 2215 0122 4946     		mov	r1, r9
 2216 0124 2046     		mov	r0, r4
 2217 0126 FFF7FEFF 		bl	I2C_WaitOnSTOPFlagUntilTimeout
 2218 012a 0028     		cmp	r0, #0
 2219 012c C4D1     		bne	.L364
 2220 012e 2368     		ldr	r3, [r4]
 2221 0130 2021     		movs	r1, #32
 2222 0132 D961     		str	r1, [r3, #28]
 2223 0134 5A68     		ldr	r2, [r3, #4]
 2224 0136 22F0FF72 		bic	r2, r2, #33423360
 2225 013a 22F48B32 		bic	r2, r2, #71168
 2226 013e 22F4FF72 		bic	r2, r2, #510
 2227 0142 22F00102 		bic	r2, r2, #1
 2228 0146 5A60     		str	r2, [r3, #4]
 2229 0148 84F84110 		strb	r1, [r4, #65]
ARM GAS  C:\Users\gyoku\AppData\Local\Temp\ccFqN08K.s 			page 39


 2230 014c 84F84000 		strb	r0, [r4, #64]
 2231 0150 84F84200 		strb	r0, [r4, #66]
 2232 0154 67E7     		b	.L336
 2233              	.L347:
 2234 0156 628D     		ldrh	r2, [r4, #42]
 2235 0158 0090     		str	r0, [sp]
 2236 015a 92B2     		uxth	r2, r2
 2237 015c 2285     		strh	r2, [r4, #40]	@ movhi
 2238 015e 4FF00073 		mov	r3, #33554432
 2239 0162 D2B2     		uxtb	r2, r2
 2240 0164 D4E7     		b	.L366
 2241              	.L350:
 2242 0166 0220     		movs	r0, #2
 2243 0168 5DE7     		b	.L336
 2245              		.section	.text.HAL_I2C_Mem_Read,"ax",%progbits
 2246              		.align	1
 2247              		.global	HAL_I2C_Mem_Read
 2248              		.syntax unified
 2249              		.thumb
 2250              		.thumb_func
 2251              		.fpu fpv4-sp-d16
 2253              	HAL_I2C_Mem_Read:
 2254              		@ args = 12, pretend = 0, frame = 8
 2255              		@ frame_needed = 0, uses_anonymous_args = 0
 2256 0000 2DE9F04F 		push	{r4, r5, r6, r7, r8, r9, r10, fp, lr}
 2257 0004 9B46     		mov	fp, r3
 2258 0006 90F84130 		ldrb	r3, [r0, #65]	@ zero_extendqisi2
 2259 000a 85B0     		sub	sp, sp, #20
 2260 000c 202B     		cmp	r3, #32
 2261 000e 0446     		mov	r4, r0
 2262 0010 0F46     		mov	r7, r1
 2263 0012 0392     		str	r2, [sp, #12]
 2264 0014 BDF83CA0 		ldrh	r10, [sp, #60]
 2265 0018 DDF84090 		ldr	r9, [sp, #64]
 2266 001c 40F0A680 		bne	.L383
 2267 0020 0E9B     		ldr	r3, [sp, #56]
 2268 0022 1BB9     		cbnz	r3, .L371
 2269              	.L372:
 2270 0024 0120     		movs	r0, #1
 2271              	.L370:
 2272 0026 05B0     		add	sp, sp, #20
 2273              		@ sp needed
 2274 0028 BDE8F08F 		pop	{r4, r5, r6, r7, r8, r9, r10, fp, pc}
 2275              	.L371:
 2276 002c BAF1000F 		cmp	r10, #0
 2277 0030 F8D0     		beq	.L372
 2278 0032 90F84030 		ldrb	r3, [r0, #64]	@ zero_extendqisi2
 2279 0036 012B     		cmp	r3, #1
 2280 0038 00F09880 		beq	.L383
 2281 003c 0125     		movs	r5, #1
 2282 003e 80F84050 		strb	r5, [r0, #64]
 2283 0042 FFF7FEFF 		bl	HAL_GetTick
 2284 0046 1923     		movs	r3, #25
 2285 0048 0090     		str	r0, [sp]
 2286 004a 0646     		mov	r6, r0
 2287 004c 2A46     		mov	r2, r5
 2288 004e 4FF40041 		mov	r1, #32768
ARM GAS  C:\Users\gyoku\AppData\Local\Temp\ccFqN08K.s 			page 40


 2289 0052 2046     		mov	r0, r4
 2290 0054 FFF7FEFF 		bl	I2C_WaitOnFlagUntilTimeout
 2291 0058 8046     		mov	r8, r0
 2292 005a C8B9     		cbnz	r0, .L373
 2293 005c 2223     		movs	r3, #34
 2294 005e 84F84130 		strb	r3, [r4, #65]
 2295 0062 4023     		movs	r3, #64
 2296 0064 84F84230 		strb	r3, [r4, #66]
 2297 0068 0E9B     		ldr	r3, [sp, #56]
 2298 006a 6064     		str	r0, [r4, #68]
 2299 006c 6362     		str	r3, [r4, #36]
 2300 006e 6063     		str	r0, [r4, #52]
 2301 0070 A4F82AA0 		strh	r10, [r4, #42]	@ movhi
 2302 0074 CDE90096 		strd	r9, r6, [sp]
 2303 0078 5B46     		mov	r3, fp
 2304 007a 039A     		ldr	r2, [sp, #12]
 2305 007c 3946     		mov	r1, r7
 2306 007e 2046     		mov	r0, r4
 2307 0080 FFF7FEFF 		bl	I2C_RequestMemoryRead
 2308 0084 30B1     		cbz	r0, .L374
 2309 0086 636C     		ldr	r3, [r4, #68]
 2310 0088 84F84080 		strb	r8, [r4, #64]
 2311              	.L396:
 2312 008c 042B     		cmp	r3, #4
 2313 008e C9D0     		beq	.L372
 2314              	.L373:
 2315 0090 0320     		movs	r0, #3
 2316 0092 C8E7     		b	.L370
 2317              	.L374:
 2318 0094 638D     		ldrh	r3, [r4, #42]
 2319 0096 FF2B     		cmp	r3, #255
 2320 0098 354B     		ldr	r3, .L397
 2321 009a 43D9     		bls	.L376
 2322 009c FF22     		movs	r2, #255
 2323 009e 0093     		str	r3, [sp]
 2324 00a0 2285     		strh	r2, [r4, #40]	@ movhi
 2325 00a2 4FF08073 		mov	r3, #16777216
 2326              	.L394:
 2327 00a6 3946     		mov	r1, r7
 2328 00a8 2046     		mov	r0, r4
 2329 00aa FFF7FEFF 		bl	I2C_TransferConfig
 2330              	.L377:
 2331 00ae 0096     		str	r6, [sp]
 2332 00b0 4B46     		mov	r3, r9
 2333 00b2 0022     		movs	r2, #0
 2334 00b4 0421     		movs	r1, #4
 2335 00b6 2046     		mov	r0, r4
 2336 00b8 FFF7FEFF 		bl	I2C_WaitOnFlagUntilTimeout
 2337 00bc 0028     		cmp	r0, #0
 2338 00be E7D1     		bne	.L373
 2339 00c0 2368     		ldr	r3, [r4]
 2340 00c2 5A6A     		ldr	r2, [r3, #36]
 2341 00c4 636A     		ldr	r3, [r4, #36]
 2342 00c6 591C     		adds	r1, r3, #1
 2343 00c8 6162     		str	r1, [r4, #36]
 2344 00ca 1A70     		strb	r2, [r3]
 2345 00cc 228D     		ldrh	r2, [r4, #40]
ARM GAS  C:\Users\gyoku\AppData\Local\Temp\ccFqN08K.s 			page 41


 2346 00ce 638D     		ldrh	r3, [r4, #42]
 2347 00d0 013A     		subs	r2, r2, #1
 2348 00d2 013B     		subs	r3, r3, #1
 2349 00d4 92B2     		uxth	r2, r2
 2350 00d6 9BB2     		uxth	r3, r3
 2351 00d8 2285     		strh	r2, [r4, #40]	@ movhi
 2352 00da 6385     		strh	r3, [r4, #42]	@ movhi
 2353 00dc B2B9     		cbnz	r2, .L379
 2354 00de 638D     		ldrh	r3, [r4, #42]
 2355 00e0 9BB2     		uxth	r3, r3
 2356 00e2 9BB1     		cbz	r3, .L379
 2357 00e4 0096     		str	r6, [sp]
 2358 00e6 4B46     		mov	r3, r9
 2359 00e8 8021     		movs	r1, #128
 2360 00ea 2046     		mov	r0, r4
 2361 00ec FFF7FEFF 		bl	I2C_WaitOnFlagUntilTimeout
 2362 00f0 0028     		cmp	r0, #0
 2363 00f2 CDD1     		bne	.L373
 2364 00f4 638D     		ldrh	r3, [r4, #42]
 2365 00f6 FF2B     		cmp	r3, #255
 2366 00f8 1CD9     		bls	.L380
 2367 00fa FF22     		movs	r2, #255
 2368 00fc 2285     		strh	r2, [r4, #40]	@ movhi
 2369 00fe 0090     		str	r0, [sp]
 2370 0100 4FF08073 		mov	r3, #16777216
 2371              	.L395:
 2372 0104 3946     		mov	r1, r7
 2373 0106 2046     		mov	r0, r4
 2374 0108 FFF7FEFF 		bl	I2C_TransferConfig
 2375              	.L379:
 2376 010c 638D     		ldrh	r3, [r4, #42]
 2377 010e 9BB2     		uxth	r3, r3
 2378 0110 002B     		cmp	r3, #0
 2379 0112 CCD1     		bne	.L377
 2380 0114 3246     		mov	r2, r6
 2381 0116 4946     		mov	r1, r9
 2382 0118 2046     		mov	r0, r4
 2383 011a FFF7FEFF 		bl	I2C_WaitOnSTOPFlagUntilTimeout
 2384 011e 88B1     		cbz	r0, .L381
 2385 0120 636C     		ldr	r3, [r4, #68]
 2386 0122 B3E7     		b	.L396
 2387              	.L376:
 2388 0124 628D     		ldrh	r2, [r4, #42]
 2389 0126 0093     		str	r3, [sp]
 2390 0128 92B2     		uxth	r2, r2
 2391 012a 2285     		strh	r2, [r4, #40]	@ movhi
 2392 012c 4FF00073 		mov	r3, #33554432
 2393 0130 D2B2     		uxtb	r2, r2
 2394 0132 B8E7     		b	.L394
 2395              	.L380:
 2396 0134 628D     		ldrh	r2, [r4, #42]
 2397 0136 0090     		str	r0, [sp]
 2398 0138 92B2     		uxth	r2, r2
 2399 013a 2285     		strh	r2, [r4, #40]	@ movhi
 2400 013c 4FF00073 		mov	r3, #33554432
 2401 0140 D2B2     		uxtb	r2, r2
 2402 0142 DFE7     		b	.L395
ARM GAS  C:\Users\gyoku\AppData\Local\Temp\ccFqN08K.s 			page 42


 2403              	.L381:
 2404 0144 2368     		ldr	r3, [r4]
 2405 0146 2021     		movs	r1, #32
 2406 0148 D961     		str	r1, [r3, #28]
 2407 014a 5A68     		ldr	r2, [r3, #4]
 2408 014c 22F0FF72 		bic	r2, r2, #33423360
 2409 0150 22F48B32 		bic	r2, r2, #71168
 2410 0154 22F4FF72 		bic	r2, r2, #510
 2411 0158 22F00102 		bic	r2, r2, #1
 2412 015c 5A60     		str	r2, [r3, #4]
 2413 015e 84F84110 		strb	r1, [r4, #65]
 2414 0162 84F84000 		strb	r0, [r4, #64]
 2415 0166 84F84200 		strb	r0, [r4, #66]
 2416 016a 5CE7     		b	.L370
 2417              	.L383:
 2418 016c 0220     		movs	r0, #2
 2419 016e 5AE7     		b	.L370
 2420              	.L398:
 2421              		.align	2
 2422              	.L397:
 2423 0170 00240080 		.word	-2147474432
 2425              		.section	.text.HAL_I2C_Mem_Write_IT,"ax",%progbits
 2426              		.align	1
 2427              		.global	HAL_I2C_Mem_Write_IT
 2428              		.syntax unified
 2429              		.thumb
 2430              		.thumb_func
 2431              		.fpu fpv4-sp-d16
 2433              	HAL_I2C_Mem_Write_IT:
 2434              		@ args = 8, pretend = 0, frame = 0
 2435              		@ frame_needed = 0, uses_anonymous_args = 0
 2436 0000 2DE9F347 		push	{r0, r1, r4, r5, r6, r7, r8, r9, r10, lr}
 2437 0004 9A46     		mov	r10, r3
 2438 0006 90F84130 		ldrb	r3, [r0, #65]	@ zero_extendqisi2
 2439 000a DDF82880 		ldr	r8, [sp, #40]
 2440 000e BDF82C70 		ldrh	r7, [sp, #44]
 2441 0012 202B     		cmp	r3, #32
 2442 0014 0446     		mov	r4, r0
 2443 0016 0E46     		mov	r6, r1
 2444 0018 9146     		mov	r9, r2
 2445 001a 56D1     		bne	.L408
 2446 001c B8F1000F 		cmp	r8, #0
 2447 0020 3DD0     		beq	.L406
 2448 0022 002F     		cmp	r7, #0
 2449 0024 3BD0     		beq	.L406
 2450 0026 0368     		ldr	r3, [r0]
 2451 0028 9D69     		ldr	r5, [r3, #24]
 2452 002a 15F40045 		ands	r5, r5, #32768
 2453 002e 4CD1     		bne	.L408
 2454 0030 90F84030 		ldrb	r3, [r0, #64]	@ zero_extendqisi2
 2455 0034 012B     		cmp	r3, #1
 2456 0036 48D0     		beq	.L408
 2457 0038 0123     		movs	r3, #1
 2458 003a 80F84030 		strb	r3, [r0, #64]
 2459 003e FFF7FEFF 		bl	HAL_GetTick
 2460 0042 2123     		movs	r3, #33
 2461 0044 84F84130 		strb	r3, [r4, #65]
ARM GAS  C:\Users\gyoku\AppData\Local\Temp\ccFqN08K.s 			page 43


 2462 0048 4023     		movs	r3, #64
 2463 004a 84F84230 		strb	r3, [r4, #66]
 2464 004e 204B     		ldr	r3, .L410
 2465 0050 6564     		str	r5, [r4, #68]
 2466 0052 6785     		strh	r7, [r4, #42]	@ movhi
 2467 0054 E362     		str	r3, [r4, #44]
 2468 0056 1F4B     		ldr	r3, .L410+4
 2469 0058 6363     		str	r3, [r4, #52]
 2470 005a 638D     		ldrh	r3, [r4, #42]
 2471 005c 0190     		str	r0, [sp, #4]
 2472 005e FF2B     		cmp	r3, #255
 2473 0060 98BF     		it	ls
 2474 0062 618D     		ldrhls	r1, [r4, #42]
 2475 0064 C4F82480 		str	r8, [r4, #36]
 2476 0068 94BF     		ite	ls
 2477 006a 89B2     		uxthls	r1, r1
 2478 006c FF21     		movhi	r1, #255
 2479 006e 4FF01903 		mov	r3, #25
 2480 0072 2185     		strh	r1, [r4, #40]	@ movhi
 2481 0074 0093     		str	r3, [sp]
 2482 0076 4A46     		mov	r2, r9
 2483 0078 5346     		mov	r3, r10
 2484 007a 3146     		mov	r1, r6
 2485 007c 2046     		mov	r0, r4
 2486 007e 94BF     		ite	ls
 2487 0080 4FF00077 		movls	r7, #33554432
 2488 0084 4FF08077 		movhi	r7, #16777216
 2489 0088 FFF7FEFF 		bl	I2C_RequestMemoryWrite
 2490 008c 0546     		mov	r5, r0
 2491 008e 68B1     		cbz	r0, .L402
 2492 0090 636C     		ldr	r3, [r4, #68]
 2493 0092 042B     		cmp	r3, #4
 2494 0094 4FF00003 		mov	r3, #0
 2495 0098 84F84030 		strb	r3, [r4, #64]
 2496 009c 01D1     		bne	.L403
 2497              	.L406:
 2498 009e 0125     		movs	r5, #1
 2499 00a0 00E0     		b	.L400
 2500              	.L403:
 2501 00a2 0325     		movs	r5, #3
 2502              	.L400:
 2503 00a4 2846     		mov	r0, r5
 2504 00a6 02B0     		add	sp, sp, #8
 2505              		@ sp needed
 2506 00a8 BDE8F087 		pop	{r4, r5, r6, r7, r8, r9, r10, pc}
 2507              	.L402:
 2508 00ac 0090     		str	r0, [sp]
 2509 00ae 3146     		mov	r1, r6
 2510 00b0 2046     		mov	r0, r4
 2511 00b2 3B46     		mov	r3, r7
 2512 00b4 94F82820 		ldrb	r2, [r4, #40]	@ zero_extendqisi2
 2513 00b8 FFF7FEFF 		bl	I2C_TransferConfig
 2514 00bc 84F84050 		strb	r5, [r4, #64]
 2515 00c0 0121     		movs	r1, #1
 2516 00c2 2046     		mov	r0, r4
 2517 00c4 FFF7FEFF 		bl	I2C_Enable_IRQ
 2518 00c8 ECE7     		b	.L400
ARM GAS  C:\Users\gyoku\AppData\Local\Temp\ccFqN08K.s 			page 44


 2519              	.L408:
 2520 00ca 0225     		movs	r5, #2
 2521 00cc EAE7     		b	.L400
 2522              	.L411:
 2523 00ce 00BF     		.align	2
 2524              	.L410:
 2525 00d0 0000FFFF 		.word	-65536
 2526 00d4 00000000 		.word	I2C_Master_ISR_IT
 2528              		.section	.text.HAL_I2C_Mem_Read_IT,"ax",%progbits
 2529              		.align	1
 2530              		.global	HAL_I2C_Mem_Read_IT
 2531              		.syntax unified
 2532              		.thumb
 2533              		.thumb_func
 2534              		.fpu fpv4-sp-d16
 2536              	HAL_I2C_Mem_Read_IT:
 2537              		@ args = 8, pretend = 0, frame = 0
 2538              		@ frame_needed = 0, uses_anonymous_args = 0
 2539 0000 2DE9F347 		push	{r0, r1, r4, r5, r6, r7, r8, r9, r10, lr}
 2540 0004 9A46     		mov	r10, r3
 2541 0006 90F84130 		ldrb	r3, [r0, #65]	@ zero_extendqisi2
 2542 000a DDF82880 		ldr	r8, [sp, #40]
 2543 000e BDF82C70 		ldrh	r7, [sp, #44]
 2544 0012 202B     		cmp	r3, #32
 2545 0014 0446     		mov	r4, r0
 2546 0016 0E46     		mov	r6, r1
 2547 0018 9146     		mov	r9, r2
 2548 001a 57D1     		bne	.L421
 2549 001c B8F1000F 		cmp	r8, #0
 2550 0020 3DD0     		beq	.L419
 2551 0022 002F     		cmp	r7, #0
 2552 0024 3BD0     		beq	.L419
 2553 0026 0368     		ldr	r3, [r0]
 2554 0028 9D69     		ldr	r5, [r3, #24]
 2555 002a 15F40045 		ands	r5, r5, #32768
 2556 002e 4DD1     		bne	.L421
 2557 0030 90F84030 		ldrb	r3, [r0, #64]	@ zero_extendqisi2
 2558 0034 012B     		cmp	r3, #1
 2559 0036 49D0     		beq	.L421
 2560 0038 0123     		movs	r3, #1
 2561 003a 80F84030 		strb	r3, [r0, #64]
 2562 003e FFF7FEFF 		bl	HAL_GetTick
 2563 0042 2223     		movs	r3, #34
 2564 0044 84F84130 		strb	r3, [r4, #65]
 2565 0048 4023     		movs	r3, #64
 2566 004a 84F84230 		strb	r3, [r4, #66]
 2567 004e 204B     		ldr	r3, .L423
 2568 0050 6564     		str	r5, [r4, #68]
 2569 0052 6785     		strh	r7, [r4, #42]	@ movhi
 2570 0054 E362     		str	r3, [r4, #44]
 2571 0056 1F4B     		ldr	r3, .L423+4
 2572 0058 6363     		str	r3, [r4, #52]
 2573 005a 638D     		ldrh	r3, [r4, #42]
 2574 005c 0190     		str	r0, [sp, #4]
 2575 005e FF2B     		cmp	r3, #255
 2576 0060 98BF     		it	ls
 2577 0062 618D     		ldrhls	r1, [r4, #42]
ARM GAS  C:\Users\gyoku\AppData\Local\Temp\ccFqN08K.s 			page 45


 2578 0064 C4F82480 		str	r8, [r4, #36]
 2579 0068 94BF     		ite	ls
 2580 006a 89B2     		uxthls	r1, r1
 2581 006c FF21     		movhi	r1, #255
 2582 006e 4FF01903 		mov	r3, #25
 2583 0072 2185     		strh	r1, [r4, #40]	@ movhi
 2584 0074 0093     		str	r3, [sp]
 2585 0076 4A46     		mov	r2, r9
 2586 0078 5346     		mov	r3, r10
 2587 007a 3146     		mov	r1, r6
 2588 007c 2046     		mov	r0, r4
 2589 007e 94BF     		ite	ls
 2590 0080 4FF00077 		movls	r7, #33554432
 2591 0084 4FF08077 		movhi	r7, #16777216
 2592 0088 FFF7FEFF 		bl	I2C_RequestMemoryRead
 2593 008c 0546     		mov	r5, r0
 2594 008e 68B1     		cbz	r0, .L415
 2595 0090 636C     		ldr	r3, [r4, #68]
 2596 0092 042B     		cmp	r3, #4
 2597 0094 4FF00003 		mov	r3, #0
 2598 0098 84F84030 		strb	r3, [r4, #64]
 2599 009c 01D1     		bne	.L416
 2600              	.L419:
 2601 009e 0125     		movs	r5, #1
 2602 00a0 00E0     		b	.L413
 2603              	.L416:
 2604 00a2 0325     		movs	r5, #3
 2605              	.L413:
 2606 00a4 2846     		mov	r0, r5
 2607 00a6 02B0     		add	sp, sp, #8
 2608              		@ sp needed
 2609 00a8 BDE8F087 		pop	{r4, r5, r6, r7, r8, r9, r10, pc}
 2610              	.L415:
 2611 00ac 0A4B     		ldr	r3, .L423+8
 2612 00ae 0093     		str	r3, [sp]
 2613 00b0 3146     		mov	r1, r6
 2614 00b2 2046     		mov	r0, r4
 2615 00b4 3B46     		mov	r3, r7
 2616 00b6 94F82820 		ldrb	r2, [r4, #40]	@ zero_extendqisi2
 2617 00ba FFF7FEFF 		bl	I2C_TransferConfig
 2618 00be 84F84050 		strb	r5, [r4, #64]
 2619 00c2 0221     		movs	r1, #2
 2620 00c4 2046     		mov	r0, r4
 2621 00c6 FFF7FEFF 		bl	I2C_Enable_IRQ
 2622 00ca EBE7     		b	.L413
 2623              	.L421:
 2624 00cc 0225     		movs	r5, #2
 2625 00ce E9E7     		b	.L413
 2626              	.L424:
 2627              		.align	2
 2628              	.L423:
 2629 00d0 0000FFFF 		.word	-65536
 2630 00d4 00000000 		.word	I2C_Master_ISR_IT
 2631 00d8 00240080 		.word	-2147474432
 2633              		.section	.text.HAL_I2C_Mem_Write_DMA,"ax",%progbits
 2634              		.align	1
 2635              		.global	HAL_I2C_Mem_Write_DMA
ARM GAS  C:\Users\gyoku\AppData\Local\Temp\ccFqN08K.s 			page 46


 2636              		.syntax unified
 2637              		.thumb
 2638              		.thumb_func
 2639              		.fpu fpv4-sp-d16
 2641              	HAL_I2C_Mem_Write_DMA:
 2642              		@ args = 8, pretend = 0, frame = 0
 2643              		@ frame_needed = 0, uses_anonymous_args = 0
 2644 0000 2DE9F347 		push	{r0, r1, r4, r5, r6, r7, r8, r9, r10, lr}
 2645 0004 9A46     		mov	r10, r3
 2646 0006 90F84130 		ldrb	r3, [r0, #65]	@ zero_extendqisi2
 2647 000a 0A9E     		ldr	r6, [sp, #40]
 2648 000c BDF82C80 		ldrh	r8, [sp, #44]
 2649 0010 202B     		cmp	r3, #32
 2650 0012 0446     		mov	r4, r0
 2651 0014 0F46     		mov	r7, r1
 2652 0016 9146     		mov	r9, r2
 2653 0018 6DD1     		bne	.L434
 2654 001a 002E     		cmp	r6, #0
 2655 001c 3ED0     		beq	.L432
 2656 001e B8F1000F 		cmp	r8, #0
 2657 0022 3BD0     		beq	.L432
 2658 0024 0368     		ldr	r3, [r0]
 2659 0026 9D69     		ldr	r5, [r3, #24]
 2660 0028 15F40045 		ands	r5, r5, #32768
 2661 002c 63D1     		bne	.L434
 2662 002e 90F84030 		ldrb	r3, [r0, #64]	@ zero_extendqisi2
 2663 0032 012B     		cmp	r3, #1
 2664 0034 5FD0     		beq	.L434
 2665 0036 0123     		movs	r3, #1
 2666 0038 80F84030 		strb	r3, [r0, #64]
 2667 003c FFF7FEFF 		bl	HAL_GetTick
 2668 0040 2123     		movs	r3, #33
 2669 0042 84F84130 		strb	r3, [r4, #65]
 2670 0046 4023     		movs	r3, #64
 2671 0048 84F84230 		strb	r3, [r4, #66]
 2672 004c 2B4B     		ldr	r3, .L436
 2673 004e 6564     		str	r5, [r4, #68]
 2674 0050 A4F82A80 		strh	r8, [r4, #42]	@ movhi
 2675 0054 E362     		str	r3, [r4, #44]
 2676 0056 2A4B     		ldr	r3, .L436+4
 2677 0058 6363     		str	r3, [r4, #52]
 2678 005a 638D     		ldrh	r3, [r4, #42]
 2679 005c 0190     		str	r0, [sp, #4]
 2680 005e FF2B     		cmp	r3, #255
 2681 0060 98BF     		it	ls
 2682 0062 618D     		ldrhls	r1, [r4, #42]
 2683 0064 6662     		str	r6, [r4, #36]
 2684 0066 94BF     		ite	ls
 2685 0068 89B2     		uxthls	r1, r1
 2686 006a FF21     		movhi	r1, #255
 2687 006c 4FF01903 		mov	r3, #25
 2688 0070 2185     		strh	r1, [r4, #40]	@ movhi
 2689 0072 0093     		str	r3, [sp]
 2690 0074 4A46     		mov	r2, r9
 2691 0076 5346     		mov	r3, r10
 2692 0078 3946     		mov	r1, r7
 2693 007a 2046     		mov	r0, r4
ARM GAS  C:\Users\gyoku\AppData\Local\Temp\ccFqN08K.s 			page 47


 2694 007c 94BF     		ite	ls
 2695 007e 4FF00078 		movls	r8, #33554432
 2696 0082 4FF08078 		movhi	r8, #16777216
 2697 0086 FFF7FEFF 		bl	I2C_RequestMemoryWrite
 2698 008a 0546     		mov	r5, r0
 2699 008c 68B1     		cbz	r0, .L428
 2700 008e 636C     		ldr	r3, [r4, #68]
 2701 0090 042B     		cmp	r3, #4
 2702 0092 4FF00003 		mov	r3, #0
 2703 0096 84F84030 		strb	r3, [r4, #64]
 2704 009a 01D1     		bne	.L429
 2705              	.L432:
 2706 009c 0125     		movs	r5, #1
 2707 009e 00E0     		b	.L426
 2708              	.L429:
 2709 00a0 0325     		movs	r5, #3
 2710              	.L426:
 2711 00a2 2846     		mov	r0, r5
 2712 00a4 02B0     		add	sp, sp, #8
 2713              		@ sp needed
 2714 00a6 BDE8F087 		pop	{r4, r5, r6, r7, r8, r9, r10, pc}
 2715              	.L428:
 2716 00aa A06B     		ldr	r0, [r4, #56]
 2717 00ac 154B     		ldr	r3, .L436+8
 2718 00ae 8362     		str	r3, [r0, #40]
 2719 00b0 2268     		ldr	r2, [r4]
 2720 00b2 154B     		ldr	r3, .L436+12
 2721 00b4 4563     		str	r5, [r0, #52]
 2722 00b6 C0E90B53 		strd	r5, r3, [r0, #44]
 2723 00ba 2832     		adds	r2, r2, #40
 2724 00bc 238D     		ldrh	r3, [r4, #40]
 2725 00be 3146     		mov	r1, r6
 2726 00c0 FFF7FEFF 		bl	HAL_DMA_Start_IT
 2727 00c4 4346     		mov	r3, r8
 2728 00c6 94F82820 		ldrb	r2, [r4, #40]	@ zero_extendqisi2
 2729 00ca 0095     		str	r5, [sp]
 2730 00cc 3946     		mov	r1, r7
 2731 00ce 2046     		mov	r0, r4
 2732 00d0 FFF7FEFF 		bl	I2C_TransferConfig
 2733 00d4 638D     		ldrh	r3, [r4, #42]
 2734 00d6 228D     		ldrh	r2, [r4, #40]
 2735 00d8 84F84050 		strb	r5, [r4, #64]
 2736 00dc 9B1A     		subs	r3, r3, r2
 2737 00de 9BB2     		uxth	r3, r3
 2738 00e0 6385     		strh	r3, [r4, #42]	@ movhi
 2739 00e2 1121     		movs	r1, #17
 2740 00e4 2046     		mov	r0, r4
 2741 00e6 FFF7FEFF 		bl	I2C_Enable_IRQ
 2742 00ea 2268     		ldr	r2, [r4]
 2743 00ec 1368     		ldr	r3, [r2]
 2744 00ee 43F48043 		orr	r3, r3, #16384
 2745 00f2 1360     		str	r3, [r2]
 2746 00f4 D5E7     		b	.L426
 2747              	.L434:
 2748 00f6 0225     		movs	r5, #2
 2749 00f8 D3E7     		b	.L426
 2750              	.L437:
ARM GAS  C:\Users\gyoku\AppData\Local\Temp\ccFqN08K.s 			page 48


 2751 00fa 00BF     		.align	2
 2752              	.L436:
 2753 00fc 0000FFFF 		.word	-65536
 2754 0100 00000000 		.word	I2C_Master_ISR_DMA
 2755 0104 00000000 		.word	I2C_DMAMasterTransmitCplt
 2756 0108 00000000 		.word	I2C_DMAError
 2758              		.section	.text.HAL_I2C_Mem_Read_DMA,"ax",%progbits
 2759              		.align	1
 2760              		.global	HAL_I2C_Mem_Read_DMA
 2761              		.syntax unified
 2762              		.thumb
 2763              		.thumb_func
 2764              		.fpu fpv4-sp-d16
 2766              	HAL_I2C_Mem_Read_DMA:
 2767              		@ args = 8, pretend = 0, frame = 0
 2768              		@ frame_needed = 0, uses_anonymous_args = 0
 2769 0000 2DE9F347 		push	{r0, r1, r4, r5, r6, r7, r8, r9, r10, lr}
 2770 0004 9A46     		mov	r10, r3
 2771 0006 90F84130 		ldrb	r3, [r0, #65]	@ zero_extendqisi2
 2772 000a 0A9E     		ldr	r6, [sp, #40]
 2773 000c BDF82C80 		ldrh	r8, [sp, #44]
 2774 0010 202B     		cmp	r3, #32
 2775 0012 0446     		mov	r4, r0
 2776 0014 0F46     		mov	r7, r1
 2777 0016 9146     		mov	r9, r2
 2778 0018 6ED1     		bne	.L447
 2779 001a 002E     		cmp	r6, #0
 2780 001c 3ED0     		beq	.L445
 2781 001e B8F1000F 		cmp	r8, #0
 2782 0022 3BD0     		beq	.L445
 2783 0024 0368     		ldr	r3, [r0]
 2784 0026 9D69     		ldr	r5, [r3, #24]
 2785 0028 15F40045 		ands	r5, r5, #32768
 2786 002c 64D1     		bne	.L447
 2787 002e 90F84030 		ldrb	r3, [r0, #64]	@ zero_extendqisi2
 2788 0032 012B     		cmp	r3, #1
 2789 0034 60D0     		beq	.L447
 2790 0036 0123     		movs	r3, #1
 2791 0038 80F84030 		strb	r3, [r0, #64]
 2792 003c FFF7FEFF 		bl	HAL_GetTick
 2793 0040 2223     		movs	r3, #34
 2794 0042 84F84130 		strb	r3, [r4, #65]
 2795 0046 4023     		movs	r3, #64
 2796 0048 84F84230 		strb	r3, [r4, #66]
 2797 004c 2B4B     		ldr	r3, .L449
 2798 004e 6564     		str	r5, [r4, #68]
 2799 0050 A4F82A80 		strh	r8, [r4, #42]	@ movhi
 2800 0054 E362     		str	r3, [r4, #44]
 2801 0056 2A4B     		ldr	r3, .L449+4
 2802 0058 6363     		str	r3, [r4, #52]
 2803 005a 638D     		ldrh	r3, [r4, #42]
 2804 005c 0190     		str	r0, [sp, #4]
 2805 005e FF2B     		cmp	r3, #255
 2806 0060 98BF     		it	ls
 2807 0062 618D     		ldrhls	r1, [r4, #42]
 2808 0064 6662     		str	r6, [r4, #36]
 2809 0066 94BF     		ite	ls
ARM GAS  C:\Users\gyoku\AppData\Local\Temp\ccFqN08K.s 			page 49


 2810 0068 89B2     		uxthls	r1, r1
 2811 006a FF21     		movhi	r1, #255
 2812 006c 4FF01903 		mov	r3, #25
 2813 0070 2185     		strh	r1, [r4, #40]	@ movhi
 2814 0072 0093     		str	r3, [sp]
 2815 0074 4A46     		mov	r2, r9
 2816 0076 5346     		mov	r3, r10
 2817 0078 3946     		mov	r1, r7
 2818 007a 2046     		mov	r0, r4
 2819 007c 94BF     		ite	ls
 2820 007e 4FF00078 		movls	r8, #33554432
 2821 0082 4FF08078 		movhi	r8, #16777216
 2822 0086 FFF7FEFF 		bl	I2C_RequestMemoryRead
 2823 008a 0546     		mov	r5, r0
 2824 008c 68B1     		cbz	r0, .L441
 2825 008e 636C     		ldr	r3, [r4, #68]
 2826 0090 042B     		cmp	r3, #4
 2827 0092 4FF00003 		mov	r3, #0
 2828 0096 84F84030 		strb	r3, [r4, #64]
 2829 009a 01D1     		bne	.L442
 2830              	.L445:
 2831 009c 0125     		movs	r5, #1
 2832 009e 00E0     		b	.L439
 2833              	.L442:
 2834 00a0 0325     		movs	r5, #3
 2835              	.L439:
 2836 00a2 2846     		mov	r0, r5
 2837 00a4 02B0     		add	sp, sp, #8
 2838              		@ sp needed
 2839 00a6 BDE8F087 		pop	{r4, r5, r6, r7, r8, r9, r10, pc}
 2840              	.L441:
 2841 00aa E06B     		ldr	r0, [r4, #60]
 2842 00ac 154B     		ldr	r3, .L449+8
 2843 00ae 2168     		ldr	r1, [r4]
 2844 00b0 8362     		str	r3, [r0, #40]
 2845 00b2 154B     		ldr	r3, .L449+12
 2846 00b4 4563     		str	r5, [r0, #52]
 2847 00b6 C0E90B53 		strd	r5, r3, [r0, #44]
 2848 00ba 3246     		mov	r2, r6
 2849 00bc 238D     		ldrh	r3, [r4, #40]
 2850 00be 2431     		adds	r1, r1, #36
 2851 00c0 FFF7FEFF 		bl	HAL_DMA_Start_IT
 2852 00c4 114B     		ldr	r3, .L449+16
 2853 00c6 0093     		str	r3, [sp]
 2854 00c8 94F82820 		ldrb	r2, [r4, #40]	@ zero_extendqisi2
 2855 00cc 4346     		mov	r3, r8
 2856 00ce 3946     		mov	r1, r7
 2857 00d0 2046     		mov	r0, r4
 2858 00d2 FFF7FEFF 		bl	I2C_TransferConfig
 2859 00d6 638D     		ldrh	r3, [r4, #42]
 2860 00d8 228D     		ldrh	r2, [r4, #40]
 2861 00da 84F84050 		strb	r5, [r4, #64]
 2862 00de 9B1A     		subs	r3, r3, r2
 2863 00e0 9BB2     		uxth	r3, r3
 2864 00e2 2268     		ldr	r2, [r4]
 2865 00e4 6385     		strh	r3, [r4, #42]	@ movhi
 2866 00e6 1368     		ldr	r3, [r2]
ARM GAS  C:\Users\gyoku\AppData\Local\Temp\ccFqN08K.s 			page 50


 2867 00e8 43F40043 		orr	r3, r3, #32768
 2868 00ec 1360     		str	r3, [r2]
 2869 00ee 1121     		movs	r1, #17
 2870 00f0 2046     		mov	r0, r4
 2871 00f2 FFF7FEFF 		bl	I2C_Enable_IRQ
 2872 00f6 D4E7     		b	.L439
 2873              	.L447:
 2874 00f8 0225     		movs	r5, #2
 2875 00fa D2E7     		b	.L439
 2876              	.L450:
 2877              		.align	2
 2878              	.L449:
 2879 00fc 0000FFFF 		.word	-65536
 2880 0100 00000000 		.word	I2C_Master_ISR_DMA
 2881 0104 00000000 		.word	I2C_DMAMasterReceiveCplt
 2882 0108 00000000 		.word	I2C_DMAError
 2883 010c 00240080 		.word	-2147474432
 2885              		.section	.text.HAL_I2C_IsDeviceReady,"ax",%progbits
 2886              		.align	1
 2887              		.global	HAL_I2C_IsDeviceReady
 2888              		.syntax unified
 2889              		.thumb
 2890              		.thumb_func
 2891              		.fpu fpv4-sp-d16
 2893              	HAL_I2C_IsDeviceReady:
 2894              		@ args = 0, pretend = 0, frame = 8
 2895              		@ frame_needed = 0, uses_anonymous_args = 0
 2896 0000 2DE9FF47 		push	{r0, r1, r2, r3, r4, r5, r6, r7, r8, r9, r10, lr}
 2897 0004 1D46     		mov	r5, r3
 2898 0006 0023     		movs	r3, #0
 2899 0008 0393     		str	r3, [sp, #12]
 2900 000a 90F84130 		ldrb	r3, [r0, #65]	@ zero_extendqisi2
 2901 000e 202B     		cmp	r3, #32
 2902 0010 0446     		mov	r4, r0
 2903 0012 9146     		mov	r9, r2
 2904 0014 79D1     		bne	.L468
 2905 0016 0368     		ldr	r3, [r0]
 2906 0018 9B69     		ldr	r3, [r3, #24]
 2907 001a 13F40043 		ands	r3, r3, #32768
 2908 001e 74D1     		bne	.L468
 2909 0020 90F84020 		ldrb	r2, [r0, #64]	@ zero_extendqisi2
 2910 0024 012A     		cmp	r2, #1
 2911 0026 70D0     		beq	.L468
 2912 0028 0122     		movs	r2, #1
 2913 002a C1F30906 		ubfx	r6, r1, #0, #10
 2914 002e 80F84020 		strb	r2, [r0, #64]
 2915 0032 46F00078 		orr	r8, r6, #33554432
 2916 0036 2422     		movs	r2, #36
 2917 0038 80F84120 		strb	r2, [r0, #65]
 2918 003c 48F40058 		orr	r8, r8, #8192
 2919 0040 4364     		str	r3, [r0, #68]
 2920              	.L465:
 2921 0042 E368     		ldr	r3, [r4, #12]
 2922 0044 2268     		ldr	r2, [r4]
 2923 0046 012B     		cmp	r3, #1
 2924 0048 0CBF     		ite	eq
 2925 004a 4346     		moveq	r3, r8
ARM GAS  C:\Users\gyoku\AppData\Local\Temp\ccFqN08K.s 			page 51


 2926 004c 46F42053 		orrne	r3, r6, #10240
 2927 0050 5360     		str	r3, [r2, #4]
 2928 0052 FFF7FEFF 		bl	HAL_GetTick
 2929 0056 0746     		mov	r7, r0
 2930              	.L455:
 2931 0058 2368     		ldr	r3, [r4]
 2932              	.L456:
 2933 005a 9A69     		ldr	r2, [r3, #24]
 2934 005c 9106     		lsls	r1, r2, #26
 2935 005e 06D4     		bmi	.L459
 2936 0060 9A69     		ldr	r2, [r3, #24]
 2937 0062 D206     		lsls	r2, r2, #27
 2938 0064 03D4     		bmi	.L459
 2939 0066 94F84120 		ldrb	r2, [r4, #65]	@ zero_extendqisi2
 2940 006a A02A     		cmp	r2, #160
 2941 006c 0CD1     		bne	.L460
 2942              	.L459:
 2943 006e 9A69     		ldr	r2, [r3, #24]
 2944 0070 0097     		str	r7, [sp]
 2945 0072 12F01002 		ands	r2, r2, #16
 2946 0076 2B46     		mov	r3, r5
 2947 0078 20D1     		bne	.L461
 2948 007a 2021     		movs	r1, #32
 2949 007c 2046     		mov	r0, r4
 2950 007e FFF7FEFF 		bl	I2C_WaitOnFlagUntilTimeout
 2951 0082 88B1     		cbz	r0, .L462
 2952              	.L473:
 2953 0084 0320     		movs	r0, #3
 2954 0086 16E0     		b	.L452
 2955              	.L460:
 2956 0088 681C     		adds	r0, r5, #1
 2957 008a E6D0     		beq	.L456
 2958 008c 35B9     		cbnz	r5, .L457
 2959              	.L472:
 2960 008e 2023     		movs	r3, #32
 2961 0090 84F84130 		strb	r3, [r4, #65]
 2962 0094 0023     		movs	r3, #0
 2963 0096 84F84030 		strb	r3, [r4, #64]
 2964 009a F3E7     		b	.L473
 2965              	.L457:
 2966 009c FFF7FEFF 		bl	HAL_GetTick
 2967 00a0 C01B     		subs	r0, r0, r7
 2968 00a2 A842     		cmp	r0, r5
 2969 00a4 D8D9     		bls	.L455
 2970 00a6 F2E7     		b	.L472
 2971              	.L462:
 2972 00a8 2268     		ldr	r2, [r4]
 2973 00aa 2023     		movs	r3, #32
 2974 00ac D361     		str	r3, [r2, #28]
 2975 00ae 84F84130 		strb	r3, [r4, #65]
 2976 00b2 84F84000 		strb	r0, [r4, #64]
 2977              	.L452:
 2978 00b6 04B0     		add	sp, sp, #16
 2979              		@ sp needed
 2980 00b8 BDE8F087 		pop	{r4, r5, r6, r7, r8, r9, r10, pc}
 2981              	.L461:
 2982 00bc 0022     		movs	r2, #0
ARM GAS  C:\Users\gyoku\AppData\Local\Temp\ccFqN08K.s 			page 52


 2983 00be 2021     		movs	r1, #32
 2984 00c0 2046     		mov	r0, r4
 2985 00c2 FFF7FEFF 		bl	I2C_WaitOnFlagUntilTimeout
 2986 00c6 0246     		mov	r2, r0
 2987 00c8 0028     		cmp	r0, #0
 2988 00ca DBD1     		bne	.L473
 2989 00cc 2368     		ldr	r3, [r4]
 2990 00ce 1021     		movs	r1, #16
 2991 00d0 4FF0200A 		mov	r10, #32
 2992 00d4 D961     		str	r1, [r3, #28]
 2993 00d6 C3F81CA0 		str	r10, [r3, #28]
 2994 00da 0399     		ldr	r1, [sp, #12]
 2995 00dc 481C     		adds	r0, r1, #1
 2996 00de 4945     		cmp	r1, r9
 2997 00e0 0390     		str	r0, [sp, #12]
 2998 00e2 0ED1     		bne	.L464
 2999 00e4 5968     		ldr	r1, [r3, #4]
 3000 00e6 41F48041 		orr	r1, r1, #16384
 3001 00ea 5960     		str	r1, [r3, #4]
 3002 00ec 2046     		mov	r0, r4
 3003 00ee 0097     		str	r7, [sp]
 3004 00f0 2B46     		mov	r3, r5
 3005 00f2 5146     		mov	r1, r10
 3006 00f4 FFF7FEFF 		bl	I2C_WaitOnFlagUntilTimeout
 3007 00f8 0028     		cmp	r0, #0
 3008 00fa C3D1     		bne	.L473
 3009 00fc 2368     		ldr	r3, [r4]
 3010 00fe C3F81CA0 		str	r10, [r3, #28]
 3011              	.L464:
 3012 0102 039B     		ldr	r3, [sp, #12]
 3013 0104 4B45     		cmp	r3, r9
 3014 0106 9CD3     		bcc	.L465
 3015 0108 C1E7     		b	.L472
 3016              	.L468:
 3017 010a 0220     		movs	r0, #2
 3018 010c D3E7     		b	.L452
 3020              		.section	.text.HAL_I2C_Master_Sequential_Transmit_IT,"ax",%progbits
 3021              		.align	1
 3022              		.global	HAL_I2C_Master_Sequential_Transmit_IT
 3023              		.syntax unified
 3024              		.thumb
 3025              		.thumb_func
 3026              		.fpu fpv4-sp-d16
 3028              	HAL_I2C_Master_Sequential_Transmit_IT:
 3029              		@ args = 4, pretend = 0, frame = 0
 3030              		@ frame_needed = 0, uses_anonymous_args = 0
 3031 0000 37B5     		push	{r0, r1, r2, r4, r5, lr}
 3032 0002 0446     		mov	r4, r0
 3033 0004 90F84100 		ldrb	r0, [r0, #65]	@ zero_extendqisi2
 3034 0008 2028     		cmp	r0, #32
 3035 000a 34D1     		bne	.L480
 3036 000c 94F84000 		ldrb	r0, [r4, #64]	@ zero_extendqisi2
 3037 0010 0128     		cmp	r0, #1
 3038 0012 30D0     		beq	.L480
 3039 0014 0120     		movs	r0, #1
 3040 0016 84F84000 		strb	r0, [r4, #64]
 3041 001a 2120     		movs	r0, #33
ARM GAS  C:\Users\gyoku\AppData\Local\Temp\ccFqN08K.s 			page 53


 3042 001c 84F84100 		strb	r0, [r4, #65]
 3043 0020 1020     		movs	r0, #16
 3044 0022 84F84200 		strb	r0, [r4, #66]
 3045 0026 0020     		movs	r0, #0
 3046 0028 6064     		str	r0, [r4, #68]
 3047 002a 6385     		strh	r3, [r4, #42]	@ movhi
 3048 002c 069B     		ldr	r3, [sp, #24]
 3049 002e E362     		str	r3, [r4, #44]
 3050 0030 124B     		ldr	r3, .L482
 3051 0032 6363     		str	r3, [r4, #52]
 3052 0034 638D     		ldrh	r3, [r4, #42]
 3053 0036 6262     		str	r2, [r4, #36]
 3054 0038 FF2B     		cmp	r3, #255
 3055 003a 9EBF     		ittt	ls
 3056 003c 638D     		ldrhls	r3, [r4, #42]
 3057 003e 2385     		strhls	r3, [r4, #40]	@ movhi
 3058 0040 E36A     		ldrls	r3, [r4, #44]
 3059 0042 226B     		ldr	r2, [r4, #48]
 3060 0044 82BF     		ittt	hi
 3061 0046 FF23     		movhi	r3, #255
 3062 0048 2385     		strhhi	r3, [r4, #40]	@ movhi
 3063 004a 4FF08073 		movhi	r3, #16777216
 3064 004e 112A     		cmp	r2, #17
 3065 0050 0B4A     		ldr	r2, .L482+4
 3066 0052 08BF     		it	eq
 3067 0054 0022     		moveq	r2, #0
 3068 0056 0092     		str	r2, [sp]
 3069 0058 2046     		mov	r0, r4
 3070 005a 94F82820 		ldrb	r2, [r4, #40]	@ zero_extendqisi2
 3071 005e 0025     		movs	r5, #0
 3072 0060 FFF7FEFF 		bl	I2C_TransferConfig
 3073 0064 84F84050 		strb	r5, [r4, #64]
 3074 0068 0121     		movs	r1, #1
 3075 006a 2046     		mov	r0, r4
 3076 006c FFF7FEFF 		bl	I2C_Enable_IRQ
 3077 0070 2846     		mov	r0, r5
 3078              	.L475:
 3079 0072 03B0     		add	sp, sp, #12
 3080              		@ sp needed
 3081 0074 30BD     		pop	{r4, r5, pc}
 3082              	.L480:
 3083 0076 0220     		movs	r0, #2
 3084 0078 FBE7     		b	.L475
 3085              	.L483:
 3086 007a 00BF     		.align	2
 3087              	.L482:
 3088 007c 00000000 		.word	I2C_Master_ISR_IT
 3089 0080 00200080 		.word	-2147475456
 3091              		.section	.text.HAL_I2C_Master_Sequential_Receive_IT,"ax",%progbits
 3092              		.align	1
 3093              		.global	HAL_I2C_Master_Sequential_Receive_IT
 3094              		.syntax unified
 3095              		.thumb
 3096              		.thumb_func
 3097              		.fpu fpv4-sp-d16
 3099              	HAL_I2C_Master_Sequential_Receive_IT:
 3100              		@ args = 4, pretend = 0, frame = 0
ARM GAS  C:\Users\gyoku\AppData\Local\Temp\ccFqN08K.s 			page 54


 3101              		@ frame_needed = 0, uses_anonymous_args = 0
 3102 0000 37B5     		push	{r0, r1, r2, r4, r5, lr}
 3103 0002 0446     		mov	r4, r0
 3104 0004 90F84100 		ldrb	r0, [r0, #65]	@ zero_extendqisi2
 3105 0008 2028     		cmp	r0, #32
 3106 000a 34D1     		bne	.L490
 3107 000c 94F84000 		ldrb	r0, [r4, #64]	@ zero_extendqisi2
 3108 0010 0128     		cmp	r0, #1
 3109 0012 30D0     		beq	.L490
 3110 0014 0120     		movs	r0, #1
 3111 0016 84F84000 		strb	r0, [r4, #64]
 3112 001a 2220     		movs	r0, #34
 3113 001c 84F84100 		strb	r0, [r4, #65]
 3114 0020 1020     		movs	r0, #16
 3115 0022 84F84200 		strb	r0, [r4, #66]
 3116 0026 0020     		movs	r0, #0
 3117 0028 6064     		str	r0, [r4, #68]
 3118 002a 6385     		strh	r3, [r4, #42]	@ movhi
 3119 002c 069B     		ldr	r3, [sp, #24]
 3120 002e E362     		str	r3, [r4, #44]
 3121 0030 124B     		ldr	r3, .L492
 3122 0032 6363     		str	r3, [r4, #52]
 3123 0034 638D     		ldrh	r3, [r4, #42]
 3124 0036 6262     		str	r2, [r4, #36]
 3125 0038 FF2B     		cmp	r3, #255
 3126 003a 9EBF     		ittt	ls
 3127 003c 638D     		ldrhls	r3, [r4, #42]
 3128 003e 2385     		strhls	r3, [r4, #40]	@ movhi
 3129 0040 E36A     		ldrls	r3, [r4, #44]
 3130 0042 226B     		ldr	r2, [r4, #48]
 3131 0044 82BF     		ittt	hi
 3132 0046 FF23     		movhi	r3, #255
 3133 0048 2385     		strhhi	r3, [r4, #40]	@ movhi
 3134 004a 4FF08073 		movhi	r3, #16777216
 3135 004e 122A     		cmp	r2, #18
 3136 0050 0B4A     		ldr	r2, .L492+4
 3137 0052 08BF     		it	eq
 3138 0054 0022     		moveq	r2, #0
 3139 0056 0092     		str	r2, [sp]
 3140 0058 2046     		mov	r0, r4
 3141 005a 94F82820 		ldrb	r2, [r4, #40]	@ zero_extendqisi2
 3142 005e 0025     		movs	r5, #0
 3143 0060 FFF7FEFF 		bl	I2C_TransferConfig
 3144 0064 84F84050 		strb	r5, [r4, #64]
 3145 0068 0221     		movs	r1, #2
 3146 006a 2046     		mov	r0, r4
 3147 006c FFF7FEFF 		bl	I2C_Enable_IRQ
 3148 0070 2846     		mov	r0, r5
 3149              	.L485:
 3150 0072 03B0     		add	sp, sp, #12
 3151              		@ sp needed
 3152 0074 30BD     		pop	{r4, r5, pc}
 3153              	.L490:
 3154 0076 0220     		movs	r0, #2
 3155 0078 FBE7     		b	.L485
 3156              	.L493:
 3157 007a 00BF     		.align	2
ARM GAS  C:\Users\gyoku\AppData\Local\Temp\ccFqN08K.s 			page 55


 3158              	.L492:
 3159 007c 00000000 		.word	I2C_Master_ISR_IT
 3160 0080 00240080 		.word	-2147474432
 3162              		.section	.text.HAL_I2C_Slave_Sequential_Transmit_IT,"ax",%progbits
 3163              		.align	1
 3164              		.global	HAL_I2C_Slave_Sequential_Transmit_IT
 3165              		.syntax unified
 3166              		.thumb
 3167              		.thumb_func
 3168              		.fpu fpv4-sp-d16
 3170              	HAL_I2C_Slave_Sequential_Transmit_IT:
 3171              		@ args = 0, pretend = 0, frame = 0
 3172              		@ frame_needed = 0, uses_anonymous_args = 0
 3173 0000 F8B5     		push	{r3, r4, r5, r6, r7, lr}
 3174 0002 1F46     		mov	r7, r3
 3175 0004 90F84130 		ldrb	r3, [r0, #65]	@ zero_extendqisi2
 3176 0008 03F02803 		and	r3, r3, #40
 3177 000c 282B     		cmp	r3, #40
 3178 000e 0446     		mov	r4, r0
 3179 0010 0E46     		mov	r6, r1
 3180 0012 1546     		mov	r5, r2
 3181 0014 36D1     		bne	.L500
 3182 0016 0029     		cmp	r1, #0
 3183 0018 34D0     		beq	.L500
 3184 001a 002A     		cmp	r2, #0
 3185 001c 32D0     		beq	.L500
 3186 001e 0521     		movs	r1, #5
 3187 0020 FFF7FEFF 		bl	I2C_Disable_IRQ
 3188 0024 94F84030 		ldrb	r3, [r4, #64]	@ zero_extendqisi2
 3189 0028 012B     		cmp	r3, #1
 3190 002a 2DD0     		beq	.L501
 3191 002c 0123     		movs	r3, #1
 3192 002e 84F84030 		strb	r3, [r4, #64]
 3193 0032 94F84130 		ldrb	r3, [r4, #65]	@ zero_extendqisi2
 3194 0036 2A2B     		cmp	r3, #42
 3195 0038 03D1     		bne	.L496
 3196 003a 0221     		movs	r1, #2
 3197 003c 2046     		mov	r0, r4
 3198 003e FFF7FEFF 		bl	I2C_Disable_IRQ
 3199              	.L496:
 3200 0042 2923     		movs	r3, #41
 3201 0044 84F84130 		strb	r3, [r4, #65]
 3202 0048 2023     		movs	r3, #32
 3203 004a 84F84230 		strb	r3, [r4, #66]
 3204 004e 2268     		ldr	r2, [r4]
 3205 0050 0023     		movs	r3, #0
 3206 0052 6364     		str	r3, [r4, #68]
 3207 0054 5168     		ldr	r1, [r2, #4]
 3208 0056 21F40041 		bic	r1, r1, #32768
 3209 005a 5160     		str	r1, [r2, #4]
 3210 005c 6585     		strh	r5, [r4, #42]	@ movhi
 3211 005e 618D     		ldrh	r1, [r4, #42]
 3212 0060 2185     		strh	r1, [r4, #40]	@ movhi
 3213 0062 E762     		str	r7, [r4, #44]
 3214 0064 0949     		ldr	r1, .L505
 3215 0066 6163     		str	r1, [r4, #52]
 3216 0068 9169     		ldr	r1, [r2, #24]
ARM GAS  C:\Users\gyoku\AppData\Local\Temp\ccFqN08K.s 			page 56


 3217 006a 6662     		str	r6, [r4, #36]
 3218 006c C903     		lsls	r1, r1, #15
 3219 006e 44BF     		itt	mi
 3220 0070 0821     		movmi	r1, #8
 3221 0072 D161     		strmi	r1, [r2, #28]
 3222 0074 2046     		mov	r0, r4
 3223 0076 84F84030 		strb	r3, [r4, #64]
 3224 007a 0521     		movs	r1, #5
 3225 007c FFF7FEFF 		bl	I2C_Enable_IRQ
 3226 0080 0020     		movs	r0, #0
 3227              	.L495:
 3228 0082 F8BD     		pop	{r3, r4, r5, r6, r7, pc}
 3229              	.L500:
 3230 0084 0120     		movs	r0, #1
 3231 0086 FCE7     		b	.L495
 3232              	.L501:
 3233 0088 0220     		movs	r0, #2
 3234 008a FAE7     		b	.L495
 3235              	.L506:
 3236              		.align	2
 3237              	.L505:
 3238 008c 00000000 		.word	I2C_Slave_ISR_IT
 3240              		.section	.text.HAL_I2C_Slave_Sequential_Receive_IT,"ax",%progbits
 3241              		.align	1
 3242              		.global	HAL_I2C_Slave_Sequential_Receive_IT
 3243              		.syntax unified
 3244              		.thumb
 3245              		.thumb_func
 3246              		.fpu fpv4-sp-d16
 3248              	HAL_I2C_Slave_Sequential_Receive_IT:
 3249              		@ args = 0, pretend = 0, frame = 0
 3250              		@ frame_needed = 0, uses_anonymous_args = 0
 3251 0000 F8B5     		push	{r3, r4, r5, r6, r7, lr}
 3252 0002 1F46     		mov	r7, r3
 3253 0004 90F84130 		ldrb	r3, [r0, #65]	@ zero_extendqisi2
 3254 0008 03F02803 		and	r3, r3, #40
 3255 000c 282B     		cmp	r3, #40
 3256 000e 0446     		mov	r4, r0
 3257 0010 0E46     		mov	r6, r1
 3258 0012 1546     		mov	r5, r2
 3259 0014 35D1     		bne	.L513
 3260 0016 0029     		cmp	r1, #0
 3261 0018 33D0     		beq	.L513
 3262 001a 002A     		cmp	r2, #0
 3263 001c 31D0     		beq	.L513
 3264 001e 0621     		movs	r1, #6
 3265 0020 FFF7FEFF 		bl	I2C_Disable_IRQ
 3266 0024 94F84030 		ldrb	r3, [r4, #64]	@ zero_extendqisi2
 3267 0028 012B     		cmp	r3, #1
 3268 002a 2CD0     		beq	.L514
 3269 002c 94F84130 		ldrb	r3, [r4, #65]	@ zero_extendqisi2
 3270 0030 0121     		movs	r1, #1
 3271 0032 292B     		cmp	r3, #41
 3272 0034 84F84010 		strb	r1, [r4, #64]
 3273 0038 02D1     		bne	.L509
 3274 003a 2046     		mov	r0, r4
 3275 003c FFF7FEFF 		bl	I2C_Disable_IRQ
ARM GAS  C:\Users\gyoku\AppData\Local\Temp\ccFqN08K.s 			page 57


 3276              	.L509:
 3277 0040 2A23     		movs	r3, #42
 3278 0042 84F84130 		strb	r3, [r4, #65]
 3279 0046 2023     		movs	r3, #32
 3280 0048 84F84230 		strb	r3, [r4, #66]
 3281 004c 2268     		ldr	r2, [r4]
 3282 004e 0023     		movs	r3, #0
 3283 0050 6364     		str	r3, [r4, #68]
 3284 0052 5168     		ldr	r1, [r2, #4]
 3285 0054 21F40041 		bic	r1, r1, #32768
 3286 0058 5160     		str	r1, [r2, #4]
 3287 005a 6585     		strh	r5, [r4, #42]	@ movhi
 3288 005c 618D     		ldrh	r1, [r4, #42]
 3289 005e 2185     		strh	r1, [r4, #40]	@ movhi
 3290 0060 E762     		str	r7, [r4, #44]
 3291 0062 0A49     		ldr	r1, .L515
 3292 0064 6163     		str	r1, [r4, #52]
 3293 0066 9169     		ldr	r1, [r2, #24]
 3294 0068 6662     		str	r6, [r4, #36]
 3295 006a C903     		lsls	r1, r1, #15
 3296 006c 5CBF     		itt	pl
 3297 006e 0821     		movpl	r1, #8
 3298 0070 D161     		strpl	r1, [r2, #28]
 3299 0072 2046     		mov	r0, r4
 3300 0074 84F84030 		strb	r3, [r4, #64]
 3301 0078 0621     		movs	r1, #6
 3302 007a FFF7FEFF 		bl	I2C_Enable_IRQ
 3303 007e 0020     		movs	r0, #0
 3304              	.L508:
 3305 0080 F8BD     		pop	{r3, r4, r5, r6, r7, pc}
 3306              	.L513:
 3307 0082 0120     		movs	r0, #1
 3308 0084 FCE7     		b	.L508
 3309              	.L514:
 3310 0086 0220     		movs	r0, #2
 3311 0088 FAE7     		b	.L508
 3312              	.L516:
 3313 008a 00BF     		.align	2
 3314              	.L515:
 3315 008c 00000000 		.word	I2C_Slave_ISR_IT
 3317              		.section	.text.HAL_I2C_EnableListen_IT,"ax",%progbits
 3318              		.align	1
 3319              		.global	HAL_I2C_EnableListen_IT
 3320              		.syntax unified
 3321              		.thumb
 3322              		.thumb_func
 3323              		.fpu fpv4-sp-d16
 3325              	HAL_I2C_EnableListen_IT:
 3326              		@ args = 0, pretend = 0, frame = 0
 3327              		@ frame_needed = 0, uses_anonymous_args = 0
 3328 0000 90F84120 		ldrb	r2, [r0, #65]	@ zero_extendqisi2
 3329 0004 202A     		cmp	r2, #32
 3330 0006 08B5     		push	{r3, lr}
 3331 0008 09D1     		bne	.L519
 3332 000a 2822     		movs	r2, #40
 3333 000c 80F84120 		strb	r2, [r0, #65]
 3334 0010 044A     		ldr	r2, .L520
ARM GAS  C:\Users\gyoku\AppData\Local\Temp\ccFqN08K.s 			page 58


 3335 0012 4263     		str	r2, [r0, #52]
 3336 0014 0421     		movs	r1, #4
 3337 0016 FFF7FEFF 		bl	I2C_Enable_IRQ
 3338 001a 0020     		movs	r0, #0
 3339              	.L518:
 3340 001c 08BD     		pop	{r3, pc}
 3341              	.L519:
 3342 001e 0220     		movs	r0, #2
 3343 0020 FCE7     		b	.L518
 3344              	.L521:
 3345 0022 00BF     		.align	2
 3346              	.L520:
 3347 0024 00000000 		.word	I2C_Slave_ISR_IT
 3349              		.section	.text.HAL_I2C_DisableListen_IT,"ax",%progbits
 3350              		.align	1
 3351              		.global	HAL_I2C_DisableListen_IT
 3352              		.syntax unified
 3353              		.thumb
 3354              		.thumb_func
 3355              		.fpu fpv4-sp-d16
 3357              	HAL_I2C_DisableListen_IT:
 3358              		@ args = 0, pretend = 0, frame = 0
 3359              		@ frame_needed = 0, uses_anonymous_args = 0
 3360 0000 90F84120 		ldrb	r2, [r0, #65]	@ zero_extendqisi2
 3361 0004 282A     		cmp	r2, #40
 3362 0006 10B5     		push	{r4, lr}
 3363 0008 13D1     		bne	.L524
 3364 000a 90F84110 		ldrb	r1, [r0, #65]	@ zero_extendqisi2
 3365 000e 90F84220 		ldrb	r2, [r0, #66]	@ zero_extendqisi2
 3366 0012 01F00301 		and	r1, r1, #3
 3367 0016 0A43     		orrs	r2, r2, r1
 3368 0018 0263     		str	r2, [r0, #48]
 3369 001a 0024     		movs	r4, #0
 3370 001c 2022     		movs	r2, #32
 3371 001e 80F84120 		strb	r2, [r0, #65]
 3372 0022 4463     		str	r4, [r0, #52]
 3373 0024 80F84240 		strb	r4, [r0, #66]
 3374 0028 0421     		movs	r1, #4
 3375 002a FFF7FEFF 		bl	I2C_Disable_IRQ
 3376 002e 2046     		mov	r0, r4
 3377              	.L523:
 3378 0030 10BD     		pop	{r4, pc}
 3379              	.L524:
 3380 0032 0220     		movs	r0, #2
 3381 0034 FCE7     		b	.L523
 3383              		.section	.text.HAL_I2C_Master_Abort_IT,"ax",%progbits
 3384              		.align	1
 3385              		.global	HAL_I2C_Master_Abort_IT
 3386              		.syntax unified
 3387              		.thumb
 3388              		.thumb_func
 3389              		.fpu fpv4-sp-d16
 3391              	HAL_I2C_Master_Abort_IT:
 3392              		@ args = 0, pretend = 0, frame = 0
 3393              		@ frame_needed = 0, uses_anonymous_args = 0
 3394 0000 90F84230 		ldrb	r3, [r0, #66]	@ zero_extendqisi2
 3395 0004 102B     		cmp	r3, #16
ARM GAS  C:\Users\gyoku\AppData\Local\Temp\ccFqN08K.s 			page 59


 3396 0006 73B5     		push	{r0, r1, r4, r5, r6, lr}
 3397 0008 0446     		mov	r4, r0
 3398 000a 0E46     		mov	r6, r1
 3399 000c 23D1     		bne	.L527
 3400 000e 90F84030 		ldrb	r3, [r0, #64]	@ zero_extendqisi2
 3401 0012 012B     		cmp	r3, #1
 3402 0014 21D0     		beq	.L528
 3403 0016 0125     		movs	r5, #1
 3404 0018 80F84050 		strb	r5, [r0, #64]
 3405 001c 0221     		movs	r1, #2
 3406 001e FFF7FEFF 		bl	I2C_Disable_IRQ
 3407 0022 2946     		mov	r1, r5
 3408 0024 2046     		mov	r0, r4
 3409 0026 FFF7FEFF 		bl	I2C_Disable_IRQ
 3410 002a 6023     		movs	r3, #96
 3411 002c 84F84130 		strb	r3, [r4, #65]
 3412 0030 0B4B     		ldr	r3, .L529
 3413 0032 0093     		str	r3, [sp]
 3414 0034 2A46     		mov	r2, r5
 3415 0036 4FF00073 		mov	r3, #33554432
 3416 003a 3146     		mov	r1, r6
 3417 003c 2046     		mov	r0, r4
 3418 003e 0025     		movs	r5, #0
 3419 0040 FFF7FEFF 		bl	I2C_TransferConfig
 3420 0044 84F84050 		strb	r5, [r4, #64]
 3421 0048 1221     		movs	r1, #18
 3422 004a 2046     		mov	r0, r4
 3423 004c FFF7FEFF 		bl	I2C_Enable_IRQ
 3424 0050 2846     		mov	r0, r5
 3425              	.L526:
 3426 0052 02B0     		add	sp, sp, #8
 3427              		@ sp needed
 3428 0054 70BD     		pop	{r4, r5, r6, pc}
 3429              	.L527:
 3430 0056 0120     		movs	r0, #1
 3431 0058 FBE7     		b	.L526
 3432              	.L528:
 3433 005a 0220     		movs	r0, #2
 3434 005c F9E7     		b	.L526
 3435              	.L530:
 3436 005e 00BF     		.align	2
 3437              	.L529:
 3438 0060 00400080 		.word	-2147467264
 3440              		.section	.text.HAL_I2C_EV_IRQHandler,"ax",%progbits
 3441              		.align	1
 3442              		.global	HAL_I2C_EV_IRQHandler
 3443              		.syntax unified
 3444              		.thumb
 3445              		.thumb_func
 3446              		.fpu fpv4-sp-d16
 3448              	HAL_I2C_EV_IRQHandler:
 3449              		@ args = 0, pretend = 0, frame = 0
 3450              		@ frame_needed = 0, uses_anonymous_args = 0
 3451              		@ link register save eliminated.
 3452 0000 0268     		ldr	r2, [r0]
 3453 0002 436B     		ldr	r3, [r0, #52]
 3454 0004 9169     		ldr	r1, [r2, #24]
ARM GAS  C:\Users\gyoku\AppData\Local\Temp\ccFqN08K.s 			page 60


 3455 0006 1268     		ldr	r2, [r2]
 3456 0008 03B1     		cbz	r3, .L531
 3457 000a 1847     		bx	r3
 3458              	.L531:
 3459 000c 7047     		bx	lr
 3461              		.section	.text.HAL_I2C_MasterTxCpltCallback,"ax",%progbits
 3462              		.align	1
 3463              		.weak	HAL_I2C_MasterTxCpltCallback
 3464              		.syntax unified
 3465              		.thumb
 3466              		.thumb_func
 3467              		.fpu fpv4-sp-d16
 3469              	HAL_I2C_MasterTxCpltCallback:
 3470              		@ args = 0, pretend = 0, frame = 0
 3471              		@ frame_needed = 0, uses_anonymous_args = 0
 3472              		@ link register save eliminated.
 3473 0000 7047     		bx	lr
 3475              		.section	.text.HAL_I2C_MasterRxCpltCallback,"ax",%progbits
 3476              		.align	1
 3477              		.weak	HAL_I2C_MasterRxCpltCallback
 3478              		.syntax unified
 3479              		.thumb
 3480              		.thumb_func
 3481              		.fpu fpv4-sp-d16
 3483              	HAL_I2C_MasterRxCpltCallback:
 3484              		@ args = 0, pretend = 0, frame = 0
 3485              		@ frame_needed = 0, uses_anonymous_args = 0
 3486              		@ link register save eliminated.
 3487 0000 7047     		bx	lr
 3489              		.section	.text.I2C_ITMasterSequentialCplt,"ax",%progbits
 3490              		.align	1
 3491              		.syntax unified
 3492              		.thumb
 3493              		.thumb_func
 3494              		.fpu fpv4-sp-d16
 3496              	I2C_ITMasterSequentialCplt:
 3497              		@ args = 0, pretend = 0, frame = 0
 3498              		@ frame_needed = 0, uses_anonymous_args = 0
 3499 0000 38B5     		push	{r3, r4, r5, lr}
 3500 0002 0025     		movs	r5, #0
 3501 0004 80F84250 		strb	r5, [r0, #66]
 3502 0008 90F84130 		ldrb	r3, [r0, #65]	@ zero_extendqisi2
 3503 000c 212B     		cmp	r3, #33
 3504 000e 4FF02003 		mov	r3, #32
 3505 0012 0446     		mov	r4, r0
 3506 0014 80F84130 		strb	r3, [r0, #65]
 3507 0018 0BD1     		bne	.L536
 3508 001a 1123     		movs	r3, #17
 3509 001c 0363     		str	r3, [r0, #48]
 3510 001e 4563     		str	r5, [r0, #52]
 3511 0020 0121     		movs	r1, #1
 3512 0022 FFF7FEFF 		bl	I2C_Disable_IRQ
 3513 0026 84F84050 		strb	r5, [r4, #64]
 3514 002a 2046     		mov	r0, r4
 3515 002c FFF7FEFF 		bl	HAL_I2C_MasterTxCpltCallback
 3516              	.L535:
 3517 0030 38BD     		pop	{r3, r4, r5, pc}
ARM GAS  C:\Users\gyoku\AppData\Local\Temp\ccFqN08K.s 			page 61


 3518              	.L536:
 3519 0032 1223     		movs	r3, #18
 3520 0034 0363     		str	r3, [r0, #48]
 3521 0036 4563     		str	r5, [r0, #52]
 3522 0038 0221     		movs	r1, #2
 3523 003a FFF7FEFF 		bl	I2C_Disable_IRQ
 3524 003e 84F84050 		strb	r5, [r4, #64]
 3525 0042 2046     		mov	r0, r4
 3526 0044 FFF7FEFF 		bl	HAL_I2C_MasterRxCpltCallback
 3527 0048 F2E7     		b	.L535
 3529              		.section	.text.HAL_I2C_SlaveTxCpltCallback,"ax",%progbits
 3530              		.align	1
 3531              		.weak	HAL_I2C_SlaveTxCpltCallback
 3532              		.syntax unified
 3533              		.thumb
 3534              		.thumb_func
 3535              		.fpu fpv4-sp-d16
 3537              	HAL_I2C_SlaveTxCpltCallback:
 3538              		@ args = 0, pretend = 0, frame = 0
 3539              		@ frame_needed = 0, uses_anonymous_args = 0
 3540              		@ link register save eliminated.
 3541 0000 7047     		bx	lr
 3543              		.section	.text.HAL_I2C_SlaveRxCpltCallback,"ax",%progbits
 3544              		.align	1
 3545              		.weak	HAL_I2C_SlaveRxCpltCallback
 3546              		.syntax unified
 3547              		.thumb
 3548              		.thumb_func
 3549              		.fpu fpv4-sp-d16
 3551              	HAL_I2C_SlaveRxCpltCallback:
 3552              		@ args = 0, pretend = 0, frame = 0
 3553              		@ frame_needed = 0, uses_anonymous_args = 0
 3554              		@ link register save eliminated.
 3555 0000 7047     		bx	lr
 3557              		.section	.text.I2C_ITSlaveSequentialCplt,"ax",%progbits
 3558              		.align	1
 3559              		.syntax unified
 3560              		.thumb
 3561              		.thumb_func
 3562              		.fpu fpv4-sp-d16
 3564              	I2C_ITSlaveSequentialCplt:
 3565              		@ args = 0, pretend = 0, frame = 0
 3566              		@ frame_needed = 0, uses_anonymous_args = 0
 3567 0000 38B5     		push	{r3, r4, r5, lr}
 3568 0002 0025     		movs	r5, #0
 3569 0004 80F84250 		strb	r5, [r0, #66]
 3570 0008 90F84130 		ldrb	r3, [r0, #65]	@ zero_extendqisi2
 3571 000c 292B     		cmp	r3, #41
 3572 000e 0446     		mov	r4, r0
 3573 0010 0DD1     		bne	.L541
 3574 0012 2823     		movs	r3, #40
 3575 0014 80F84130 		strb	r3, [r0, #65]
 3576 0018 2123     		movs	r3, #33
 3577 001a 0363     		str	r3, [r0, #48]
 3578 001c 0121     		movs	r1, #1
 3579 001e FFF7FEFF 		bl	I2C_Disable_IRQ
 3580 0022 84F84050 		strb	r5, [r4, #64]
ARM GAS  C:\Users\gyoku\AppData\Local\Temp\ccFqN08K.s 			page 62


 3581 0026 2046     		mov	r0, r4
 3582 0028 FFF7FEFF 		bl	HAL_I2C_SlaveTxCpltCallback
 3583              	.L540:
 3584 002c 38BD     		pop	{r3, r4, r5, pc}
 3585              	.L541:
 3586 002e 90F84130 		ldrb	r3, [r0, #65]	@ zero_extendqisi2
 3587 0032 2A2B     		cmp	r3, #42
 3588 0034 FAD1     		bne	.L540
 3589 0036 2823     		movs	r3, #40
 3590 0038 80F84130 		strb	r3, [r0, #65]
 3591 003c 2223     		movs	r3, #34
 3592 003e 0363     		str	r3, [r0, #48]
 3593 0040 0221     		movs	r1, #2
 3594 0042 FFF7FEFF 		bl	I2C_Disable_IRQ
 3595 0046 84F84050 		strb	r5, [r4, #64]
 3596 004a 2046     		mov	r0, r4
 3597 004c FFF7FEFF 		bl	HAL_I2C_SlaveRxCpltCallback
 3598 0050 ECE7     		b	.L540
 3600              		.section	.text.HAL_I2C_AddrCallback,"ax",%progbits
 3601              		.align	1
 3602              		.weak	HAL_I2C_AddrCallback
 3603              		.syntax unified
 3604              		.thumb
 3605              		.thumb_func
 3606              		.fpu fpv4-sp-d16
 3608              	HAL_I2C_AddrCallback:
 3609              		@ args = 0, pretend = 0, frame = 0
 3610              		@ frame_needed = 0, uses_anonymous_args = 0
 3611              		@ link register save eliminated.
 3612 0000 7047     		bx	lr
 3614              		.section	.text.HAL_I2C_ListenCpltCallback,"ax",%progbits
 3615              		.align	1
 3616              		.weak	HAL_I2C_ListenCpltCallback
 3617              		.syntax unified
 3618              		.thumb
 3619              		.thumb_func
 3620              		.fpu fpv4-sp-d16
 3622              	HAL_I2C_ListenCpltCallback:
 3623              		@ args = 0, pretend = 0, frame = 0
 3624              		@ frame_needed = 0, uses_anonymous_args = 0
 3625              		@ link register save eliminated.
 3626 0000 7047     		bx	lr
 3628              		.section	.text.I2C_ITListenCplt,"ax",%progbits
 3629              		.align	1
 3630              		.syntax unified
 3631              		.thumb
 3632              		.thumb_func
 3633              		.fpu fpv4-sp-d16
 3635              	I2C_ITListenCplt:
 3636              		@ args = 0, pretend = 0, frame = 0
 3637              		@ frame_needed = 0, uses_anonymous_args = 0
 3638 0000 164B     		ldr	r3, .L552
 3639 0002 10B5     		push	{r4, lr}
 3640 0004 2022     		movs	r2, #32
 3641 0006 C362     		str	r3, [r0, #44]
 3642 0008 0023     		movs	r3, #0
 3643 000a 0363     		str	r3, [r0, #48]
ARM GAS  C:\Users\gyoku\AppData\Local\Temp\ccFqN08K.s 			page 63


 3644 000c 4363     		str	r3, [r0, #52]
 3645 000e 80F84120 		strb	r2, [r0, #65]
 3646 0012 80F84230 		strb	r3, [r0, #66]
 3647 0016 4B07     		lsls	r3, r1, #29
 3648 0018 0446     		mov	r4, r0
 3649 001a 11D5     		bpl	.L547
 3650 001c 0368     		ldr	r3, [r0]
 3651 001e 5A6A     		ldr	r2, [r3, #36]
 3652 0020 436A     		ldr	r3, [r0, #36]
 3653 0022 591C     		adds	r1, r3, #1
 3654 0024 4162     		str	r1, [r0, #36]
 3655 0026 1A70     		strb	r2, [r3]
 3656 0028 038D     		ldrh	r3, [r0, #40]
 3657 002a 4BB1     		cbz	r3, .L547
 3658 002c 013B     		subs	r3, r3, #1
 3659 002e 0385     		strh	r3, [r0, #40]	@ movhi
 3660 0030 438D     		ldrh	r3, [r0, #42]
 3661 0032 013B     		subs	r3, r3, #1
 3662 0034 9BB2     		uxth	r3, r3
 3663 0036 4385     		strh	r3, [r0, #42]	@ movhi
 3664 0038 436C     		ldr	r3, [r0, #68]
 3665 003a 43F00403 		orr	r3, r3, #4
 3666 003e 4364     		str	r3, [r0, #68]
 3667              	.L547:
 3668 0040 0721     		movs	r1, #7
 3669 0042 2046     		mov	r0, r4
 3670 0044 FFF7FEFF 		bl	I2C_Disable_IRQ
 3671 0048 2368     		ldr	r3, [r4]
 3672 004a 1022     		movs	r2, #16
 3673 004c DA61     		str	r2, [r3, #28]
 3674 004e 0023     		movs	r3, #0
 3675 0050 84F84030 		strb	r3, [r4, #64]
 3676 0054 2046     		mov	r0, r4
 3677 0056 FFF7FEFF 		bl	HAL_I2C_ListenCpltCallback
 3678 005a 10BD     		pop	{r4, pc}
 3679              	.L553:
 3680              		.align	2
 3681              	.L552:
 3682 005c 0000FFFF 		.word	-65536
 3684              		.section	.text.HAL_I2C_MemTxCpltCallback,"ax",%progbits
 3685              		.align	1
 3686              		.weak	HAL_I2C_MemTxCpltCallback
 3687              		.syntax unified
 3688              		.thumb
 3689              		.thumb_func
 3690              		.fpu fpv4-sp-d16
 3692              	HAL_I2C_MemTxCpltCallback:
 3693              		@ args = 0, pretend = 0, frame = 0
 3694              		@ frame_needed = 0, uses_anonymous_args = 0
 3695              		@ link register save eliminated.
 3696 0000 7047     		bx	lr
 3698              		.section	.text.HAL_I2C_MemRxCpltCallback,"ax",%progbits
 3699              		.align	1
 3700              		.weak	HAL_I2C_MemRxCpltCallback
 3701              		.syntax unified
 3702              		.thumb
 3703              		.thumb_func
ARM GAS  C:\Users\gyoku\AppData\Local\Temp\ccFqN08K.s 			page 64


 3704              		.fpu fpv4-sp-d16
 3706              	HAL_I2C_MemRxCpltCallback:
 3707              		@ args = 0, pretend = 0, frame = 0
 3708              		@ frame_needed = 0, uses_anonymous_args = 0
 3709              		@ link register save eliminated.
 3710 0000 7047     		bx	lr
 3712              		.section	.text.HAL_I2C_ErrorCallback,"ax",%progbits
 3713              		.align	1
 3714              		.weak	HAL_I2C_ErrorCallback
 3715              		.syntax unified
 3716              		.thumb
 3717              		.thumb_func
 3718              		.fpu fpv4-sp-d16
 3720              	HAL_I2C_ErrorCallback:
 3721              		@ args = 0, pretend = 0, frame = 0
 3722              		@ frame_needed = 0, uses_anonymous_args = 0
 3723              		@ link register save eliminated.
 3724 0000 7047     		bx	lr
 3726              		.section	.text.HAL_I2C_AbortCpltCallback,"ax",%progbits
 3727              		.align	1
 3728              		.weak	HAL_I2C_AbortCpltCallback
 3729              		.syntax unified
 3730              		.thumb
 3731              		.thumb_func
 3732              		.fpu fpv4-sp-d16
 3734              	HAL_I2C_AbortCpltCallback:
 3735              		@ args = 0, pretend = 0, frame = 0
 3736              		@ frame_needed = 0, uses_anonymous_args = 0
 3737              		@ link register save eliminated.
 3738 0000 7047     		bx	lr
 3740              		.section	.text.I2C_ITError,"ax",%progbits
 3741              		.align	1
 3742              		.syntax unified
 3743              		.thumb
 3744              		.thumb_func
 3745              		.fpu fpv4-sp-d16
 3747              	I2C_ITError:
 3748              		@ args = 0, pretend = 0, frame = 0
 3749              		@ frame_needed = 0, uses_anonymous_args = 0
 3750 0000 0023     		movs	r3, #0
 3751 0002 344A     		ldr	r2, .L583
 3752 0004 10B5     		push	{r4, lr}
 3753 0006 80F84230 		strb	r3, [r0, #66]
 3754 000a C262     		str	r2, [r0, #44]
 3755 000c 4385     		strh	r3, [r0, #42]	@ movhi
 3756 000e 436C     		ldr	r3, [r0, #68]
 3757 0010 1943     		orrs	r1, r1, r3
 3758 0012 4164     		str	r1, [r0, #68]
 3759 0014 90F84130 		ldrb	r3, [r0, #65]	@ zero_extendqisi2
 3760 0018 282B     		cmp	r3, #40
 3761 001a 0446     		mov	r4, r0
 3762 001c 07D0     		beq	.L559
 3763 001e 90F84130 		ldrb	r3, [r0, #65]	@ zero_extendqisi2
 3764 0022 292B     		cmp	r3, #41
 3765 0024 03D0     		beq	.L559
 3766 0026 90F84130 		ldrb	r3, [r0, #65]	@ zero_extendqisi2
 3767 002a 2A2B     		cmp	r3, #42
ARM GAS  C:\Users\gyoku\AppData\Local\Temp\ccFqN08K.s 			page 65


 3768 002c 21D1     		bne	.L560
 3769              	.L559:
 3770 002e 0321     		movs	r1, #3
 3771 0030 2046     		mov	r0, r4
 3772 0032 FFF7FEFF 		bl	I2C_Disable_IRQ
 3773 0036 2823     		movs	r3, #40
 3774 0038 84F84130 		strb	r3, [r4, #65]
 3775 003c 0023     		movs	r3, #0
 3776 003e 2363     		str	r3, [r4, #48]
 3777 0040 254B     		ldr	r3, .L583+4
 3778              	.L581:
 3779 0042 6363     		str	r3, [r4, #52]
 3780 0044 2368     		ldr	r3, [r4]
 3781 0046 1968     		ldr	r1, [r3]
 3782 0048 1A68     		ldr	r2, [r3]
 3783 004a 11F48041 		ands	r1, r1, #16384
 3784 004e 1DD0     		beq	.L563
 3785 0050 22F48042 		bic	r2, r2, #16384
 3786 0054 A06B     		ldr	r0, [r4, #56]
 3787 0056 1A60     		str	r2, [r3]
 3788 0058 204B     		ldr	r3, .L583+8
 3789 005a 4363     		str	r3, [r0, #52]
 3790 005c 0023     		movs	r3, #0
 3791 005e 84F84030 		strb	r3, [r4, #64]
 3792 0062 FFF7FEFF 		bl	HAL_DMA_Abort_IT
 3793 0066 70B3     		cbz	r0, .L558
 3794 0068 A06B     		ldr	r0, [r4, #56]
 3795              	.L582:
 3796 006a 436B     		ldr	r3, [r0, #52]
 3797 006c BDE81040 		pop	{r4, lr}
 3798 0070 1847     		bx	r3	@ indirect register sibling call
 3799              	.L560:
 3800 0072 0721     		movs	r1, #7
 3801 0074 FFF7FEFF 		bl	I2C_Disable_IRQ
 3802 0078 94F84130 		ldrb	r3, [r4, #65]	@ zero_extendqisi2
 3803 007c 602B     		cmp	r3, #96
 3804 007e 1CBF     		itt	ne
 3805 0080 2023     		movne	r3, #32
 3806 0082 84F84130 		strbne	r3, [r4, #65]
 3807 0086 0023     		movs	r3, #0
 3808 0088 2363     		str	r3, [r4, #48]
 3809 008a DAE7     		b	.L581
 3810              	.L563:
 3811 008c 12F40042 		ands	r2, r2, #32768
 3812 0090 0DD0     		beq	.L566
 3813 0092 1A68     		ldr	r2, [r3]
 3814 0094 E06B     		ldr	r0, [r4, #60]
 3815 0096 22F40042 		bic	r2, r2, #32768
 3816 009a 1A60     		str	r2, [r3]
 3817 009c 0F4B     		ldr	r3, .L583+8
 3818 009e 4363     		str	r3, [r0, #52]
 3819 00a0 84F84010 		strb	r1, [r4, #64]
 3820 00a4 FFF7FEFF 		bl	HAL_DMA_Abort_IT
 3821 00a8 68B1     		cbz	r0, .L558
 3822 00aa E06B     		ldr	r0, [r4, #60]
 3823 00ac DDE7     		b	.L582
 3824              	.L566:
ARM GAS  C:\Users\gyoku\AppData\Local\Temp\ccFqN08K.s 			page 66


 3825 00ae 94F84130 		ldrb	r3, [r4, #65]	@ zero_extendqisi2
 3826 00b2 602B     		cmp	r3, #96
 3827 00b4 08D1     		bne	.L568
 3828 00b6 2023     		movs	r3, #32
 3829 00b8 84F84130 		strb	r3, [r4, #65]
 3830 00bc 84F84020 		strb	r2, [r4, #64]
 3831 00c0 2046     		mov	r0, r4
 3832 00c2 FFF7FEFF 		bl	HAL_I2C_AbortCpltCallback
 3833              	.L558:
 3834 00c6 10BD     		pop	{r4, pc}
 3835              	.L568:
 3836 00c8 84F84020 		strb	r2, [r4, #64]
 3837 00cc 2046     		mov	r0, r4
 3838 00ce FFF7FEFF 		bl	HAL_I2C_ErrorCallback
 3839 00d2 F8E7     		b	.L558
 3840              	.L584:
 3841              		.align	2
 3842              	.L583:
 3843 00d4 0000FFFF 		.word	-65536
 3844 00d8 00000000 		.word	I2C_Slave_ISR_IT
 3845 00dc 00000000 		.word	I2C_DMAAbort
 3847              		.section	.text.I2C_ITSlaveCplt,"ax",%progbits
 3848              		.align	1
 3849              		.syntax unified
 3850              		.thumb
 3851              		.thumb_func
 3852              		.fpu fpv4-sp-d16
 3854              	I2C_ITSlaveCplt:
 3855              		@ args = 0, pretend = 0, frame = 0
 3856              		@ frame_needed = 0, uses_anonymous_args = 0
 3857 0000 38B5     		push	{r3, r4, r5, lr}
 3858 0002 0368     		ldr	r3, [r0]
 3859 0004 2022     		movs	r2, #32
 3860 0006 0446     		mov	r4, r0
 3861 0008 DA61     		str	r2, [r3, #28]
 3862 000a 0822     		movs	r2, #8
 3863 000c DA61     		str	r2, [r3, #28]
 3864 000e 0D46     		mov	r5, r1
 3865 0010 0721     		movs	r1, #7
 3866 0012 FFF7FEFF 		bl	I2C_Disable_IRQ
 3867 0016 2368     		ldr	r3, [r4]
 3868 0018 5A68     		ldr	r2, [r3, #4]
 3869 001a 42F40042 		orr	r2, r2, #32768
 3870 001e 5A60     		str	r2, [r3, #4]
 3871 0020 5A68     		ldr	r2, [r3, #4]
 3872 0022 22F0FF72 		bic	r2, r2, #33423360
 3873 0026 22F48B32 		bic	r2, r2, #71168
 3874 002a 22F4FF72 		bic	r2, r2, #510
 3875 002e 22F00102 		bic	r2, r2, #1
 3876 0032 5A60     		str	r2, [r3, #4]
 3877 0034 2046     		mov	r0, r4
 3878 0036 FFF7FEFF 		bl	I2C_Flush_TXDR
 3879 003a 2268     		ldr	r2, [r4]
 3880 003c 1368     		ldr	r3, [r2]
 3881 003e 5804     		lsls	r0, r3, #17
 3882 0040 02D4     		bmi	.L586
 3883 0042 1368     		ldr	r3, [r2]
ARM GAS  C:\Users\gyoku\AppData\Local\Temp\ccFqN08K.s 			page 67


 3884 0044 1904     		lsls	r1, r3, #16
 3885 0046 09D5     		bpl	.L587
 3886              	.L586:
 3887 0048 94F84130 		ldrb	r3, [r4, #65]	@ zero_extendqisi2
 3888 004c 212B     		cmp	r3, #33
 3889 004e 0CBF     		ite	eq
 3890 0050 A36B     		ldreq	r3, [r4, #56]
 3891 0052 E36B     		ldrne	r3, [r4, #60]
 3892 0054 1B68     		ldr	r3, [r3]
 3893 0056 5B68     		ldr	r3, [r3, #4]
 3894 0058 9BB2     		uxth	r3, r3
 3895 005a 6385     		strh	r3, [r4, #42]	@ movhi
 3896              	.L587:
 3897 005c 638D     		ldrh	r3, [r4, #42]
 3898 005e 9BB2     		uxth	r3, r3
 3899 0060 1BB1     		cbz	r3, .L590
 3900 0062 636C     		ldr	r3, [r4, #68]
 3901 0064 43F00403 		orr	r3, r3, #4
 3902 0068 6364     		str	r3, [r4, #68]
 3903              	.L590:
 3904 006a 6B07     		lsls	r3, r5, #29
 3905 006c 10D5     		bpl	.L592
 3906 006e 636A     		ldr	r3, [r4, #36]
 3907 0070 526A     		ldr	r2, [r2, #36]
 3908 0072 591C     		adds	r1, r3, #1
 3909 0074 6162     		str	r1, [r4, #36]
 3910 0076 1A70     		strb	r2, [r3]
 3911 0078 238D     		ldrh	r3, [r4, #40]
 3912 007a 4BB1     		cbz	r3, .L592
 3913 007c 013B     		subs	r3, r3, #1
 3914 007e 2385     		strh	r3, [r4, #40]	@ movhi
 3915 0080 638D     		ldrh	r3, [r4, #42]
 3916 0082 013B     		subs	r3, r3, #1
 3917 0084 9BB2     		uxth	r3, r3
 3918 0086 6385     		strh	r3, [r4, #42]	@ movhi
 3919 0088 636C     		ldr	r3, [r4, #68]
 3920 008a 43F00403 		orr	r3, r3, #4
 3921 008e 6364     		str	r3, [r4, #68]
 3922              	.L592:
 3923 0090 0023     		movs	r3, #0
 3924 0092 2363     		str	r3, [r4, #48]
 3925 0094 84F84230 		strb	r3, [r4, #66]
 3926 0098 6363     		str	r3, [r4, #52]
 3927 009a 636C     		ldr	r3, [r4, #68]
 3928 009c 6BB1     		cbz	r3, .L594
 3929 009e 616C     		ldr	r1, [r4, #68]
 3930 00a0 2046     		mov	r0, r4
 3931 00a2 FFF7FEFF 		bl	I2C_ITError
 3932 00a6 94F84130 		ldrb	r3, [r4, #65]	@ zero_extendqisi2
 3933 00aa 282B     		cmp	r3, #40
 3934 00ac 13D1     		bne	.L585
 3935 00ae 2946     		mov	r1, r5
 3936 00b0 2046     		mov	r0, r4
 3937 00b2 BDE83840 		pop	{r3, r4, r5, lr}
 3938 00b6 FFF7FEBF 		b	I2C_ITListenCplt
 3939              	.L594:
 3940 00ba E26A     		ldr	r2, [r4, #44]
ARM GAS  C:\Users\gyoku\AppData\Local\Temp\ccFqN08K.s 			page 68


 3941 00bc 12F5803F 		cmn	r2, #65536
 3942 00c0 0AD0     		beq	.L596
 3943 00c2 0E4A     		ldr	r2, .L608
 3944 00c4 E262     		str	r2, [r4, #44]
 3945 00c6 2022     		movs	r2, #32
 3946 00c8 84F84120 		strb	r2, [r4, #65]
 3947 00cc 84F84030 		strb	r3, [r4, #64]
 3948 00d0 2046     		mov	r0, r4
 3949 00d2 FFF7FEFF 		bl	HAL_I2C_ListenCpltCallback
 3950              	.L585:
 3951 00d6 38BD     		pop	{r3, r4, r5, pc}
 3952              	.L596:
 3953 00d8 94F84120 		ldrb	r2, [r4, #65]	@ zero_extendqisi2
 3954 00dc 84F84030 		strb	r3, [r4, #64]
 3955 00e0 222A     		cmp	r2, #34
 3956 00e2 4FF02002 		mov	r2, #32
 3957 00e6 84F84120 		strb	r2, [r4, #65]
 3958 00ea 2046     		mov	r0, r4
 3959 00ec 02D1     		bne	.L597
 3960 00ee FFF7FEFF 		bl	HAL_I2C_SlaveRxCpltCallback
 3961 00f2 F0E7     		b	.L585
 3962              	.L597:
 3963 00f4 FFF7FEFF 		bl	HAL_I2C_SlaveTxCpltCallback
 3964 00f8 EDE7     		b	.L585
 3965              	.L609:
 3966 00fa 00BF     		.align	2
 3967              	.L608:
 3968 00fc 0000FFFF 		.word	-65536
 3970              		.section	.text.I2C_Slave_ISR_IT,"ax",%progbits
 3971              		.align	1
 3972              		.syntax unified
 3973              		.thumb
 3974              		.thumb_func
 3975              		.fpu fpv4-sp-d16
 3977              	I2C_Slave_ISR_IT:
 3978              		@ args = 0, pretend = 0, frame = 0
 3979              		@ frame_needed = 0, uses_anonymous_args = 0
 3980 0000 2DE9F843 		push	{r3, r4, r5, r6, r7, r8, r9, lr}
 3981 0004 90F84030 		ldrb	r3, [r0, #64]	@ zero_extendqisi2
 3982 0008 012B     		cmp	r3, #1
 3983 000a 0446     		mov	r4, r0
 3984 000c 0E46     		mov	r6, r1
 3985 000e 1746     		mov	r7, r2
 3986 0010 00F0CB80 		beq	.L629
 3987 0014 0123     		movs	r3, #1
 3988 0016 CD06     		lsls	r5, r1, #27
 3989 0018 80F84030 		strb	r3, [r0, #64]
 3990 001c 3ED5     		bpl	.L612
 3991 001e D006     		lsls	r0, r2, #27
 3992 0020 3CD5     		bpl	.L612
 3993 0022 638D     		ldrh	r3, [r4, #42]
 3994 0024 9BB2     		uxth	r3, r3
 3995 0026 8BBB     		cbnz	r3, .L613
 3996 0028 E36A     		ldr	r3, [r4, #44]
 3997 002a B3F1007F 		cmp	r3, #33554432
 3998 002e 03D0     		beq	.L614
 3999 0030 E36A     		ldr	r3, [r4, #44]
ARM GAS  C:\Users\gyoku\AppData\Local\Temp\ccFqN08K.s 			page 69


 4000 0032 B3F1007F 		cmp	r3, #33554432
 4001 0036 14D1     		bne	.L615
 4002              	.L614:
 4003 0038 94F84130 		ldrb	r3, [r4, #65]	@ zero_extendqisi2
 4004 003c 282B     		cmp	r3, #40
 4005 003e 10D1     		bne	.L615
 4006 0040 3146     		mov	r1, r6
 4007 0042 2046     		mov	r0, r4
 4008 0044 FFF7FEFF 		bl	I2C_ITListenCplt
 4009              	.L616:
 4010 0048 B206     		lsls	r2, r6, #26
 4011 004a 05D5     		bpl	.L628
 4012 004c BB06     		lsls	r3, r7, #26
 4013 004e 03D5     		bpl	.L628
 4014 0050 3146     		mov	r1, r6
 4015 0052 2046     		mov	r0, r4
 4016 0054 FFF7FEFF 		bl	I2C_ITSlaveCplt
 4017              	.L628:
 4018 0058 0020     		movs	r0, #0
 4019 005a 84F84000 		strb	r0, [r4, #64]
 4020              	.L611:
 4021 005e BDE8F883 		pop	{r3, r4, r5, r6, r7, r8, r9, pc}
 4022              	.L615:
 4023 0062 E26A     		ldr	r2, [r4, #44]
 4024 0064 2368     		ldr	r3, [r4]
 4025 0066 12F5803F 		cmn	r2, #65536
 4026 006a 0CD0     		beq	.L617
 4027 006c 94F84120 		ldrb	r2, [r4, #65]	@ zero_extendqisi2
 4028 0070 292A     		cmp	r2, #41
 4029 0072 08D1     		bne	.L617
 4030 0074 1022     		movs	r2, #16
 4031 0076 DA61     		str	r2, [r3, #28]
 4032 0078 2046     		mov	r0, r4
 4033 007a FFF7FEFF 		bl	I2C_Flush_TXDR
 4034              	.L627:
 4035 007e 2046     		mov	r0, r4
 4036 0080 FFF7FEFF 		bl	I2C_ITSlaveSequentialCplt
 4037 0084 E0E7     		b	.L616
 4038              	.L617:
 4039 0086 1022     		movs	r2, #16
 4040 0088 DA61     		str	r2, [r3, #28]
 4041 008a DDE7     		b	.L616
 4042              	.L613:
 4043 008c 2368     		ldr	r3, [r4]
 4044 008e 1022     		movs	r2, #16
 4045 0090 DA61     		str	r2, [r3, #28]
 4046 0092 636C     		ldr	r3, [r4, #68]
 4047 0094 43F00403 		orr	r3, r3, #4
 4048 0098 6364     		str	r3, [r4, #68]
 4049 009a D5E7     		b	.L616
 4050              	.L612:
 4051 009c 7107     		lsls	r1, r6, #29
 4052 009e 1AD5     		bpl	.L618
 4053 00a0 7A07     		lsls	r2, r7, #29
 4054 00a2 18D5     		bpl	.L618
 4055 00a4 638D     		ldrh	r3, [r4, #42]
 4056 00a6 9BB2     		uxth	r3, r3
ARM GAS  C:\Users\gyoku\AppData\Local\Temp\ccFqN08K.s 			page 70


 4057 00a8 63B1     		cbz	r3, .L619
 4058 00aa 2368     		ldr	r3, [r4]
 4059 00ac 5A6A     		ldr	r2, [r3, #36]
 4060 00ae 636A     		ldr	r3, [r4, #36]
 4061 00b0 591C     		adds	r1, r3, #1
 4062 00b2 6162     		str	r1, [r4, #36]
 4063 00b4 1A70     		strb	r2, [r3]
 4064 00b6 238D     		ldrh	r3, [r4, #40]
 4065 00b8 013B     		subs	r3, r3, #1
 4066 00ba 2385     		strh	r3, [r4, #40]	@ movhi
 4067 00bc 638D     		ldrh	r3, [r4, #42]
 4068 00be 013B     		subs	r3, r3, #1
 4069 00c0 9BB2     		uxth	r3, r3
 4070 00c2 6385     		strh	r3, [r4, #42]	@ movhi
 4071              	.L619:
 4072 00c4 638D     		ldrh	r3, [r4, #42]
 4073 00c6 9BB2     		uxth	r3, r3
 4074 00c8 002B     		cmp	r3, #0
 4075 00ca BDD1     		bne	.L616
 4076 00cc E36A     		ldr	r3, [r4, #44]
 4077 00ce 13F5803F 		cmn	r3, #65536
 4078 00d2 B9D0     		beq	.L616
 4079 00d4 D3E7     		b	.L627
 4080              	.L618:
 4081 00d6 3307     		lsls	r3, r6, #28
 4082 00d8 46D5     		bpl	.L622
 4083 00da 3D07     		lsls	r5, r7, #28
 4084 00dc 44D5     		bpl	.L622
 4085 00de 94F84120 		ldrb	r2, [r4, #65]	@ zero_extendqisi2
 4086 00e2 2368     		ldr	r3, [r4]
 4087 00e4 02F02802 		and	r2, r2, #40
 4088 00e8 282A     		cmp	r2, #40
 4089 00ea 37D1     		bne	.L623
 4090 00ec 9A69     		ldr	r2, [r3, #24]
 4091 00ee E168     		ldr	r1, [r4, #12]
 4092 00f0 9D69     		ldr	r5, [r3, #24]
 4093 00f2 0229     		cmp	r1, #2
 4094 00f4 4FEA1545 		lsr	r5, r5, #16
 4095 00f8 C2F30048 		ubfx	r8, r2, #16, #1
 4096 00fc 05F0FE05 		and	r5, r5, #254
 4097 0100 9A68     		ldr	r2, [r3, #8]
 4098 0102 D3F80C90 		ldr	r9, [r3, #12]
 4099 0106 20D1     		bne	.L624
 4100 0108 C2F30902 		ubfx	r2, r2, #0, #10
 4101 010c 85EAD215 		eor	r5, r5, r2, lsr #7
 4102 0110 15F00605 		ands	r5, r5, #6
 4103 0114 0FD1     		bne	.L625
 4104 0116 A16C     		ldr	r1, [r4, #72]
 4105 0118 0131     		adds	r1, r1, #1
 4106 011a A164     		str	r1, [r4, #72]
 4107 011c A16C     		ldr	r1, [r4, #72]
 4108 011e 0229     		cmp	r1, #2
 4109 0120 92D1     		bne	.L616
 4110 0122 0821     		movs	r1, #8
 4111 0124 A564     		str	r5, [r4, #72]
 4112 0126 D961     		str	r1, [r3, #28]
 4113 0128 84F84050 		strb	r5, [r4, #64]
ARM GAS  C:\Users\gyoku\AppData\Local\Temp\ccFqN08K.s 			page 71


 4114              	.L678:
 4115 012c 4146     		mov	r1, r8
 4116 012e 2046     		mov	r0, r4
 4117 0130 FFF7FEFF 		bl	HAL_I2C_AddrCallback
 4118 0134 88E7     		b	.L616
 4119              	.L625:
 4120 0136 0421     		movs	r1, #4
 4121 0138 2046     		mov	r0, r4
 4122 013a FFF7FEFF 		bl	I2C_Disable_IRQ
 4123 013e 0023     		movs	r3, #0
 4124 0140 84F84030 		strb	r3, [r4, #64]
 4125 0144 09F0FE02 		and	r2, r9, #254
 4126 0148 F0E7     		b	.L678
 4127              	.L624:
 4128 014a 0421     		movs	r1, #4
 4129 014c 2046     		mov	r0, r4
 4130 014e FFF7FEFF 		bl	I2C_Disable_IRQ
 4131 0152 0023     		movs	r3, #0
 4132 0154 84F84030 		strb	r3, [r4, #64]
 4133 0158 2A46     		mov	r2, r5
 4134 015a E7E7     		b	.L678
 4135              	.L623:
 4136 015c 0822     		movs	r2, #8
 4137 015e DA61     		str	r2, [r3, #28]
 4138 0160 0023     		movs	r3, #0
 4139 0162 84F84030 		strb	r3, [r4, #64]
 4140 0166 6FE7     		b	.L616
 4141              	.L622:
 4142 0168 B007     		lsls	r0, r6, #30
 4143 016a 7FF56DAF 		bpl	.L616
 4144 016e B907     		lsls	r1, r7, #30
 4145 0170 7FF56AAF 		bpl	.L616
 4146 0174 638D     		ldrh	r3, [r4, #42]
 4147 0176 9BB2     		uxth	r3, r3
 4148 0178 6BB1     		cbz	r3, .L626
 4149 017a 636A     		ldr	r3, [r4, #36]
 4150 017c 5A1C     		adds	r2, r3, #1
 4151 017e 6262     		str	r2, [r4, #36]
 4152 0180 2268     		ldr	r2, [r4]
 4153 0182 1B78     		ldrb	r3, [r3]	@ zero_extendqisi2
 4154 0184 9362     		str	r3, [r2, #40]
 4155 0186 638D     		ldrh	r3, [r4, #42]
 4156 0188 013B     		subs	r3, r3, #1
 4157 018a 9BB2     		uxth	r3, r3
 4158 018c 6385     		strh	r3, [r4, #42]	@ movhi
 4159 018e 238D     		ldrh	r3, [r4, #40]
 4160 0190 013B     		subs	r3, r3, #1
 4161 0192 2385     		strh	r3, [r4, #40]	@ movhi
 4162 0194 58E7     		b	.L616
 4163              	.L626:
 4164 0196 E36A     		ldr	r3, [r4, #44]
 4165 0198 B3F1807F 		cmp	r3, #16777216
 4166 019c 3FF46FAF 		beq	.L627
 4167 01a0 E36A     		ldr	r3, [r4, #44]
 4168 01a2 002B     		cmp	r3, #0
 4169 01a4 3FF46BAF 		beq	.L627
 4170 01a8 4EE7     		b	.L616
ARM GAS  C:\Users\gyoku\AppData\Local\Temp\ccFqN08K.s 			page 72


 4171              	.L629:
 4172 01aa 0220     		movs	r0, #2
 4173 01ac 57E7     		b	.L611
 4175              		.section	.text.I2C_Slave_ISR_DMA,"ax",%progbits
 4176              		.align	1
 4177              		.syntax unified
 4178              		.thumb
 4179              		.thumb_func
 4180              		.fpu fpv4-sp-d16
 4182              	I2C_Slave_ISR_DMA:
 4183              		@ args = 0, pretend = 0, frame = 0
 4184              		@ frame_needed = 0, uses_anonymous_args = 0
 4185 0000 90F84030 		ldrb	r3, [r0, #64]	@ zero_extendqisi2
 4186 0004 012B     		cmp	r3, #1
 4187 0006 10B5     		push	{r4, lr}
 4188 0008 0446     		mov	r4, r0
 4189 000a 2ED0     		beq	.L687
 4190 000c 0123     		movs	r3, #1
 4191 000e 80F84030 		strb	r3, [r0, #64]
 4192 0012 C806     		lsls	r0, r1, #27
 4193 0014 19D5     		bpl	.L681
 4194 0016 D306     		lsls	r3, r2, #27
 4195 0018 17D5     		bpl	.L681
 4196 001a 94F84130 		ldrb	r3, [r4, #65]	@ zero_extendqisi2
 4197 001e 2268     		ldr	r2, [r4]
 4198 0020 212B     		cmp	r3, #33
 4199 0022 0CBF     		ite	eq
 4200 0024 A36B     		ldreq	r3, [r4, #56]
 4201 0026 E36B     		ldrne	r3, [r4, #60]
 4202 0028 1B68     		ldr	r3, [r3]
 4203 002a 5B68     		ldr	r3, [r3, #4]
 4204 002c B3FA83F3 		clz	r3, r3
 4205 0030 1021     		movs	r1, #16
 4206 0032 5B09     		lsrs	r3, r3, #5
 4207 0034 D161     		str	r1, [r2, #28]
 4208 0036 1BB1     		cbz	r3, .L684
 4209              	.L685:
 4210 0038 0020     		movs	r0, #0
 4211 003a 84F84000 		strb	r0, [r4, #64]
 4212              	.L680:
 4213 003e 10BD     		pop	{r4, pc}
 4214              	.L684:
 4215 0040 636C     		ldr	r3, [r4, #68]
 4216 0042 43F00403 		orr	r3, r3, #4
 4217 0046 6364     		str	r3, [r4, #68]
 4218 0048 F6E7     		b	.L685
 4219              	.L681:
 4220 004a 0807     		lsls	r0, r1, #28
 4221 004c 05D5     		bpl	.L686
 4222 004e 1307     		lsls	r3, r2, #28
 4223 0050 03D5     		bpl	.L686
 4224 0052 2368     		ldr	r3, [r4]
 4225 0054 0822     		movs	r2, #8
 4226 0056 DA61     		str	r2, [r3, #28]
 4227 0058 EEE7     		b	.L685
 4228              	.L686:
 4229 005a 8806     		lsls	r0, r1, #26
ARM GAS  C:\Users\gyoku\AppData\Local\Temp\ccFqN08K.s 			page 73


 4230 005c ECD5     		bpl	.L685
 4231 005e 9306     		lsls	r3, r2, #26
 4232 0060 EAD5     		bpl	.L685
 4233 0062 2046     		mov	r0, r4
 4234 0064 FFF7FEFF 		bl	I2C_ITSlaveCplt
 4235 0068 E6E7     		b	.L685
 4236              	.L687:
 4237 006a 0220     		movs	r0, #2
 4238 006c E7E7     		b	.L680
 4240              		.section	.text.I2C_ITMasterCplt,"ax",%progbits
 4241              		.align	1
 4242              		.syntax unified
 4243              		.thumb
 4244              		.thumb_func
 4245              		.fpu fpv4-sp-d16
 4247              	I2C_ITMasterCplt:
 4248              		@ args = 0, pretend = 0, frame = 0
 4249              		@ frame_needed = 0, uses_anonymous_args = 0
 4250 0000 0368     		ldr	r3, [r0]
 4251 0002 2022     		movs	r2, #32
 4252 0004 10B5     		push	{r4, lr}
 4253 0006 DA61     		str	r2, [r3, #28]
 4254 0008 5A68     		ldr	r2, [r3, #4]
 4255 000a 22F0FF72 		bic	r2, r2, #33423360
 4256 000e 22F48B32 		bic	r2, r2, #71168
 4257 0012 22F4FF72 		bic	r2, r2, #510
 4258 0016 22F00102 		bic	r2, r2, #1
 4259 001a 5A60     		str	r2, [r3, #4]
 4260 001c 0022     		movs	r2, #0
 4261 001e 0263     		str	r2, [r0, #48]
 4262 0020 4263     		str	r2, [r0, #52]
 4263 0022 A2F58032 		sub	r2, r2, #65536
 4264 0026 C262     		str	r2, [r0, #44]
 4265 0028 CA06     		lsls	r2, r1, #27
 4266 002a 0446     		mov	r4, r0
 4267 002c 05D5     		bpl	.L708
 4268 002e 1022     		movs	r2, #16
 4269 0030 DA61     		str	r2, [r3, #28]
 4270 0032 436C     		ldr	r3, [r0, #68]
 4271 0034 43F00403 		orr	r3, r3, #4
 4272 0038 4364     		str	r3, [r0, #68]
 4273              	.L708:
 4274 003a 2046     		mov	r0, r4
 4275 003c FFF7FEFF 		bl	I2C_Flush_TXDR
 4276 0040 0321     		movs	r1, #3
 4277 0042 FFF7FEFF 		bl	I2C_Disable_IRQ
 4278 0046 636C     		ldr	r3, [r4, #68]
 4279 0048 1BB9     		cbnz	r3, .L709
 4280 004a 94F84120 		ldrb	r2, [r4, #65]	@ zero_extendqisi2
 4281 004e 602A     		cmp	r2, #96
 4282 0050 05D1     		bne	.L710
 4283              	.L709:
 4284 0052 616C     		ldr	r1, [r4, #68]
 4285 0054 2046     		mov	r0, r4
 4286 0056 BDE81040 		pop	{r4, lr}
 4287 005a FFF7FEBF 		b	I2C_ITError
 4288              	.L710:
ARM GAS  C:\Users\gyoku\AppData\Local\Temp\ccFqN08K.s 			page 74


 4289 005e 94F84120 		ldrb	r2, [r4, #65]	@ zero_extendqisi2
 4290 0062 212A     		cmp	r2, #33
 4291 0064 11D1     		bne	.L711
 4292 0066 2022     		movs	r2, #32
 4293 0068 84F84120 		strb	r2, [r4, #65]
 4294 006c 94F84220 		ldrb	r2, [r4, #66]	@ zero_extendqisi2
 4295 0070 84F84030 		strb	r3, [r4, #64]
 4296 0074 402A     		cmp	r2, #64
 4297 0076 84F84230 		strb	r3, [r4, #66]
 4298 007a 2046     		mov	r0, r4
 4299 007c 02D1     		bne	.L712
 4300 007e FFF7FEFF 		bl	HAL_I2C_MemTxCpltCallback
 4301              	.L707:
 4302 0082 10BD     		pop	{r4, pc}
 4303              	.L712:
 4304 0084 FFF7FEFF 		bl	HAL_I2C_MasterTxCpltCallback
 4305 0088 FBE7     		b	.L707
 4306              	.L711:
 4307 008a 94F84120 		ldrb	r2, [r4, #65]	@ zero_extendqisi2
 4308 008e 222A     		cmp	r2, #34
 4309 0090 F7D1     		bne	.L707
 4310 0092 2022     		movs	r2, #32
 4311 0094 84F84120 		strb	r2, [r4, #65]
 4312 0098 94F84220 		ldrb	r2, [r4, #66]	@ zero_extendqisi2
 4313 009c 84F84030 		strb	r3, [r4, #64]
 4314 00a0 402A     		cmp	r2, #64
 4315 00a2 84F84230 		strb	r3, [r4, #66]
 4316 00a6 2046     		mov	r0, r4
 4317 00a8 02D1     		bne	.L714
 4318 00aa FFF7FEFF 		bl	HAL_I2C_MemRxCpltCallback
 4319 00ae E8E7     		b	.L707
 4320              	.L714:
 4321 00b0 FFF7FEFF 		bl	HAL_I2C_MasterRxCpltCallback
 4322 00b4 E5E7     		b	.L707
 4324              		.section	.text.I2C_Master_ISR_IT,"ax",%progbits
 4325              		.align	1
 4326              		.syntax unified
 4327              		.thumb
 4328              		.thumb_func
 4329              		.fpu fpv4-sp-d16
 4331              	I2C_Master_ISR_IT:
 4332              		@ args = 0, pretend = 0, frame = 0
 4333              		@ frame_needed = 0, uses_anonymous_args = 0
 4334 0000 90F84030 		ldrb	r3, [r0, #64]	@ zero_extendqisi2
 4335 0004 012B     		cmp	r3, #1
 4336 0006 73B5     		push	{r0, r1, r4, r5, r6, lr}
 4337 0008 0446     		mov	r4, r0
 4338 000a 0D46     		mov	r5, r1
 4339 000c 1646     		mov	r6, r2
 4340 000e 00F08380 		beq	.L731
 4341 0012 0123     		movs	r3, #1
 4342 0014 CA06     		lsls	r2, r1, #27
 4343 0016 80F84030 		strb	r3, [r0, #64]
 4344 001a 17D5     		bpl	.L720
 4345 001c F306     		lsls	r3, r6, #27
 4346 001e 15D5     		bpl	.L720
 4347 0020 0368     		ldr	r3, [r0]
ARM GAS  C:\Users\gyoku\AppData\Local\Temp\ccFqN08K.s 			page 75


 4348 0022 1022     		movs	r2, #16
 4349 0024 DA61     		str	r2, [r3, #28]
 4350 0026 436C     		ldr	r3, [r0, #68]
 4351 0028 43F00403 		orr	r3, r3, #4
 4352 002c 4364     		str	r3, [r0, #68]
 4353 002e FFF7FEFF 		bl	I2C_Flush_TXDR
 4354              	.L721:
 4355 0032 AA06     		lsls	r2, r5, #26
 4356 0034 05D5     		bpl	.L730
 4357 0036 B306     		lsls	r3, r6, #26
 4358 0038 03D5     		bpl	.L730
 4359 003a 2946     		mov	r1, r5
 4360 003c 2046     		mov	r0, r4
 4361 003e FFF7FEFF 		bl	I2C_ITMasterCplt
 4362              	.L730:
 4363 0042 0020     		movs	r0, #0
 4364 0044 84F84000 		strb	r0, [r4, #64]
 4365              	.L719:
 4366 0048 02B0     		add	sp, sp, #8
 4367              		@ sp needed
 4368 004a 70BD     		pop	{r4, r5, r6, pc}
 4369              	.L720:
 4370 004c 6807     		lsls	r0, r5, #29
 4371 004e 0FD5     		bpl	.L722
 4372 0050 7107     		lsls	r1, r6, #29
 4373 0052 0DD5     		bpl	.L722
 4374 0054 2368     		ldr	r3, [r4]
 4375 0056 5A6A     		ldr	r2, [r3, #36]
 4376 0058 636A     		ldr	r3, [r4, #36]
 4377 005a 591C     		adds	r1, r3, #1
 4378 005c 6162     		str	r1, [r4, #36]
 4379 005e 1A70     		strb	r2, [r3]
 4380              	.L771:
 4381 0060 238D     		ldrh	r3, [r4, #40]
 4382 0062 013B     		subs	r3, r3, #1
 4383 0064 2385     		strh	r3, [r4, #40]	@ movhi
 4384 0066 638D     		ldrh	r3, [r4, #42]
 4385 0068 013B     		subs	r3, r3, #1
 4386 006a 9BB2     		uxth	r3, r3
 4387 006c 6385     		strh	r3, [r4, #42]	@ movhi
 4388 006e E0E7     		b	.L721
 4389              	.L722:
 4390 0070 AA07     		lsls	r2, r5, #30
 4391 0072 08D5     		bpl	.L723
 4392 0074 B307     		lsls	r3, r6, #30
 4393 0076 06D5     		bpl	.L723
 4394 0078 636A     		ldr	r3, [r4, #36]
 4395 007a 5A1C     		adds	r2, r3, #1
 4396 007c 6262     		str	r2, [r4, #36]
 4397 007e 2268     		ldr	r2, [r4]
 4398 0080 1B78     		ldrb	r3, [r3]	@ zero_extendqisi2
 4399 0082 9362     		str	r3, [r2, #40]
 4400 0084 ECE7     		b	.L771
 4401              	.L723:
 4402 0086 2806     		lsls	r0, r5, #24
 4403 0088 31D5     		bpl	.L724
 4404 008a 7106     		lsls	r1, r6, #25
ARM GAS  C:\Users\gyoku\AppData\Local\Temp\ccFqN08K.s 			page 76


 4405 008c 2FD5     		bpl	.L724
 4406 008e 208D     		ldrh	r0, [r4, #40]
 4407 0090 2268     		ldr	r2, [r4]
 4408 0092 00BB     		cbnz	r0, .L725
 4409 0094 638D     		ldrh	r3, [r4, #42]
 4410 0096 9BB2     		uxth	r3, r3
 4411 0098 EBB1     		cbz	r3, .L725
 4412 009a 5168     		ldr	r1, [r2, #4]
 4413 009c 638D     		ldrh	r3, [r4, #42]
 4414 009e FF2B     		cmp	r3, #255
 4415 00a0 C1F30901 		ubfx	r1, r1, #0, #10
 4416 00a4 08D9     		bls	.L726
 4417 00a6 FF22     		movs	r2, #255
 4418 00a8 2285     		strh	r2, [r4, #40]	@ movhi
 4419 00aa 0090     		str	r0, [sp]
 4420 00ac 4FF08073 		mov	r3, #16777216
 4421              	.L772:
 4422 00b0 2046     		mov	r0, r4
 4423 00b2 FFF7FEFF 		bl	I2C_TransferConfig
 4424 00b6 BCE7     		b	.L721
 4425              	.L726:
 4426 00b8 628D     		ldrh	r2, [r4, #42]
 4427 00ba E36A     		ldr	r3, [r4, #44]
 4428 00bc 92B2     		uxth	r2, r2
 4429 00be 13F5803F 		cmn	r3, #65536
 4430 00c2 2285     		strh	r2, [r4, #40]	@ movhi
 4431 00c4 1CBF     		itt	ne
 4432 00c6 E36A     		ldrne	r3, [r4, #44]
 4433 00c8 0090     		strne	r0, [sp]
 4434 00ca D2B2     		uxtb	r2, r2
 4435 00cc 04BF     		itt	eq
 4436 00ce 0090     		streq	r0, [sp]
 4437 00d0 4FF00073 		moveq	r3, #33554432
 4438 00d4 ECE7     		b	.L772
 4439              	.L725:
 4440 00d6 5368     		ldr	r3, [r2, #4]
 4441 00d8 9A01     		lsls	r2, r3, #6
 4442 00da 03D4     		bmi	.L728
 4443              	.L729:
 4444 00dc 2046     		mov	r0, r4
 4445 00de FFF7FEFF 		bl	I2C_ITMasterSequentialCplt
 4446 00e2 A6E7     		b	.L721
 4447              	.L728:
 4448 00e4 4021     		movs	r1, #64
 4449 00e6 2046     		mov	r0, r4
 4450 00e8 FFF7FEFF 		bl	I2C_ITError
 4451 00ec A1E7     		b	.L721
 4452              	.L724:
 4453 00ee 6B06     		lsls	r3, r5, #25
 4454 00f0 9FD5     		bpl	.L721
 4455 00f2 7006     		lsls	r0, r6, #25
 4456 00f4 9DD5     		bpl	.L721
 4457 00f6 638D     		ldrh	r3, [r4, #42]
 4458 00f8 9BB2     		uxth	r3, r3
 4459 00fa 002B     		cmp	r3, #0
 4460 00fc F2D1     		bne	.L728
 4461 00fe 2368     		ldr	r3, [r4]
ARM GAS  C:\Users\gyoku\AppData\Local\Temp\ccFqN08K.s 			page 77


 4462 0100 5A68     		ldr	r2, [r3, #4]
 4463 0102 9101     		lsls	r1, r2, #6
 4464 0104 95D4     		bmi	.L721
 4465 0106 E26A     		ldr	r2, [r4, #44]
 4466 0108 12F5803F 		cmn	r2, #65536
 4467 010c E6D1     		bne	.L729
 4468 010e 5A68     		ldr	r2, [r3, #4]
 4469 0110 42F48042 		orr	r2, r2, #16384
 4470 0114 5A60     		str	r2, [r3, #4]
 4471 0116 8CE7     		b	.L721
 4472              	.L731:
 4473 0118 0220     		movs	r0, #2
 4474 011a 95E7     		b	.L719
 4476              		.section	.text.I2C_Master_ISR_DMA,"ax",%progbits
 4477              		.align	1
 4478              		.syntax unified
 4479              		.thumb
 4480              		.thumb_func
 4481              		.fpu fpv4-sp-d16
 4483              	I2C_Master_ISR_DMA:
 4484              		@ args = 0, pretend = 0, frame = 0
 4485              		@ frame_needed = 0, uses_anonymous_args = 0
 4486 0000 90F84030 		ldrb	r3, [r0, #64]	@ zero_extendqisi2
 4487 0004 012B     		cmp	r3, #1
 4488 0006 13B5     		push	{r0, r1, r4, lr}
 4489 0008 0446     		mov	r4, r0
 4490 000a 58D0     		beq	.L781
 4491 000c 0123     		movs	r3, #1
 4492 000e 80F84030 		strb	r3, [r0, #64]
 4493 0012 CB06     		lsls	r3, r1, #27
 4494 0014 13D5     		bpl	.L775
 4495 0016 D306     		lsls	r3, r2, #27
 4496 0018 11D5     		bpl	.L775
 4497 001a 0368     		ldr	r3, [r0]
 4498 001c 1022     		movs	r2, #16
 4499 001e DA61     		str	r2, [r3, #28]
 4500 0020 436C     		ldr	r3, [r0, #68]
 4501 0022 43F00403 		orr	r3, r3, #4
 4502 0026 4364     		str	r3, [r0, #68]
 4503 0028 1221     		movs	r1, #18
 4504 002a FFF7FEFF 		bl	I2C_Enable_IRQ
 4505 002e 2046     		mov	r0, r4
 4506 0030 FFF7FEFF 		bl	I2C_Flush_TXDR
 4507              	.L776:
 4508 0034 0020     		movs	r0, #0
 4509 0036 84F84000 		strb	r0, [r4, #64]
 4510              	.L774:
 4511 003a 02B0     		add	sp, sp, #8
 4512              		@ sp needed
 4513 003c 10BD     		pop	{r4, pc}
 4514              	.L775:
 4515 003e 0806     		lsls	r0, r1, #24
 4516 0040 35D5     		bpl	.L777
 4517 0042 5306     		lsls	r3, r2, #25
 4518 0044 33D5     		bpl	.L777
 4519 0046 2368     		ldr	r3, [r4]
 4520 0048 1A68     		ldr	r2, [r3]
ARM GAS  C:\Users\gyoku\AppData\Local\Temp\ccFqN08K.s 			page 78


 4521 004a 22F04002 		bic	r2, r2, #64
 4522 004e 1A60     		str	r2, [r3]
 4523 0050 628D     		ldrh	r2, [r4, #42]
 4524 0052 92B2     		uxth	r2, r2
 4525 0054 32B3     		cbz	r2, .L778
 4526 0056 5968     		ldr	r1, [r3, #4]
 4527 0058 638D     		ldrh	r3, [r4, #42]
 4528 005a FF2B     		cmp	r3, #255
 4529 005c 96BF     		itet	ls
 4530 005e 628D     		ldrhls	r2, [r4, #42]
 4531 0060 FF22     		movhi	r2, #255
 4532 0062 92B2     		uxthls	r2, r2
 4533 0064 4FF00000 		mov	r0, #0
 4534 0068 94BF     		ite	ls
 4535 006a 4FF00073 		movls	r3, #33554432
 4536 006e 4FF08073 		movhi	r3, #16777216
 4537 0072 2285     		strh	r2, [r4, #40]	@ movhi
 4538 0074 0090     		str	r0, [sp]
 4539 0076 D2B2     		uxtb	r2, r2
 4540 0078 C1F30901 		ubfx	r1, r1, #0, #10
 4541 007c 2046     		mov	r0, r4
 4542 007e FFF7FEFF 		bl	I2C_TransferConfig
 4543 0082 638D     		ldrh	r3, [r4, #42]
 4544 0084 228D     		ldrh	r2, [r4, #40]
 4545 0086 9B1A     		subs	r3, r3, r2
 4546 0088 9BB2     		uxth	r3, r3
 4547 008a 6385     		strh	r3, [r4, #42]	@ movhi
 4548 008c 94F84130 		ldrb	r3, [r4, #65]	@ zero_extendqisi2
 4549 0090 222B     		cmp	r3, #34
 4550 0092 2368     		ldr	r3, [r4]
 4551 0094 1A68     		ldr	r2, [r3]
 4552 0096 0CBF     		ite	eq
 4553 0098 42F40042 		orreq	r2, r2, #32768
 4554 009c 42F48042 		orrne	r2, r2, #16384
 4555 00a0 1A60     		str	r2, [r3]
 4556 00a2 C7E7     		b	.L776
 4557              	.L778:
 4558 00a4 4021     		movs	r1, #64
 4559 00a6 2046     		mov	r0, r4
 4560 00a8 FFF7FEFF 		bl	I2C_ITError
 4561 00ac C2E7     		b	.L776
 4562              	.L777:
 4563 00ae 8806     		lsls	r0, r1, #26
 4564 00b0 C0D5     		bpl	.L776
 4565 00b2 9306     		lsls	r3, r2, #26
 4566 00b4 BED5     		bpl	.L776
 4567 00b6 2046     		mov	r0, r4
 4568 00b8 FFF7FEFF 		bl	I2C_ITMasterCplt
 4569 00bc BAE7     		b	.L776
 4570              	.L781:
 4571 00be 0220     		movs	r0, #2
 4572 00c0 BBE7     		b	.L774
 4574              		.section	.text.I2C_DMAError,"ax",%progbits
 4575              		.align	1
 4576              		.syntax unified
 4577              		.thumb
 4578              		.thumb_func
ARM GAS  C:\Users\gyoku\AppData\Local\Temp\ccFqN08K.s 			page 79


 4579              		.fpu fpv4-sp-d16
 4581              	I2C_DMAError:
 4582              		@ args = 0, pretend = 0, frame = 0
 4583              		@ frame_needed = 0, uses_anonymous_args = 0
 4584              		@ link register save eliminated.
 4585 0000 406A     		ldr	r0, [r0, #36]
 4586 0002 0268     		ldr	r2, [r0]
 4587 0004 5368     		ldr	r3, [r2, #4]
 4588 0006 43F40043 		orr	r3, r3, #32768
 4589 000a 5360     		str	r3, [r2, #4]
 4590 000c 1021     		movs	r1, #16
 4591 000e FFF7FEBF 		b	I2C_ITError
 4593              		.section	.text.HAL_I2C_ER_IRQHandler,"ax",%progbits
 4594              		.align	1
 4595              		.global	HAL_I2C_ER_IRQHandler
 4596              		.syntax unified
 4597              		.thumb
 4598              		.thumb_func
 4599              		.fpu fpv4-sp-d16
 4601              	HAL_I2C_ER_IRQHandler:
 4602              		@ args = 0, pretend = 0, frame = 0
 4603              		@ frame_needed = 0, uses_anonymous_args = 0
 4604              		@ link register save eliminated.
 4605 0000 0368     		ldr	r3, [r0]
 4606 0002 9969     		ldr	r1, [r3, #24]
 4607 0004 1A68     		ldr	r2, [r3]
 4608 0006 10B4     		push	{r4}
 4609 0008 CC05     		lsls	r4, r1, #23
 4610 000a 08D5     		bpl	.L804
 4611 000c 1406     		lsls	r4, r2, #24
 4612 000e 06D5     		bpl	.L804
 4613 0010 446C     		ldr	r4, [r0, #68]
 4614 0012 44F00104 		orr	r4, r4, #1
 4615 0016 4464     		str	r4, [r0, #68]
 4616 0018 4FF48074 		mov	r4, #256
 4617 001c DC61     		str	r4, [r3, #28]
 4618              	.L804:
 4619 001e 4C05     		lsls	r4, r1, #21
 4620 0020 08D5     		bpl	.L805
 4621 0022 1406     		lsls	r4, r2, #24
 4622 0024 06D5     		bpl	.L805
 4623 0026 446C     		ldr	r4, [r0, #68]
 4624 0028 44F00804 		orr	r4, r4, #8
 4625 002c 4464     		str	r4, [r0, #68]
 4626 002e 4FF48064 		mov	r4, #1024
 4627 0032 DC61     		str	r4, [r3, #28]
 4628              	.L805:
 4629 0034 8905     		lsls	r1, r1, #22
 4630 0036 08D5     		bpl	.L806
 4631 0038 1206     		lsls	r2, r2, #24
 4632 003a 06D5     		bpl	.L806
 4633 003c 426C     		ldr	r2, [r0, #68]
 4634 003e 42F00202 		orr	r2, r2, #2
 4635 0042 4264     		str	r2, [r0, #68]
 4636 0044 4FF40072 		mov	r2, #512
 4637 0048 DA61     		str	r2, [r3, #28]
 4638              	.L806:
ARM GAS  C:\Users\gyoku\AppData\Local\Temp\ccFqN08K.s 			page 80


 4639 004a 436C     		ldr	r3, [r0, #68]
 4640 004c 13F00B0F 		tst	r3, #11
 4641 0050 04D0     		beq	.L803
 4642 0052 416C     		ldr	r1, [r0, #68]
 4643 0054 5DF8044B 		ldr	r4, [sp], #4
 4644 0058 FFF7FEBF 		b	I2C_ITError
 4645              	.L803:
 4646 005c 5DF8044B 		ldr	r4, [sp], #4
 4647 0060 7047     		bx	lr
 4649              		.section	.text.I2C_DMAAbort,"ax",%progbits
 4650              		.align	1
 4651              		.syntax unified
 4652              		.thumb
 4653              		.thumb_func
 4654              		.fpu fpv4-sp-d16
 4656              	I2C_DMAAbort:
 4657              		@ args = 0, pretend = 0, frame = 0
 4658              		@ frame_needed = 0, uses_anonymous_args = 0
 4659 0000 406A     		ldr	r0, [r0, #36]
 4660 0002 0268     		ldr	r2, [r0]
 4661 0004 08B5     		push	{r3, lr}
 4662 0006 5368     		ldr	r3, [r2, #4]
 4663 0008 43F40043 		orr	r3, r3, #32768
 4664 000c 5360     		str	r3, [r2, #4]
 4665 000e 826B     		ldr	r2, [r0, #56]
 4666 0010 0023     		movs	r3, #0
 4667 0012 5363     		str	r3, [r2, #52]
 4668 0014 C26B     		ldr	r2, [r0, #60]
 4669 0016 5363     		str	r3, [r2, #52]
 4670 0018 90F84130 		ldrb	r3, [r0, #65]	@ zero_extendqisi2
 4671 001c 602B     		cmp	r3, #96
 4672 001e 05D1     		bne	.L827
 4673 0020 2023     		movs	r3, #32
 4674 0022 80F84130 		strb	r3, [r0, #65]
 4675 0026 FFF7FEFF 		bl	HAL_I2C_AbortCpltCallback
 4676              	.L826:
 4677 002a 08BD     		pop	{r3, pc}
 4678              	.L827:
 4679 002c FFF7FEFF 		bl	HAL_I2C_ErrorCallback
 4680 0030 FBE7     		b	.L826
 4682              		.section	.text.HAL_I2C_GetState,"ax",%progbits
 4683              		.align	1
 4684              		.global	HAL_I2C_GetState
 4685              		.syntax unified
 4686              		.thumb
 4687              		.thumb_func
 4688              		.fpu fpv4-sp-d16
 4690              	HAL_I2C_GetState:
 4691              		@ args = 0, pretend = 0, frame = 0
 4692              		@ frame_needed = 0, uses_anonymous_args = 0
 4693              		@ link register save eliminated.
 4694 0000 90F84100 		ldrb	r0, [r0, #65]	@ zero_extendqisi2
 4695 0004 7047     		bx	lr
 4697              		.section	.text.HAL_I2C_GetMode,"ax",%progbits
 4698              		.align	1
 4699              		.global	HAL_I2C_GetMode
 4700              		.syntax unified
ARM GAS  C:\Users\gyoku\AppData\Local\Temp\ccFqN08K.s 			page 81


 4701              		.thumb
 4702              		.thumb_func
 4703              		.fpu fpv4-sp-d16
 4705              	HAL_I2C_GetMode:
 4706              		@ args = 0, pretend = 0, frame = 0
 4707              		@ frame_needed = 0, uses_anonymous_args = 0
 4708              		@ link register save eliminated.
 4709 0000 90F84200 		ldrb	r0, [r0, #66]	@ zero_extendqisi2
 4710 0004 7047     		bx	lr
 4712              		.section	.text.HAL_I2C_GetError,"ax",%progbits
 4713              		.align	1
 4714              		.global	HAL_I2C_GetError
 4715              		.syntax unified
 4716              		.thumb
 4717              		.thumb_func
 4718              		.fpu fpv4-sp-d16
 4720              	HAL_I2C_GetError:
 4721              		@ args = 0, pretend = 0, frame = 0
 4722              		@ frame_needed = 0, uses_anonymous_args = 0
 4723              		@ link register save eliminated.
 4724 0000 406C     		ldr	r0, [r0, #68]
 4725 0002 7047     		bx	lr
 4727              		.ident	"GCC: (GNU MCU Eclipse ARM Embedded GCC, 64-bit) 8.2.1 20181213 (release) [gcc-8-branch rev
ARM GAS  C:\Users\gyoku\AppData\Local\Temp\ccFqN08K.s 			page 82


DEFINED SYMBOLS
                            *ABS*:0000000000000000 stm32f3xx_hal_i2c.c
C:\Users\gyoku\AppData\Local\Temp\ccFqN08K.s:16     .text.I2C_Flush_TXDR:0000000000000000 $t
C:\Users\gyoku\AppData\Local\Temp\ccFqN08K.s:23     .text.I2C_Flush_TXDR:0000000000000000 I2C_Flush_TXDR
C:\Users\gyoku\AppData\Local\Temp\ccFqN08K.s:42     .text.I2C_DMASlaveTransmitCplt:0000000000000000 $t
C:\Users\gyoku\AppData\Local\Temp\ccFqN08K.s:48     .text.I2C_DMASlaveTransmitCplt:0000000000000000 I2C_DMASlaveTransmitCplt
C:\Users\gyoku\AppData\Local\Temp\ccFqN08K.s:55     .text.I2C_TransferConfig:0000000000000000 $t
C:\Users\gyoku\AppData\Local\Temp\ccFqN08K.s:61     .text.I2C_TransferConfig:0000000000000000 I2C_TransferConfig
C:\Users\gyoku\AppData\Local\Temp\ccFqN08K.s:81     .text.I2C_TransferConfig:0000000000000024 $d
C:\Users\gyoku\AppData\Local\Temp\ccFqN08K.s:84     .text.I2C_Enable_IRQ:0000000000000000 $t
C:\Users\gyoku\AppData\Local\Temp\ccFqN08K.s:90     .text.I2C_Enable_IRQ:0000000000000000 I2C_Enable_IRQ
C:\Users\gyoku\AppData\Local\Temp\ccFqN08K.s:136    .text.I2C_Enable_IRQ:000000000000005c $d
C:\Users\gyoku\AppData\Local\Temp\ccFqN08K.s:4483   .text.I2C_Master_ISR_DMA:0000000000000000 I2C_Master_ISR_DMA
C:\Users\gyoku\AppData\Local\Temp\ccFqN08K.s:4182   .text.I2C_Slave_ISR_DMA:0000000000000000 I2C_Slave_ISR_DMA
C:\Users\gyoku\AppData\Local\Temp\ccFqN08K.s:140    .text.I2C_Disable_IRQ:0000000000000000 $t
C:\Users\gyoku\AppData\Local\Temp\ccFqN08K.s:146    .text.I2C_Disable_IRQ:0000000000000000 I2C_Disable_IRQ
C:\Users\gyoku\AppData\Local\Temp\ccFqN08K.s:179    .text.I2C_WaitOnFlagUntilTimeout:0000000000000000 $t
C:\Users\gyoku\AppData\Local\Temp\ccFqN08K.s:185    .text.I2C_WaitOnFlagUntilTimeout:0000000000000000 I2C_WaitOnFlagUntilTimeout
C:\Users\gyoku\AppData\Local\Temp\ccFqN08K.s:227    .text.I2C_DMAMasterTransmitCplt:0000000000000000 $t
C:\Users\gyoku\AppData\Local\Temp\ccFqN08K.s:233    .text.I2C_DMAMasterTransmitCplt:0000000000000000 I2C_DMAMasterTransmitCplt
C:\Users\gyoku\AppData\Local\Temp\ccFqN08K.s:268    .text.I2C_DMAMasterReceiveCplt:0000000000000000 $t
C:\Users\gyoku\AppData\Local\Temp\ccFqN08K.s:274    .text.I2C_DMAMasterReceiveCplt:0000000000000000 I2C_DMAMasterReceiveCplt
C:\Users\gyoku\AppData\Local\Temp\ccFqN08K.s:309    .text.I2C_IsAcknowledgeFailed:0000000000000000 $t
C:\Users\gyoku\AppData\Local\Temp\ccFqN08K.s:315    .text.I2C_IsAcknowledgeFailed:0000000000000000 I2C_IsAcknowledgeFailed
C:\Users\gyoku\AppData\Local\Temp\ccFqN08K.s:373    .text.I2C_WaitOnRXNEFlagUntilTimeout:0000000000000000 $t
C:\Users\gyoku\AppData\Local\Temp\ccFqN08K.s:379    .text.I2C_WaitOnRXNEFlagUntilTimeout:0000000000000000 I2C_WaitOnRXNEFlagUntilTimeout
C:\Users\gyoku\AppData\Local\Temp\ccFqN08K.s:446    .text.I2C_WaitOnTXISFlagUntilTimeout:0000000000000000 $t
C:\Users\gyoku\AppData\Local\Temp\ccFqN08K.s:452    .text.I2C_WaitOnTXISFlagUntilTimeout:0000000000000000 I2C_WaitOnTXISFlagUntilTimeout
C:\Users\gyoku\AppData\Local\Temp\ccFqN08K.s:498    .text.I2C_RequestMemoryWrite:0000000000000000 $t
C:\Users\gyoku\AppData\Local\Temp\ccFqN08K.s:504    .text.I2C_RequestMemoryWrite:0000000000000000 I2C_RequestMemoryWrite
C:\Users\gyoku\AppData\Local\Temp\ccFqN08K.s:565    .text.I2C_RequestMemoryWrite:0000000000000068 $d
C:\Users\gyoku\AppData\Local\Temp\ccFqN08K.s:568    .text.I2C_RequestMemoryRead:0000000000000000 $t
C:\Users\gyoku\AppData\Local\Temp\ccFqN08K.s:574    .text.I2C_RequestMemoryRead:0000000000000000 I2C_RequestMemoryRead
C:\Users\gyoku\AppData\Local\Temp\ccFqN08K.s:635    .text.I2C_RequestMemoryRead:0000000000000068 $d
C:\Users\gyoku\AppData\Local\Temp\ccFqN08K.s:638    .text.I2C_DMASlaveReceiveCplt:0000000000000000 $t
C:\Users\gyoku\AppData\Local\Temp\ccFqN08K.s:644    .text.I2C_DMASlaveReceiveCplt:0000000000000000 I2C_DMASlaveReceiveCplt
C:\Users\gyoku\AppData\Local\Temp\ccFqN08K.s:651    .text.I2C_WaitOnSTOPFlagUntilTimeout:0000000000000000 $t
C:\Users\gyoku\AppData\Local\Temp\ccFqN08K.s:657    .text.I2C_WaitOnSTOPFlagUntilTimeout:0000000000000000 I2C_WaitOnSTOPFlagUntilTimeout
C:\Users\gyoku\AppData\Local\Temp\ccFqN08K.s:701    .text.HAL_I2C_MspInit:0000000000000000 $t
C:\Users\gyoku\AppData\Local\Temp\ccFqN08K.s:708    .text.HAL_I2C_MspInit:0000000000000000 HAL_I2C_MspInit
C:\Users\gyoku\AppData\Local\Temp\ccFqN08K.s:715    .text.HAL_I2C_Init:0000000000000000 $t
C:\Users\gyoku\AppData\Local\Temp\ccFqN08K.s:722    .text.HAL_I2C_Init:0000000000000000 HAL_I2C_Init
C:\Users\gyoku\AppData\Local\Temp\ccFqN08K.s:792    .text.HAL_I2C_MspDeInit:0000000000000000 $t
C:\Users\gyoku\AppData\Local\Temp\ccFqN08K.s:799    .text.HAL_I2C_MspDeInit:0000000000000000 HAL_I2C_MspDeInit
C:\Users\gyoku\AppData\Local\Temp\ccFqN08K.s:806    .text.HAL_I2C_DeInit:0000000000000000 $t
C:\Users\gyoku\AppData\Local\Temp\ccFqN08K.s:813    .text.HAL_I2C_DeInit:0000000000000000 HAL_I2C_DeInit
C:\Users\gyoku\AppData\Local\Temp\ccFqN08K.s:839    .text.HAL_I2C_Master_Transmit:0000000000000000 $t
C:\Users\gyoku\AppData\Local\Temp\ccFqN08K.s:846    .text.HAL_I2C_Master_Transmit:0000000000000000 HAL_I2C_Master_Transmit
C:\Users\gyoku\AppData\Local\Temp\ccFqN08K.s:986    .text.HAL_I2C_Master_Transmit:0000000000000128 $d
C:\Users\gyoku\AppData\Local\Temp\ccFqN08K.s:989    .text.HAL_I2C_Master_Receive:0000000000000000 $t
C:\Users\gyoku\AppData\Local\Temp\ccFqN08K.s:996    .text.HAL_I2C_Master_Receive:0000000000000000 HAL_I2C_Master_Receive
C:\Users\gyoku\AppData\Local\Temp\ccFqN08K.s:1136   .text.HAL_I2C_Master_Receive:0000000000000128 $d
C:\Users\gyoku\AppData\Local\Temp\ccFqN08K.s:1139   .text.HAL_I2C_Slave_Transmit:0000000000000000 $t
C:\Users\gyoku\AppData\Local\Temp\ccFqN08K.s:1146   .text.HAL_I2C_Slave_Transmit:0000000000000000 HAL_I2C_Slave_Transmit
C:\Users\gyoku\AppData\Local\Temp\ccFqN08K.s:1293   .text.HAL_I2C_Slave_Receive:0000000000000000 $t
C:\Users\gyoku\AppData\Local\Temp\ccFqN08K.s:1300   .text.HAL_I2C_Slave_Receive:0000000000000000 HAL_I2C_Slave_Receive
C:\Users\gyoku\AppData\Local\Temp\ccFqN08K.s:1444   .text.HAL_I2C_Master_Transmit_IT:0000000000000000 $t
ARM GAS  C:\Users\gyoku\AppData\Local\Temp\ccFqN08K.s 			page 83


C:\Users\gyoku\AppData\Local\Temp\ccFqN08K.s:1451   .text.HAL_I2C_Master_Transmit_IT:0000000000000000 HAL_I2C_Master_Transmit_IT
C:\Users\gyoku\AppData\Local\Temp\ccFqN08K.s:1510   .text.HAL_I2C_Master_Transmit_IT:000000000000007c $d
C:\Users\gyoku\AppData\Local\Temp\ccFqN08K.s:4331   .text.I2C_Master_ISR_IT:0000000000000000 I2C_Master_ISR_IT
C:\Users\gyoku\AppData\Local\Temp\ccFqN08K.s:1515   .text.HAL_I2C_Master_Receive_IT:0000000000000000 $t
C:\Users\gyoku\AppData\Local\Temp\ccFqN08K.s:1522   .text.HAL_I2C_Master_Receive_IT:0000000000000000 HAL_I2C_Master_Receive_IT
C:\Users\gyoku\AppData\Local\Temp\ccFqN08K.s:1581   .text.HAL_I2C_Master_Receive_IT:000000000000007c $d
C:\Users\gyoku\AppData\Local\Temp\ccFqN08K.s:1586   .text.HAL_I2C_Slave_Transmit_IT:0000000000000000 $t
C:\Users\gyoku\AppData\Local\Temp\ccFqN08K.s:1593   .text.HAL_I2C_Slave_Transmit_IT:0000000000000000 HAL_I2C_Slave_Transmit_IT
C:\Users\gyoku\AppData\Local\Temp\ccFqN08K.s:1633   .text.HAL_I2C_Slave_Transmit_IT:0000000000000050 $d
C:\Users\gyoku\AppData\Local\Temp\ccFqN08K.s:3977   .text.I2C_Slave_ISR_IT:0000000000000000 I2C_Slave_ISR_IT
C:\Users\gyoku\AppData\Local\Temp\ccFqN08K.s:1637   .text.HAL_I2C_Slave_Receive_IT:0000000000000000 $t
C:\Users\gyoku\AppData\Local\Temp\ccFqN08K.s:1644   .text.HAL_I2C_Slave_Receive_IT:0000000000000000 HAL_I2C_Slave_Receive_IT
C:\Users\gyoku\AppData\Local\Temp\ccFqN08K.s:1684   .text.HAL_I2C_Slave_Receive_IT:0000000000000050 $d
C:\Users\gyoku\AppData\Local\Temp\ccFqN08K.s:1688   .text.HAL_I2C_Master_Transmit_DMA:0000000000000000 $t
C:\Users\gyoku\AppData\Local\Temp\ccFqN08K.s:1695   .text.HAL_I2C_Master_Transmit_DMA:0000000000000000 HAL_I2C_Master_Transmit_DMA
C:\Users\gyoku\AppData\Local\Temp\ccFqN08K.s:1794   .text.HAL_I2C_Master_Transmit_DMA:00000000000000dc $d
C:\Users\gyoku\AppData\Local\Temp\ccFqN08K.s:4581   .text.I2C_DMAError:0000000000000000 I2C_DMAError
C:\Users\gyoku\AppData\Local\Temp\ccFqN08K.s:1802   .text.HAL_I2C_Master_Receive_DMA:0000000000000000 $t
C:\Users\gyoku\AppData\Local\Temp\ccFqN08K.s:1809   .text.HAL_I2C_Master_Receive_DMA:0000000000000000 HAL_I2C_Master_Receive_DMA
C:\Users\gyoku\AppData\Local\Temp\ccFqN08K.s:1907   .text.HAL_I2C_Master_Receive_DMA:00000000000000d8 $d
C:\Users\gyoku\AppData\Local\Temp\ccFqN08K.s:1915   .text.HAL_I2C_Slave_Transmit_DMA:0000000000000000 $t
C:\Users\gyoku\AppData\Local\Temp\ccFqN08K.s:1922   .text.HAL_I2C_Slave_Transmit_DMA:0000000000000000 HAL_I2C_Slave_Transmit_DMA
C:\Users\gyoku\AppData\Local\Temp\ccFqN08K.s:1987   .text.HAL_I2C_Slave_Transmit_DMA:0000000000000088 $d
C:\Users\gyoku\AppData\Local\Temp\ccFqN08K.s:1993   .text.HAL_I2C_Slave_Receive_DMA:0000000000000000 $t
C:\Users\gyoku\AppData\Local\Temp\ccFqN08K.s:2000   .text.HAL_I2C_Slave_Receive_DMA:0000000000000000 HAL_I2C_Slave_Receive_DMA
C:\Users\gyoku\AppData\Local\Temp\ccFqN08K.s:2066   .text.HAL_I2C_Slave_Receive_DMA:000000000000008c $d
C:\Users\gyoku\AppData\Local\Temp\ccFqN08K.s:2072   .text.HAL_I2C_Mem_Write:0000000000000000 $t
C:\Users\gyoku\AppData\Local\Temp\ccFqN08K.s:2079   .text.HAL_I2C_Mem_Write:0000000000000000 HAL_I2C_Mem_Write
C:\Users\gyoku\AppData\Local\Temp\ccFqN08K.s:2246   .text.HAL_I2C_Mem_Read:0000000000000000 $t
C:\Users\gyoku\AppData\Local\Temp\ccFqN08K.s:2253   .text.HAL_I2C_Mem_Read:0000000000000000 HAL_I2C_Mem_Read
C:\Users\gyoku\AppData\Local\Temp\ccFqN08K.s:2423   .text.HAL_I2C_Mem_Read:0000000000000170 $d
C:\Users\gyoku\AppData\Local\Temp\ccFqN08K.s:2426   .text.HAL_I2C_Mem_Write_IT:0000000000000000 $t
C:\Users\gyoku\AppData\Local\Temp\ccFqN08K.s:2433   .text.HAL_I2C_Mem_Write_IT:0000000000000000 HAL_I2C_Mem_Write_IT
C:\Users\gyoku\AppData\Local\Temp\ccFqN08K.s:2525   .text.HAL_I2C_Mem_Write_IT:00000000000000d0 $d
C:\Users\gyoku\AppData\Local\Temp\ccFqN08K.s:2529   .text.HAL_I2C_Mem_Read_IT:0000000000000000 $t
C:\Users\gyoku\AppData\Local\Temp\ccFqN08K.s:2536   .text.HAL_I2C_Mem_Read_IT:0000000000000000 HAL_I2C_Mem_Read_IT
C:\Users\gyoku\AppData\Local\Temp\ccFqN08K.s:2629   .text.HAL_I2C_Mem_Read_IT:00000000000000d0 $d
C:\Users\gyoku\AppData\Local\Temp\ccFqN08K.s:2634   .text.HAL_I2C_Mem_Write_DMA:0000000000000000 $t
C:\Users\gyoku\AppData\Local\Temp\ccFqN08K.s:2641   .text.HAL_I2C_Mem_Write_DMA:0000000000000000 HAL_I2C_Mem_Write_DMA
C:\Users\gyoku\AppData\Local\Temp\ccFqN08K.s:2753   .text.HAL_I2C_Mem_Write_DMA:00000000000000fc $d
C:\Users\gyoku\AppData\Local\Temp\ccFqN08K.s:2759   .text.HAL_I2C_Mem_Read_DMA:0000000000000000 $t
C:\Users\gyoku\AppData\Local\Temp\ccFqN08K.s:2766   .text.HAL_I2C_Mem_Read_DMA:0000000000000000 HAL_I2C_Mem_Read_DMA
C:\Users\gyoku\AppData\Local\Temp\ccFqN08K.s:2879   .text.HAL_I2C_Mem_Read_DMA:00000000000000fc $d
C:\Users\gyoku\AppData\Local\Temp\ccFqN08K.s:2886   .text.HAL_I2C_IsDeviceReady:0000000000000000 $t
C:\Users\gyoku\AppData\Local\Temp\ccFqN08K.s:2893   .text.HAL_I2C_IsDeviceReady:0000000000000000 HAL_I2C_IsDeviceReady
C:\Users\gyoku\AppData\Local\Temp\ccFqN08K.s:3021   .text.HAL_I2C_Master_Sequential_Transmit_IT:0000000000000000 $t
C:\Users\gyoku\AppData\Local\Temp\ccFqN08K.s:3028   .text.HAL_I2C_Master_Sequential_Transmit_IT:0000000000000000 HAL_I2C_Master_Sequential_Transmit_IT
C:\Users\gyoku\AppData\Local\Temp\ccFqN08K.s:3088   .text.HAL_I2C_Master_Sequential_Transmit_IT:000000000000007c $d
C:\Users\gyoku\AppData\Local\Temp\ccFqN08K.s:3092   .text.HAL_I2C_Master_Sequential_Receive_IT:0000000000000000 $t
C:\Users\gyoku\AppData\Local\Temp\ccFqN08K.s:3099   .text.HAL_I2C_Master_Sequential_Receive_IT:0000000000000000 HAL_I2C_Master_Sequential_Receive_IT
C:\Users\gyoku\AppData\Local\Temp\ccFqN08K.s:3159   .text.HAL_I2C_Master_Sequential_Receive_IT:000000000000007c $d
C:\Users\gyoku\AppData\Local\Temp\ccFqN08K.s:3163   .text.HAL_I2C_Slave_Sequential_Transmit_IT:0000000000000000 $t
C:\Users\gyoku\AppData\Local\Temp\ccFqN08K.s:3170   .text.HAL_I2C_Slave_Sequential_Transmit_IT:0000000000000000 HAL_I2C_Slave_Sequential_Transmit_IT
C:\Users\gyoku\AppData\Local\Temp\ccFqN08K.s:3238   .text.HAL_I2C_Slave_Sequential_Transmit_IT:000000000000008c $d
C:\Users\gyoku\AppData\Local\Temp\ccFqN08K.s:3241   .text.HAL_I2C_Slave_Sequential_Receive_IT:0000000000000000 $t
C:\Users\gyoku\AppData\Local\Temp\ccFqN08K.s:3248   .text.HAL_I2C_Slave_Sequential_Receive_IT:0000000000000000 HAL_I2C_Slave_Sequential_Receive_IT
C:\Users\gyoku\AppData\Local\Temp\ccFqN08K.s:3315   .text.HAL_I2C_Slave_Sequential_Receive_IT:000000000000008c $d
ARM GAS  C:\Users\gyoku\AppData\Local\Temp\ccFqN08K.s 			page 84


C:\Users\gyoku\AppData\Local\Temp\ccFqN08K.s:3318   .text.HAL_I2C_EnableListen_IT:0000000000000000 $t
C:\Users\gyoku\AppData\Local\Temp\ccFqN08K.s:3325   .text.HAL_I2C_EnableListen_IT:0000000000000000 HAL_I2C_EnableListen_IT
C:\Users\gyoku\AppData\Local\Temp\ccFqN08K.s:3347   .text.HAL_I2C_EnableListen_IT:0000000000000024 $d
C:\Users\gyoku\AppData\Local\Temp\ccFqN08K.s:3350   .text.HAL_I2C_DisableListen_IT:0000000000000000 $t
C:\Users\gyoku\AppData\Local\Temp\ccFqN08K.s:3357   .text.HAL_I2C_DisableListen_IT:0000000000000000 HAL_I2C_DisableListen_IT
C:\Users\gyoku\AppData\Local\Temp\ccFqN08K.s:3384   .text.HAL_I2C_Master_Abort_IT:0000000000000000 $t
C:\Users\gyoku\AppData\Local\Temp\ccFqN08K.s:3391   .text.HAL_I2C_Master_Abort_IT:0000000000000000 HAL_I2C_Master_Abort_IT
C:\Users\gyoku\AppData\Local\Temp\ccFqN08K.s:3438   .text.HAL_I2C_Master_Abort_IT:0000000000000060 $d
C:\Users\gyoku\AppData\Local\Temp\ccFqN08K.s:3441   .text.HAL_I2C_EV_IRQHandler:0000000000000000 $t
C:\Users\gyoku\AppData\Local\Temp\ccFqN08K.s:3448   .text.HAL_I2C_EV_IRQHandler:0000000000000000 HAL_I2C_EV_IRQHandler
C:\Users\gyoku\AppData\Local\Temp\ccFqN08K.s:3462   .text.HAL_I2C_MasterTxCpltCallback:0000000000000000 $t
C:\Users\gyoku\AppData\Local\Temp\ccFqN08K.s:3469   .text.HAL_I2C_MasterTxCpltCallback:0000000000000000 HAL_I2C_MasterTxCpltCallback
C:\Users\gyoku\AppData\Local\Temp\ccFqN08K.s:3476   .text.HAL_I2C_MasterRxCpltCallback:0000000000000000 $t
C:\Users\gyoku\AppData\Local\Temp\ccFqN08K.s:3483   .text.HAL_I2C_MasterRxCpltCallback:0000000000000000 HAL_I2C_MasterRxCpltCallback
C:\Users\gyoku\AppData\Local\Temp\ccFqN08K.s:3490   .text.I2C_ITMasterSequentialCplt:0000000000000000 $t
C:\Users\gyoku\AppData\Local\Temp\ccFqN08K.s:3496   .text.I2C_ITMasterSequentialCplt:0000000000000000 I2C_ITMasterSequentialCplt
C:\Users\gyoku\AppData\Local\Temp\ccFqN08K.s:3530   .text.HAL_I2C_SlaveTxCpltCallback:0000000000000000 $t
C:\Users\gyoku\AppData\Local\Temp\ccFqN08K.s:3537   .text.HAL_I2C_SlaveTxCpltCallback:0000000000000000 HAL_I2C_SlaveTxCpltCallback
C:\Users\gyoku\AppData\Local\Temp\ccFqN08K.s:3544   .text.HAL_I2C_SlaveRxCpltCallback:0000000000000000 $t
C:\Users\gyoku\AppData\Local\Temp\ccFqN08K.s:3551   .text.HAL_I2C_SlaveRxCpltCallback:0000000000000000 HAL_I2C_SlaveRxCpltCallback
C:\Users\gyoku\AppData\Local\Temp\ccFqN08K.s:3558   .text.I2C_ITSlaveSequentialCplt:0000000000000000 $t
C:\Users\gyoku\AppData\Local\Temp\ccFqN08K.s:3564   .text.I2C_ITSlaveSequentialCplt:0000000000000000 I2C_ITSlaveSequentialCplt
C:\Users\gyoku\AppData\Local\Temp\ccFqN08K.s:3601   .text.HAL_I2C_AddrCallback:0000000000000000 $t
C:\Users\gyoku\AppData\Local\Temp\ccFqN08K.s:3608   .text.HAL_I2C_AddrCallback:0000000000000000 HAL_I2C_AddrCallback
C:\Users\gyoku\AppData\Local\Temp\ccFqN08K.s:3615   .text.HAL_I2C_ListenCpltCallback:0000000000000000 $t
C:\Users\gyoku\AppData\Local\Temp\ccFqN08K.s:3622   .text.HAL_I2C_ListenCpltCallback:0000000000000000 HAL_I2C_ListenCpltCallback
C:\Users\gyoku\AppData\Local\Temp\ccFqN08K.s:3629   .text.I2C_ITListenCplt:0000000000000000 $t
C:\Users\gyoku\AppData\Local\Temp\ccFqN08K.s:3635   .text.I2C_ITListenCplt:0000000000000000 I2C_ITListenCplt
C:\Users\gyoku\AppData\Local\Temp\ccFqN08K.s:3682   .text.I2C_ITListenCplt:000000000000005c $d
C:\Users\gyoku\AppData\Local\Temp\ccFqN08K.s:3685   .text.HAL_I2C_MemTxCpltCallback:0000000000000000 $t
C:\Users\gyoku\AppData\Local\Temp\ccFqN08K.s:3692   .text.HAL_I2C_MemTxCpltCallback:0000000000000000 HAL_I2C_MemTxCpltCallback
C:\Users\gyoku\AppData\Local\Temp\ccFqN08K.s:3699   .text.HAL_I2C_MemRxCpltCallback:0000000000000000 $t
C:\Users\gyoku\AppData\Local\Temp\ccFqN08K.s:3706   .text.HAL_I2C_MemRxCpltCallback:0000000000000000 HAL_I2C_MemRxCpltCallback
C:\Users\gyoku\AppData\Local\Temp\ccFqN08K.s:3713   .text.HAL_I2C_ErrorCallback:0000000000000000 $t
C:\Users\gyoku\AppData\Local\Temp\ccFqN08K.s:3720   .text.HAL_I2C_ErrorCallback:0000000000000000 HAL_I2C_ErrorCallback
C:\Users\gyoku\AppData\Local\Temp\ccFqN08K.s:3727   .text.HAL_I2C_AbortCpltCallback:0000000000000000 $t
C:\Users\gyoku\AppData\Local\Temp\ccFqN08K.s:3734   .text.HAL_I2C_AbortCpltCallback:0000000000000000 HAL_I2C_AbortCpltCallback
C:\Users\gyoku\AppData\Local\Temp\ccFqN08K.s:3741   .text.I2C_ITError:0000000000000000 $t
C:\Users\gyoku\AppData\Local\Temp\ccFqN08K.s:3747   .text.I2C_ITError:0000000000000000 I2C_ITError
C:\Users\gyoku\AppData\Local\Temp\ccFqN08K.s:3843   .text.I2C_ITError:00000000000000d4 $d
C:\Users\gyoku\AppData\Local\Temp\ccFqN08K.s:4656   .text.I2C_DMAAbort:0000000000000000 I2C_DMAAbort
C:\Users\gyoku\AppData\Local\Temp\ccFqN08K.s:3848   .text.I2C_ITSlaveCplt:0000000000000000 $t
C:\Users\gyoku\AppData\Local\Temp\ccFqN08K.s:3854   .text.I2C_ITSlaveCplt:0000000000000000 I2C_ITSlaveCplt
C:\Users\gyoku\AppData\Local\Temp\ccFqN08K.s:3968   .text.I2C_ITSlaveCplt:00000000000000fc $d
C:\Users\gyoku\AppData\Local\Temp\ccFqN08K.s:3971   .text.I2C_Slave_ISR_IT:0000000000000000 $t
C:\Users\gyoku\AppData\Local\Temp\ccFqN08K.s:4176   .text.I2C_Slave_ISR_DMA:0000000000000000 $t
C:\Users\gyoku\AppData\Local\Temp\ccFqN08K.s:4241   .text.I2C_ITMasterCplt:0000000000000000 $t
C:\Users\gyoku\AppData\Local\Temp\ccFqN08K.s:4247   .text.I2C_ITMasterCplt:0000000000000000 I2C_ITMasterCplt
C:\Users\gyoku\AppData\Local\Temp\ccFqN08K.s:4325   .text.I2C_Master_ISR_IT:0000000000000000 $t
C:\Users\gyoku\AppData\Local\Temp\ccFqN08K.s:4477   .text.I2C_Master_ISR_DMA:0000000000000000 $t
C:\Users\gyoku\AppData\Local\Temp\ccFqN08K.s:4575   .text.I2C_DMAError:0000000000000000 $t
C:\Users\gyoku\AppData\Local\Temp\ccFqN08K.s:4594   .text.HAL_I2C_ER_IRQHandler:0000000000000000 $t
C:\Users\gyoku\AppData\Local\Temp\ccFqN08K.s:4601   .text.HAL_I2C_ER_IRQHandler:0000000000000000 HAL_I2C_ER_IRQHandler
C:\Users\gyoku\AppData\Local\Temp\ccFqN08K.s:4650   .text.I2C_DMAAbort:0000000000000000 $t
C:\Users\gyoku\AppData\Local\Temp\ccFqN08K.s:4683   .text.HAL_I2C_GetState:0000000000000000 $t
C:\Users\gyoku\AppData\Local\Temp\ccFqN08K.s:4690   .text.HAL_I2C_GetState:0000000000000000 HAL_I2C_GetState
C:\Users\gyoku\AppData\Local\Temp\ccFqN08K.s:4698   .text.HAL_I2C_GetMode:0000000000000000 $t
ARM GAS  C:\Users\gyoku\AppData\Local\Temp\ccFqN08K.s 			page 85


C:\Users\gyoku\AppData\Local\Temp\ccFqN08K.s:4705   .text.HAL_I2C_GetMode:0000000000000000 HAL_I2C_GetMode
C:\Users\gyoku\AppData\Local\Temp\ccFqN08K.s:4713   .text.HAL_I2C_GetError:0000000000000000 $t
C:\Users\gyoku\AppData\Local\Temp\ccFqN08K.s:4720   .text.HAL_I2C_GetError:0000000000000000 HAL_I2C_GetError

UNDEFINED SYMBOLS
HAL_GetTick
HAL_DMA_Start_IT
HAL_DMA_Abort_IT
