ARM GAS  C:\Users\q-bir\AppData\Local\Temp\ccHlEycP.s 			page 1


   1              		.cpu cortex-m4
   2              		.eabi_attribute 27, 1
   3              		.eabi_attribute 28, 1
   4              		.eabi_attribute 20, 1
   5              		.eabi_attribute 21, 1
   6              		.eabi_attribute 23, 3
   7              		.eabi_attribute 24, 1
   8              		.eabi_attribute 25, 1
   9              		.eabi_attribute 26, 1
  10              		.eabi_attribute 30, 4
  11              		.eabi_attribute 34, 1
  12              		.eabi_attribute 18, 4
  13              		.file	"stm32f3xx_hal_flash_ex.c"
  14              		.text
  15              		.section	.text.FLASH_MassErase,"ax",%progbits
  16              		.align	1
  17              		.arch armv7e-m
  18              		.syntax unified
  19              		.thumb
  20              		.thumb_func
  21              		.fpu fpv4-sp-d16
  23              	FLASH_MassErase:
  24              		@ args = 0, pretend = 0, frame = 0
  25              		@ frame_needed = 0, uses_anonymous_args = 0
  26              		@ link register save eliminated.
  27 0000 064B     		ldr	r3, .L2
  28 0002 0022     		movs	r2, #0
  29 0004 DA61     		str	r2, [r3, #28]
  30 0006 064B     		ldr	r3, .L2+4
  31 0008 1A69     		ldr	r2, [r3, #16]
  32 000a 42F00402 		orr	r2, r2, #4
  33 000e 1A61     		str	r2, [r3, #16]
  34 0010 1A69     		ldr	r2, [r3, #16]
  35 0012 42F04002 		orr	r2, r2, #64
  36 0016 1A61     		str	r2, [r3, #16]
  37 0018 7047     		bx	lr
  38              	.L3:
  39 001a 00BF     		.align	2
  40              	.L2:
  41 001c 00000000 		.word	pFlash
  42 0020 00200240 		.word	1073881088
  44              		.section	.text.FLASH_OB_RDP_LevelConfig,"ax",%progbits
  45              		.align	1
  46              		.syntax unified
  47              		.thumb
  48              		.thumb_func
  49              		.fpu fpv4-sp-d16
  51              	FLASH_OB_RDP_LevelConfig:
  52              		@ args = 0, pretend = 0, frame = 0
  53              		@ frame_needed = 0, uses_anonymous_args = 0
  54 0000 38B5     		push	{r3, r4, r5, lr}
  55 0002 0546     		mov	r5, r0
  56 0004 4CF25030 		movw	r0, #50000
  57 0008 FFF7FEFF 		bl	FLASH_WaitForLastOperation
  58 000c 10BB     		cbnz	r0, .L5
  59 000e 124B     		ldr	r3, .L6
  60 0010 124C     		ldr	r4, .L6+4
ARM GAS  C:\Users\q-bir\AppData\Local\Temp\ccHlEycP.s 			page 2


  61 0012 D861     		str	r0, [r3, #28]
  62 0014 2369     		ldr	r3, [r4, #16]
  63 0016 43F02003 		orr	r3, r3, #32
  64 001a 2361     		str	r3, [r4, #16]
  65 001c 2369     		ldr	r3, [r4, #16]
  66 001e 43F04003 		orr	r3, r3, #64
  67 0022 2361     		str	r3, [r4, #16]
  68 0024 4CF25030 		movw	r0, #50000
  69 0028 FFF7FEFF 		bl	FLASH_WaitForLastOperation
  70 002c 2369     		ldr	r3, [r4, #16]
  71 002e 23F02003 		bic	r3, r3, #32
  72 0032 2361     		str	r3, [r4, #16]
  73 0034 70B9     		cbnz	r0, .L5
  74 0036 2369     		ldr	r3, [r4, #16]
  75 0038 43F01003 		orr	r3, r3, #16
  76 003c 2361     		str	r3, [r4, #16]
  77 003e 084B     		ldr	r3, .L6+8
  78 0040 ADB2     		uxth	r5, r5
  79 0042 1D80     		strh	r5, [r3]	@ movhi
  80 0044 4CF25030 		movw	r0, #50000
  81 0048 FFF7FEFF 		bl	FLASH_WaitForLastOperation
  82 004c 2369     		ldr	r3, [r4, #16]
  83 004e 23F01003 		bic	r3, r3, #16
  84 0052 2361     		str	r3, [r4, #16]
  85              	.L5:
  86 0054 38BD     		pop	{r3, r4, r5, pc}
  87              	.L7:
  88 0056 00BF     		.align	2
  89              	.L6:
  90 0058 00000000 		.word	pFlash
  91 005c 00200240 		.word	1073881088
  92 0060 00F8FF1F 		.word	536868864
  94              		.section	.text.HAL_FLASHEx_OBErase,"ax",%progbits
  95              		.align	1
  96              		.global	HAL_FLASHEx_OBErase
  97              		.syntax unified
  98              		.thumb
  99              		.thumb_func
 100              		.fpu fpv4-sp-d16
 102              	HAL_FLASHEx_OBErase:
 103              		@ args = 0, pretend = 0, frame = 0
 104              		@ frame_needed = 0, uses_anonymous_args = 0
 105 0000 38B5     		push	{r3, r4, r5, lr}
 106 0002 154B     		ldr	r3, .L13
 107 0004 DB69     		ldr	r3, [r3, #28]
 108 0006 03F00603 		and	r3, r3, #6
 109 000a 022B     		cmp	r3, #2
 110 000c 21D0     		beq	.L11
 111 000e 062B     		cmp	r3, #6
 112 0010 0CBF     		ite	eq
 113 0012 CC25     		moveq	r5, #204
 114 0014 AA25     		movne	r5, #170
 115              	.L9:
 116 0016 4CF25030 		movw	r0, #50000
 117 001a FFF7FEFF 		bl	FLASH_WaitForLastOperation
 118 001e D0B9     		cbnz	r0, .L10
 119 0020 0E4A     		ldr	r2, .L13+4
ARM GAS  C:\Users\q-bir\AppData\Local\Temp\ccHlEycP.s 			page 3


 120 0022 0D4C     		ldr	r4, .L13
 121 0024 D061     		str	r0, [r2, #28]
 122 0026 2369     		ldr	r3, [r4, #16]
 123 0028 43F02003 		orr	r3, r3, #32
 124 002c 2361     		str	r3, [r4, #16]
 125 002e 2369     		ldr	r3, [r4, #16]
 126 0030 43F04003 		orr	r3, r3, #64
 127 0034 2361     		str	r3, [r4, #16]
 128 0036 4CF25030 		movw	r0, #50000
 129 003a FFF7FEFF 		bl	FLASH_WaitForLastOperation
 130 003e 2369     		ldr	r3, [r4, #16]
 131 0040 23F02003 		bic	r3, r3, #32
 132 0044 2361     		str	r3, [r4, #16]
 133 0046 30B9     		cbnz	r0, .L10
 134 0048 2846     		mov	r0, r5
 135 004a BDE83840 		pop	{r3, r4, r5, lr}
 136 004e FFF7FEBF 		b	FLASH_OB_RDP_LevelConfig
 137              	.L11:
 138 0052 BB25     		movs	r5, #187
 139 0054 DFE7     		b	.L9
 140              	.L10:
 141 0056 38BD     		pop	{r3, r4, r5, pc}
 142              	.L14:
 143              		.align	2
 144              	.L13:
 145 0058 00200240 		.word	1073881088
 146 005c 00000000 		.word	pFlash
 148              		.section	.text.HAL_FLASHEx_OBProgram,"ax",%progbits
 149              		.align	1
 150              		.global	HAL_FLASHEx_OBProgram
 151              		.syntax unified
 152              		.thumb
 153              		.thumb_func
 154              		.fpu fpv4-sp-d16
 156              	HAL_FLASHEx_OBProgram:
 157              		@ args = 0, pretend = 0, frame = 0
 158              		@ frame_needed = 0, uses_anonymous_args = 0
 159 0000 2DE9F843 		push	{r3, r4, r5, r6, r7, r8, r9, lr}
 160 0004 634D     		ldr	r5, .L66
 161 0006 2B7E     		ldrb	r3, [r5, #24]	@ zero_extendqisi2
 162 0008 012B     		cmp	r3, #1
 163 000a 0646     		mov	r6, r0
 164 000c 00F0BF80 		beq	.L34
 165 0010 0120     		movs	r0, #1
 166 0012 2876     		strb	r0, [r5, #24]
 167 0014 3368     		ldr	r3, [r6]
 168 0016 DC07     		lsls	r4, r3, #31
 169 0018 6DD5     		bpl	.L35
 170 001a D6E90137 		ldrd	r3, r7, [r6, #4]
 171 001e DFF87C81 		ldr	r8, .L66+8
 172 0022 8342     		cmp	r3, r0
 173 0024 D8F82090 		ldr	r9, [r8, #32]
 174 0028 4CF25030 		movw	r0, #50000
 175 002c 37D1     		bne	.L18
 176 002e FFF7FEFF 		bl	FLASH_WaitForLastOperation
 177 0032 0446     		mov	r4, r0
 178 0034 70BB     		cbnz	r0, .L32
ARM GAS  C:\Users\q-bir\AppData\Local\Temp\ccHlEycP.s 			page 4


 179 0036 E861     		str	r0, [r5, #28]
 180 0038 FFF7FEFF 		bl	HAL_FLASHEx_OBErase
 181 003c 0446     		mov	r4, r0
 182 003e 48BB     		cbnz	r0, .L32
 183 0040 D8F81020 		ldr	r2, [r8, #16]
 184 0044 29EA0707 		bic	r7, r9, r7
 185 0048 FBB2     		uxtb	r3, r7
 186 004a 42F01002 		orr	r2, r2, #16
 187 004e FF2B     		cmp	r3, #255
 188 0050 C8F81020 		str	r2, [r8, #16]
 189 0054 0CD1     		bne	.L20
 190              	.L23:
 191 0056 C7F30727 		ubfx	r7, r7, #8, #8
 192 005a FF2F     		cmp	r7, #255
 193 005c 13D0     		beq	.L27
 194 005e 4E4B     		ldr	r3, .L66+4
 195 0060 5A89     		ldrh	r2, [r3, #10]
 196 0062 1740     		ands	r7, r7, r2
 197 0064 5F81     		strh	r7, [r3, #10]	@ movhi
 198              	.L65:
 199 0066 4CF25030 		movw	r0, #50000
 200 006a FFF7FEFF 		bl	FLASH_WaitForLastOperation
 201 006e 09E0     		b	.L64
 202              	.L20:
 203 0070 494A     		ldr	r2, .L66+4
 204 0072 1189     		ldrh	r1, [r2, #8]
 205 0074 0B40     		ands	r3, r3, r1
 206 0076 1381     		strh	r3, [r2, #8]	@ movhi
 207 0078 4CF25030 		movw	r0, #50000
 208 007c FFF7FEFF 		bl	FLASH_WaitForLastOperation
 209 0080 0028     		cmp	r0, #0
 210 0082 E8D0     		beq	.L23
 211              	.L64:
 212 0084 0446     		mov	r4, r0
 213              	.L27:
 214 0086 454A     		ldr	r2, .L66+8
 215 0088 1369     		ldr	r3, [r2, #16]
 216 008a 23F01003 		bic	r3, r3, #16
 217 008e 1361     		str	r3, [r2, #16]
 218 0090 002C     		cmp	r4, #0
 219 0092 31D0     		beq	.L17
 220              	.L32:
 221 0094 0023     		movs	r3, #0
 222 0096 2B76     		strb	r3, [r5, #24]
 223              	.L16:
 224 0098 2046     		mov	r0, r4
 225 009a BDE8F883 		pop	{r3, r4, r5, r6, r7, r8, r9, pc}
 226              	.L18:
 227 009e FFF7FEFF 		bl	FLASH_WaitForLastOperation
 228 00a2 0446     		mov	r4, r0
 229 00a4 0028     		cmp	r0, #0
 230 00a6 F5D1     		bne	.L32
 231 00a8 E861     		str	r0, [r5, #28]
 232 00aa FFF7FEFF 		bl	HAL_FLASHEx_OBErase
 233 00ae 0446     		mov	r4, r0
 234 00b0 0028     		cmp	r0, #0
 235 00b2 EFD1     		bne	.L32
ARM GAS  C:\Users\q-bir\AppData\Local\Temp\ccHlEycP.s 			page 5


 236 00b4 D8F81020 		ldr	r2, [r8, #16]
 237 00b8 49EA0707 		orr	r7, r9, r7
 238 00bc FBB2     		uxtb	r3, r7
 239 00be 42F01002 		orr	r2, r2, #16
 240 00c2 FF2B     		cmp	r3, #255
 241 00c4 C8F81020 		str	r2, [r8, #16]
 242 00c8 09D1     		bne	.L25
 243              	.L28:
 244 00ca C7F30727 		ubfx	r7, r7, #8, #8
 245 00ce FF2F     		cmp	r7, #255
 246 00d0 D9D0     		beq	.L27
 247 00d2 314A     		ldr	r2, .L66+4
 248 00d4 5389     		ldrh	r3, [r2, #10]
 249 00d6 9BB2     		uxth	r3, r3
 250 00d8 1F43     		orrs	r7, r7, r3
 251 00da 5781     		strh	r7, [r2, #10]	@ movhi
 252 00dc C3E7     		b	.L65
 253              	.L25:
 254 00de 2E49     		ldr	r1, .L66+4
 255 00e0 0A89     		ldrh	r2, [r1, #8]
 256 00e2 92B2     		uxth	r2, r2
 257 00e4 1343     		orrs	r3, r3, r2
 258 00e6 0B81     		strh	r3, [r1, #8]	@ movhi
 259 00e8 4CF25030 		movw	r0, #50000
 260 00ec FFF7FEFF 		bl	FLASH_WaitForLastOperation
 261 00f0 0028     		cmp	r0, #0
 262 00f2 C7D1     		bne	.L64
 263 00f4 E9E7     		b	.L28
 264              	.L35:
 265 00f6 0446     		mov	r4, r0
 266              	.L17:
 267 00f8 3368     		ldr	r3, [r6]
 268 00fa 9907     		lsls	r1, r3, #30
 269 00fc 05D5     		bpl	.L29
 270 00fe 307B     		ldrb	r0, [r6, #12]	@ zero_extendqisi2
 271 0100 FFF7FEFF 		bl	FLASH_OB_RDP_LevelConfig
 272 0104 0446     		mov	r4, r0
 273 0106 0028     		cmp	r0, #0
 274 0108 C4D1     		bne	.L32
 275              	.L29:
 276 010a 3368     		ldr	r3, [r6]
 277 010c 5A07     		lsls	r2, r3, #29
 278 010e 1ED5     		bpl	.L30
 279 0110 4CF25030 		movw	r0, #50000
 280 0114 96F80D80 		ldrb	r8, [r6, #13]	@ zero_extendqisi2
 281 0118 FFF7FEFF 		bl	FLASH_WaitForLastOperation
 282 011c 0446     		mov	r4, r0
 283 011e 0028     		cmp	r0, #0
 284 0120 B8D1     		bne	.L32
 285 0122 1E4F     		ldr	r7, .L66+8
 286 0124 E861     		str	r0, [r5, #28]
 287 0126 3B69     		ldr	r3, [r7, #16]
 288 0128 43F01003 		orr	r3, r3, #16
 289 012c 3B61     		str	r3, [r7, #16]
 290 012e 1A4B     		ldr	r3, .L66+4
 291 0130 48F08808 		orr	r8, r8, #136
 292 0134 A3F80280 		strh	r8, [r3, #2]	@ movhi
ARM GAS  C:\Users\q-bir\AppData\Local\Temp\ccHlEycP.s 			page 6


 293 0138 4CF25030 		movw	r0, #50000
 294 013c FFF7FEFF 		bl	FLASH_WaitForLastOperation
 295 0140 3B69     		ldr	r3, [r7, #16]
 296 0142 23F01003 		bic	r3, r3, #16
 297 0146 3B61     		str	r3, [r7, #16]
 298 0148 0446     		mov	r4, r0
 299 014a 0028     		cmp	r0, #0
 300 014c A2D1     		bne	.L32
 301              	.L30:
 302 014e 3368     		ldr	r3, [r6]
 303 0150 1B07     		lsls	r3, r3, #28
 304 0152 9FD5     		bpl	.L32
 305 0154 4CF25030 		movw	r0, #50000
 306 0158 D6F81080 		ldr	r8, [r6, #16]
 307 015c 377D     		ldrb	r7, [r6, #20]	@ zero_extendqisi2
 308 015e FFF7FEFF 		bl	FLASH_WaitForLastOperation
 309 0162 0446     		mov	r4, r0
 310 0164 0028     		cmp	r0, #0
 311 0166 95D1     		bne	.L32
 312 0168 0C4E     		ldr	r6, .L66+8
 313 016a E861     		str	r0, [r5, #28]
 314 016c 3369     		ldr	r3, [r6, #16]
 315 016e BFB2     		uxth	r7, r7
 316 0170 43F01003 		orr	r3, r3, #16
 317 0174 3361     		str	r3, [r6, #16]
 318 0176 4CF25030 		movw	r0, #50000
 319 017a A8F80070 		strh	r7, [r8]	@ movhi
 320 017e FFF7FEFF 		bl	FLASH_WaitForLastOperation
 321 0182 3369     		ldr	r3, [r6, #16]
 322 0184 23F01003 		bic	r3, r3, #16
 323 0188 3361     		str	r3, [r6, #16]
 324 018a 0446     		mov	r4, r0
 325 018c 82E7     		b	.L32
 326              	.L34:
 327 018e 0224     		movs	r4, #2
 328 0190 82E7     		b	.L16
 329              	.L67:
 330 0192 00BF     		.align	2
 331              	.L66:
 332 0194 00000000 		.word	pFlash
 333 0198 00F8FF1F 		.word	536868864
 334 019c 00200240 		.word	1073881088
 336              		.section	.text.HAL_FLASHEx_OBGetConfig,"ax",%progbits
 337              		.align	1
 338              		.global	HAL_FLASHEx_OBGetConfig
 339              		.syntax unified
 340              		.thumb
 341              		.thumb_func
 342              		.fpu fpv4-sp-d16
 344              	HAL_FLASHEx_OBGetConfig:
 345              		@ args = 0, pretend = 0, frame = 0
 346              		@ frame_needed = 0, uses_anonymous_args = 0
 347              		@ link register save eliminated.
 348 0000 0723     		movs	r3, #7
 349 0002 0360     		str	r3, [r0]
 350 0004 0D4B     		ldr	r3, .L72
 351 0006 1A6A     		ldr	r2, [r3, #32]
ARM GAS  C:\Users\q-bir\AppData\Local\Temp\ccHlEycP.s 			page 7


 352 0008 8260     		str	r2, [r0, #8]
 353 000a DA69     		ldr	r2, [r3, #28]
 354 000c 02F00602 		and	r2, r2, #6
 355 0010 022A     		cmp	r2, #2
 356 0012 10D0     		beq	.L70
 357 0014 062A     		cmp	r2, #6
 358 0016 0CBF     		ite	eq
 359 0018 CC22     		moveq	r2, #204
 360 001a AA22     		movne	r2, #170
 361              	.L69:
 362 001c 0273     		strb	r2, [r0, #12]
 363 001e DB69     		ldr	r3, [r3, #28]
 364 0020 4FF48072 		mov	r2, #256
 365              		.syntax unified
 366              	@ 531 "Drivers/CMSIS/Include/cmsis_gcc.h" 1
 367 0024 92FAA2F2 		rbit r2, r2
 368              	@ 0 "" 2
 369              		.thumb
 370              		.syntax unified
 371 0028 B2FA82F2 		clz	r2, r2
 372 002c 03F4EE43 		and	r3, r3, #30464
 373 0030 D340     		lsrs	r3, r3, r2
 374 0032 4373     		strb	r3, [r0, #13]
 375 0034 7047     		bx	lr
 376              	.L70:
 377 0036 BB22     		movs	r2, #187
 378 0038 F0E7     		b	.L69
 379              	.L73:
 380 003a 00BF     		.align	2
 381              	.L72:
 382 003c 00200240 		.word	1073881088
 384              		.section	.text.HAL_FLASHEx_OBGetUserData,"ax",%progbits
 385              		.align	1
 386              		.global	HAL_FLASHEx_OBGetUserData
 387              		.syntax unified
 388              		.thumb
 389              		.thumb_func
 390              		.fpu fpv4-sp-d16
 392              	HAL_FLASHEx_OBGetUserData:
 393              		@ args = 0, pretend = 0, frame = 0
 394              		@ frame_needed = 0, uses_anonymous_args = 0
 395              		@ link register save eliminated.
 396 0000 0B4B     		ldr	r3, .L78
 397 0002 9842     		cmp	r0, r3
 398 0004 0B4B     		ldr	r3, .L78+4
 399 0006 D869     		ldr	r0, [r3, #28]
 400 0008 09D1     		bne	.L75
 401 000a 4FF47F03 		mov	r3, #16711680
 402              		.syntax unified
 403              	@ 531 "Drivers/CMSIS/Include/cmsis_gcc.h" 1
 404 000e 93FAA3F3 		rbit r3, r3
 405              	@ 0 "" 2
 406              		.thumb
 407              		.syntax unified
 408 0012 B3FA83F3 		clz	r3, r3
 409 0016 00F47F00 		and	r0, r0, #16711680
 410              	.L77:
ARM GAS  C:\Users\q-bir\AppData\Local\Temp\ccHlEycP.s 			page 8


 411 001a D840     		lsrs	r0, r0, r3
 412 001c 7047     		bx	lr
 413              	.L75:
 414 001e 4FF07F43 		mov	r3, #-16777216
 415              		.syntax unified
 416              	@ 531 "Drivers/CMSIS/Include/cmsis_gcc.h" 1
 417 0022 93FAA3F3 		rbit r3, r3
 418              	@ 0 "" 2
 419              		.thumb
 420              		.syntax unified
 421 0026 B3FA83F3 		clz	r3, r3
 422 002a 00F07F40 		and	r0, r0, #-16777216
 423 002e F4E7     		b	.L77
 424              	.L79:
 425              		.align	2
 426              	.L78:
 427 0030 04F8FF1F 		.word	536868868
 428 0034 00200240 		.word	1073881088
 430              		.section	.text.FLASH_PageErase,"ax",%progbits
 431              		.align	1
 432              		.global	FLASH_PageErase
 433              		.syntax unified
 434              		.thumb
 435              		.thumb_func
 436              		.fpu fpv4-sp-d16
 438              	FLASH_PageErase:
 439              		@ args = 0, pretend = 0, frame = 0
 440              		@ frame_needed = 0, uses_anonymous_args = 0
 441              		@ link register save eliminated.
 442 0000 064B     		ldr	r3, .L81
 443 0002 0022     		movs	r2, #0
 444 0004 DA61     		str	r2, [r3, #28]
 445 0006 064B     		ldr	r3, .L81+4
 446 0008 1A69     		ldr	r2, [r3, #16]
 447 000a 42F00202 		orr	r2, r2, #2
 448 000e 1A61     		str	r2, [r3, #16]
 449 0010 5861     		str	r0, [r3, #20]
 450 0012 1A69     		ldr	r2, [r3, #16]
 451 0014 42F04002 		orr	r2, r2, #64
 452 0018 1A61     		str	r2, [r3, #16]
 453 001a 7047     		bx	lr
 454              	.L82:
 455              		.align	2
 456              	.L81:
 457 001c 00000000 		.word	pFlash
 458 0020 00200240 		.word	1073881088
 460              		.section	.text.HAL_FLASHEx_Erase,"ax",%progbits
 461              		.align	1
 462              		.global	HAL_FLASHEx_Erase
 463              		.syntax unified
 464              		.thumb
 465              		.thumb_func
 466              		.fpu fpv4-sp-d16
 468              	HAL_FLASHEx_Erase:
 469              		@ args = 0, pretend = 0, frame = 0
 470              		@ frame_needed = 0, uses_anonymous_args = 0
 471 0000 2DE9F041 		push	{r4, r5, r6, r7, r8, lr}
ARM GAS  C:\Users\q-bir\AppData\Local\Temp\ccHlEycP.s 			page 9


 472 0004 224E     		ldr	r6, .L93
 473 0006 337E     		ldrb	r3, [r6, #24]	@ zero_extendqisi2
 474 0008 012B     		cmp	r3, #1
 475 000a 0546     		mov	r5, r0
 476 000c 8846     		mov	r8, r1
 477 000e 3DD0     		beq	.L92
 478 0010 0124     		movs	r4, #1
 479 0012 3476     		strb	r4, [r6, #24]
 480 0014 0368     		ldr	r3, [r0]
 481 0016 A342     		cmp	r3, r4
 482 0018 4CF25030 		movw	r0, #50000
 483 001c 13D1     		bne	.L85
 484 001e FFF7FEFF 		bl	FLASH_WaitForLastOperation
 485 0022 20B1     		cbz	r0, .L86
 486              	.L88:
 487 0024 0120     		movs	r0, #1
 488              	.L87:
 489 0026 0023     		movs	r3, #0
 490 0028 3376     		strb	r3, [r6, #24]
 491              	.L84:
 492 002a BDE8F081 		pop	{r4, r5, r6, r7, r8, pc}
 493              	.L86:
 494 002e FFF7FEFF 		bl	FLASH_MassErase
 495 0032 4CF25030 		movw	r0, #50000
 496 0036 FFF7FEFF 		bl	FLASH_WaitForLastOperation
 497 003a 164A     		ldr	r2, .L93+4
 498 003c 1369     		ldr	r3, [r2, #16]
 499 003e 23F00403 		bic	r3, r3, #4
 500 0042 1361     		str	r3, [r2, #16]
 501 0044 EFE7     		b	.L87
 502              	.L85:
 503 0046 FFF7FEFF 		bl	FLASH_WaitForLastOperation
 504 004a 0028     		cmp	r0, #0
 505 004c EAD1     		bne	.L88
 506 004e 4FF0FF33 		mov	r3, #-1
 507 0052 C8F80030 		str	r3, [r8]
 508 0056 2046     		mov	r0, r4
 509 0058 6F68     		ldr	r7, [r5, #4]
 510 005a 0E4C     		ldr	r4, .L93+4
 511              	.L89:
 512 005c D5E90132 		ldrd	r3, r2, [r5, #4]
 513 0060 03EBC223 		add	r3, r3, r2, lsl #11
 514 0064 BB42     		cmp	r3, r7
 515 0066 DED9     		bls	.L87
 516 0068 3846     		mov	r0, r7
 517 006a FFF7FEFF 		bl	FLASH_PageErase
 518 006e 4CF25030 		movw	r0, #50000
 519 0072 FFF7FEFF 		bl	FLASH_WaitForLastOperation
 520 0076 2369     		ldr	r3, [r4, #16]
 521 0078 23F00203 		bic	r3, r3, #2
 522 007c 2361     		str	r3, [r4, #16]
 523 007e 10B1     		cbz	r0, .L90
 524 0080 C8F80070 		str	r7, [r8]
 525 0084 CFE7     		b	.L87
 526              	.L90:
 527 0086 07F50067 		add	r7, r7, #2048
 528 008a E7E7     		b	.L89
ARM GAS  C:\Users\q-bir\AppData\Local\Temp\ccHlEycP.s 			page 10


 529              	.L92:
 530 008c 0220     		movs	r0, #2
 531 008e CCE7     		b	.L84
 532              	.L94:
 533              		.align	2
 534              	.L93:
 535 0090 00000000 		.word	pFlash
 536 0094 00200240 		.word	1073881088
 538              		.section	.text.HAL_FLASHEx_Erase_IT,"ax",%progbits
 539              		.align	1
 540              		.global	HAL_FLASHEx_Erase_IT
 541              		.syntax unified
 542              		.thumb
 543              		.thumb_func
 544              		.fpu fpv4-sp-d16
 546              	HAL_FLASHEx_Erase_IT:
 547              		@ args = 0, pretend = 0, frame = 0
 548              		@ frame_needed = 0, uses_anonymous_args = 0
 549 0000 38B5     		push	{r3, r4, r5, lr}
 550 0002 124B     		ldr	r3, .L100
 551 0004 1A7E     		ldrb	r2, [r3, #24]	@ zero_extendqisi2
 552 0006 012A     		cmp	r2, #1
 553 0008 1BD0     		beq	.L98
 554 000a 1C78     		ldrb	r4, [r3]	@ zero_extendqisi2
 555 000c 0122     		movs	r2, #1
 556 000e 1A76     		strb	r2, [r3, #24]
 557 0010 04F0FF01 		and	r1, r4, #255
 558 0014 BCB9     		cbnz	r4, .L99
 559 0016 0E4D     		ldr	r5, .L100+4
 560 0018 2C69     		ldr	r4, [r5, #16]
 561 001a 44F4A054 		orr	r4, r4, #5120
 562 001e 2C61     		str	r4, [r5, #16]
 563 0020 0468     		ldr	r4, [r0]
 564 0022 9442     		cmp	r4, r2
 565 0024 05D1     		bne	.L97
 566 0026 0222     		movs	r2, #2
 567 0028 1A70     		strb	r2, [r3]
 568 002a FFF7FEFF 		bl	FLASH_MassErase
 569              	.L96:
 570 002e 0846     		mov	r0, r1
 571 0030 38BD     		pop	{r3, r4, r5, pc}
 572              	.L97:
 573 0032 1A70     		strb	r2, [r3]
 574 0034 8268     		ldr	r2, [r0, #8]
 575 0036 4068     		ldr	r0, [r0, #4]
 576 0038 5A60     		str	r2, [r3, #4]
 577 003a 9860     		str	r0, [r3, #8]
 578 003c FFF7FEFF 		bl	FLASH_PageErase
 579 0040 F5E7     		b	.L96
 580              	.L98:
 581 0042 0221     		movs	r1, #2
 582 0044 F3E7     		b	.L96
 583              	.L99:
 584 0046 1146     		mov	r1, r2
 585 0048 F1E7     		b	.L96
 586              	.L101:
 587 004a 00BF     		.align	2
ARM GAS  C:\Users\q-bir\AppData\Local\Temp\ccHlEycP.s 			page 11


 588              	.L100:
 589 004c 00000000 		.word	pFlash
 590 0050 00200240 		.word	1073881088
 592              		.ident	"GCC: (GNU Arm Embedded Toolchain 9-2020-q2-update) 9.3.1 20200408 (release)"
ARM GAS  C:\Users\q-bir\AppData\Local\Temp\ccHlEycP.s 			page 12


DEFINED SYMBOLS
                            *ABS*:00000000 stm32f3xx_hal_flash_ex.c
C:\Users\q-bir\AppData\Local\Temp\ccHlEycP.s:16     .text.FLASH_MassErase:00000000 $t
C:\Users\q-bir\AppData\Local\Temp\ccHlEycP.s:23     .text.FLASH_MassErase:00000000 FLASH_MassErase
C:\Users\q-bir\AppData\Local\Temp\ccHlEycP.s:41     .text.FLASH_MassErase:0000001c $d
C:\Users\q-bir\AppData\Local\Temp\ccHlEycP.s:45     .text.FLASH_OB_RDP_LevelConfig:00000000 $t
C:\Users\q-bir\AppData\Local\Temp\ccHlEycP.s:51     .text.FLASH_OB_RDP_LevelConfig:00000000 FLASH_OB_RDP_LevelConfig
C:\Users\q-bir\AppData\Local\Temp\ccHlEycP.s:90     .text.FLASH_OB_RDP_LevelConfig:00000058 $d
C:\Users\q-bir\AppData\Local\Temp\ccHlEycP.s:95     .text.HAL_FLASHEx_OBErase:00000000 $t
C:\Users\q-bir\AppData\Local\Temp\ccHlEycP.s:102    .text.HAL_FLASHEx_OBErase:00000000 HAL_FLASHEx_OBErase
C:\Users\q-bir\AppData\Local\Temp\ccHlEycP.s:145    .text.HAL_FLASHEx_OBErase:00000058 $d
C:\Users\q-bir\AppData\Local\Temp\ccHlEycP.s:149    .text.HAL_FLASHEx_OBProgram:00000000 $t
C:\Users\q-bir\AppData\Local\Temp\ccHlEycP.s:156    .text.HAL_FLASHEx_OBProgram:00000000 HAL_FLASHEx_OBProgram
C:\Users\q-bir\AppData\Local\Temp\ccHlEycP.s:332    .text.HAL_FLASHEx_OBProgram:00000194 $d
C:\Users\q-bir\AppData\Local\Temp\ccHlEycP.s:337    .text.HAL_FLASHEx_OBGetConfig:00000000 $t
C:\Users\q-bir\AppData\Local\Temp\ccHlEycP.s:344    .text.HAL_FLASHEx_OBGetConfig:00000000 HAL_FLASHEx_OBGetConfig
C:\Users\q-bir\AppData\Local\Temp\ccHlEycP.s:382    .text.HAL_FLASHEx_OBGetConfig:0000003c $d
C:\Users\q-bir\AppData\Local\Temp\ccHlEycP.s:385    .text.HAL_FLASHEx_OBGetUserData:00000000 $t
C:\Users\q-bir\AppData\Local\Temp\ccHlEycP.s:392    .text.HAL_FLASHEx_OBGetUserData:00000000 HAL_FLASHEx_OBGetUserData
C:\Users\q-bir\AppData\Local\Temp\ccHlEycP.s:427    .text.HAL_FLASHEx_OBGetUserData:00000030 $d
C:\Users\q-bir\AppData\Local\Temp\ccHlEycP.s:431    .text.FLASH_PageErase:00000000 $t
C:\Users\q-bir\AppData\Local\Temp\ccHlEycP.s:438    .text.FLASH_PageErase:00000000 FLASH_PageErase
C:\Users\q-bir\AppData\Local\Temp\ccHlEycP.s:457    .text.FLASH_PageErase:0000001c $d
C:\Users\q-bir\AppData\Local\Temp\ccHlEycP.s:461    .text.HAL_FLASHEx_Erase:00000000 $t
C:\Users\q-bir\AppData\Local\Temp\ccHlEycP.s:468    .text.HAL_FLASHEx_Erase:00000000 HAL_FLASHEx_Erase
C:\Users\q-bir\AppData\Local\Temp\ccHlEycP.s:535    .text.HAL_FLASHEx_Erase:00000090 $d
C:\Users\q-bir\AppData\Local\Temp\ccHlEycP.s:539    .text.HAL_FLASHEx_Erase_IT:00000000 $t
C:\Users\q-bir\AppData\Local\Temp\ccHlEycP.s:546    .text.HAL_FLASHEx_Erase_IT:00000000 HAL_FLASHEx_Erase_IT
C:\Users\q-bir\AppData\Local\Temp\ccHlEycP.s:589    .text.HAL_FLASHEx_Erase_IT:0000004c $d

UNDEFINED SYMBOLS
pFlash
FLASH_WaitForLastOperation
