ARM GAS  C:\Users\gyoku\AppData\Local\Temp\ccZSyI4n.s 			page 1


   1              		.cpu cortex-m4
   2              		.eabi_attribute 27, 1
   3              		.eabi_attribute 28, 1
   4              		.eabi_attribute 20, 1
   5              		.eabi_attribute 21, 1
   6              		.eabi_attribute 23, 3
   7              		.eabi_attribute 24, 1
   8              		.eabi_attribute 25, 1
   9              		.eabi_attribute 26, 1
  10              		.eabi_attribute 30, 4
  11              		.eabi_attribute 34, 1
  12              		.eabi_attribute 18, 4
  13              		.file	"stm32f3xx_hal_flash_ex.c"
  14              		.text
  15              		.section	.text.FLASH_MassErase,"ax",%progbits
  16              		.align	1
  17              		.arch armv7e-m
  18              		.syntax unified
  19              		.thumb
  20              		.thumb_func
  21              		.fpu fpv4-sp-d16
  23              	FLASH_MassErase:
  24              		@ args = 0, pretend = 0, frame = 0
  25              		@ frame_needed = 0, uses_anonymous_args = 0
  26              		@ link register save eliminated.
  27 0000 064B     		ldr	r3, .L2
  28 0002 0022     		movs	r2, #0
  29 0004 DA61     		str	r2, [r3, #28]
  30 0006 064B     		ldr	r3, .L2+4
  31 0008 1A69     		ldr	r2, [r3, #16]
  32 000a 42F00402 		orr	r2, r2, #4
  33 000e 1A61     		str	r2, [r3, #16]
  34 0010 1A69     		ldr	r2, [r3, #16]
  35 0012 42F04002 		orr	r2, r2, #64
  36 0016 1A61     		str	r2, [r3, #16]
  37 0018 7047     		bx	lr
  38              	.L3:
  39 001a 00BF     		.align	2
  40              	.L2:
  41 001c 00000000 		.word	pFlash
  42 0020 00200240 		.word	1073881088
  44              		.section	.text.FLASH_OB_RDP_LevelConfig,"ax",%progbits
  45              		.align	1
  46              		.syntax unified
  47              		.thumb
  48              		.thumb_func
  49              		.fpu fpv4-sp-d16
  51              	FLASH_OB_RDP_LevelConfig:
  52              		@ args = 0, pretend = 0, frame = 0
  53              		@ frame_needed = 0, uses_anonymous_args = 0
  54 0000 38B5     		push	{r3, r4, r5, lr}
  55 0002 0546     		mov	r5, r0
  56 0004 4CF25030 		movw	r0, #50000
  57 0008 FFF7FEFF 		bl	FLASH_WaitForLastOperation
  58 000c 10BB     		cbnz	r0, .L5
  59 000e 124B     		ldr	r3, .L6
  60 0010 124C     		ldr	r4, .L6+4
ARM GAS  C:\Users\gyoku\AppData\Local\Temp\ccZSyI4n.s 			page 2


  61 0012 D861     		str	r0, [r3, #28]
  62 0014 2369     		ldr	r3, [r4, #16]
  63 0016 43F02003 		orr	r3, r3, #32
  64 001a 2361     		str	r3, [r4, #16]
  65 001c 2369     		ldr	r3, [r4, #16]
  66 001e 43F04003 		orr	r3, r3, #64
  67 0022 2361     		str	r3, [r4, #16]
  68 0024 4CF25030 		movw	r0, #50000
  69 0028 FFF7FEFF 		bl	FLASH_WaitForLastOperation
  70 002c 2369     		ldr	r3, [r4, #16]
  71 002e 23F02003 		bic	r3, r3, #32
  72 0032 2361     		str	r3, [r4, #16]
  73 0034 70B9     		cbnz	r0, .L5
  74 0036 2369     		ldr	r3, [r4, #16]
  75 0038 43F01003 		orr	r3, r3, #16
  76 003c 2361     		str	r3, [r4, #16]
  77 003e 084B     		ldr	r3, .L6+8
  78 0040 ADB2     		uxth	r5, r5
  79 0042 1D80     		strh	r5, [r3]	@ movhi
  80 0044 4CF25030 		movw	r0, #50000
  81 0048 FFF7FEFF 		bl	FLASH_WaitForLastOperation
  82 004c 2369     		ldr	r3, [r4, #16]
  83 004e 23F01003 		bic	r3, r3, #16
  84 0052 2361     		str	r3, [r4, #16]
  85              	.L5:
  86 0054 38BD     		pop	{r3, r4, r5, pc}
  87              	.L7:
  88 0056 00BF     		.align	2
  89              	.L6:
  90 0058 00000000 		.word	pFlash
  91 005c 00200240 		.word	1073881088
  92 0060 00F8FF1F 		.word	536868864
  94              		.section	.text.HAL_FLASHEx_OBErase,"ax",%progbits
  95              		.align	1
  96              		.global	HAL_FLASHEx_OBErase
  97              		.syntax unified
  98              		.thumb
  99              		.thumb_func
 100              		.fpu fpv4-sp-d16
 102              	HAL_FLASHEx_OBErase:
 103              		@ args = 0, pretend = 0, frame = 0
 104              		@ frame_needed = 0, uses_anonymous_args = 0
 105 0000 38B5     		push	{r3, r4, r5, lr}
 106 0002 154B     		ldr	r3, .L13
 107 0004 DB69     		ldr	r3, [r3, #28]
 108 0006 03F00603 		and	r3, r3, #6
 109 000a 022B     		cmp	r3, #2
 110 000c 21D0     		beq	.L11
 111 000e 062B     		cmp	r3, #6
 112 0010 0CBF     		ite	eq
 113 0012 CC25     		moveq	r5, #204
 114 0014 AA25     		movne	r5, #170
 115              	.L9:
 116 0016 4CF25030 		movw	r0, #50000
 117 001a FFF7FEFF 		bl	FLASH_WaitForLastOperation
 118 001e D0B9     		cbnz	r0, .L10
 119 0020 0E4A     		ldr	r2, .L13+4
ARM GAS  C:\Users\gyoku\AppData\Local\Temp\ccZSyI4n.s 			page 3


 120 0022 0D4C     		ldr	r4, .L13
 121 0024 D061     		str	r0, [r2, #28]
 122 0026 2369     		ldr	r3, [r4, #16]
 123 0028 43F02003 		orr	r3, r3, #32
 124 002c 2361     		str	r3, [r4, #16]
 125 002e 2369     		ldr	r3, [r4, #16]
 126 0030 43F04003 		orr	r3, r3, #64
 127 0034 2361     		str	r3, [r4, #16]
 128 0036 4CF25030 		movw	r0, #50000
 129 003a FFF7FEFF 		bl	FLASH_WaitForLastOperation
 130 003e 2369     		ldr	r3, [r4, #16]
 131 0040 23F02003 		bic	r3, r3, #32
 132 0044 2361     		str	r3, [r4, #16]
 133 0046 30B9     		cbnz	r0, .L10
 134 0048 2846     		mov	r0, r5
 135 004a BDE83840 		pop	{r3, r4, r5, lr}
 136 004e FFF7FEBF 		b	FLASH_OB_RDP_LevelConfig
 137              	.L11:
 138 0052 BB25     		movs	r5, #187
 139 0054 DFE7     		b	.L9
 140              	.L10:
 141 0056 38BD     		pop	{r3, r4, r5, pc}
 142              	.L14:
 143              		.align	2
 144              	.L13:
 145 0058 00200240 		.word	1073881088
 146 005c 00000000 		.word	pFlash
 148              		.section	.text.HAL_FLASHEx_OBProgram,"ax",%progbits
 149              		.align	1
 150              		.global	HAL_FLASHEx_OBProgram
 151              		.syntax unified
 152              		.thumb
 153              		.thumb_func
 154              		.fpu fpv4-sp-d16
 156              	HAL_FLASHEx_OBProgram:
 157              		@ args = 0, pretend = 0, frame = 0
 158              		@ frame_needed = 0, uses_anonymous_args = 0
 159 0000 2DE9F843 		push	{r3, r4, r5, r6, r7, r8, r9, lr}
 160 0004 5E4D     		ldr	r5, .L66
 161 0006 2B7E     		ldrb	r3, [r5, #24]	@ zero_extendqisi2
 162 0008 012B     		cmp	r3, #1
 163 000a 0646     		mov	r6, r0
 164 000c 00F0B680 		beq	.L34
 165 0010 0368     		ldr	r3, [r0]
 166 0012 0124     		movs	r4, #1
 167 0014 D807     		lsls	r0, r3, #31
 168 0016 2C76     		strb	r4, [r5, #24]
 169 0018 69D5     		bpl	.L17
 170 001a D6E90137 		ldrd	r3, r7, [r6, #4]
 171 001e DFF86881 		ldr	r8, .L66+8
 172 0022 A342     		cmp	r3, r4
 173 0024 D8F82090 		ldr	r9, [r8, #32]
 174 0028 4CF25030 		movw	r0, #50000
 175 002c 36D1     		bne	.L18
 176 002e FFF7FEFF 		bl	FLASH_WaitForLastOperation
 177 0032 0446     		mov	r4, r0
 178 0034 68BB     		cbnz	r0, .L32
ARM GAS  C:\Users\gyoku\AppData\Local\Temp\ccZSyI4n.s 			page 4


 179 0036 E861     		str	r0, [r5, #28]
 180 0038 FFF7FEFF 		bl	HAL_FLASHEx_OBErase
 181 003c 0446     		mov	r4, r0
 182 003e 40BB     		cbnz	r0, .L32
 183 0040 D8F81020 		ldr	r2, [r8, #16]
 184 0044 29EA0707 		bic	r7, r9, r7
 185 0048 FBB2     		uxtb	r3, r7
 186 004a 42F01002 		orr	r2, r2, #16
 187 004e FF2B     		cmp	r3, #255
 188 0050 C8F81020 		str	r2, [r8, #16]
 189 0054 0CD1     		bne	.L20
 190              	.L23:
 191 0056 C7F30727 		ubfx	r7, r7, #8, #8
 192 005a FF2F     		cmp	r7, #255
 193 005c 13D0     		beq	.L27
 194 005e 494B     		ldr	r3, .L66+4
 195 0060 5A89     		ldrh	r2, [r3, #10]
 196 0062 1740     		ands	r7, r7, r2
 197              	.L65:
 198 0064 5F81     		strh	r7, [r3, #10]	@ movhi
 199 0066 4CF25030 		movw	r0, #50000
 200 006a FFF7FEFF 		bl	FLASH_WaitForLastOperation
 201 006e 09E0     		b	.L64
 202              	.L20:
 203 0070 444A     		ldr	r2, .L66+4
 204 0072 1189     		ldrh	r1, [r2, #8]
 205 0074 0B40     		ands	r3, r3, r1
 206 0076 1381     		strh	r3, [r2, #8]	@ movhi
 207 0078 4CF25030 		movw	r0, #50000
 208 007c FFF7FEFF 		bl	FLASH_WaitForLastOperation
 209 0080 0028     		cmp	r0, #0
 210 0082 E8D0     		beq	.L23
 211              	.L64:
 212 0084 0446     		mov	r4, r0
 213              	.L27:
 214 0086 404A     		ldr	r2, .L66+8
 215 0088 1369     		ldr	r3, [r2, #16]
 216 008a 23F01003 		bic	r3, r3, #16
 217 008e 1361     		str	r3, [r2, #16]
 218 0090 6CB3     		cbz	r4, .L17
 219              	.L32:
 220 0092 0023     		movs	r3, #0
 221 0094 2B76     		strb	r3, [r5, #24]
 222              	.L16:
 223 0096 2046     		mov	r0, r4
 224 0098 BDE8F883 		pop	{r3, r4, r5, r6, r7, r8, r9, pc}
 225              	.L18:
 226 009c FFF7FEFF 		bl	FLASH_WaitForLastOperation
 227 00a0 0446     		mov	r4, r0
 228 00a2 0028     		cmp	r0, #0
 229 00a4 F5D1     		bne	.L32
 230 00a6 E861     		str	r0, [r5, #28]
 231 00a8 FFF7FEFF 		bl	HAL_FLASHEx_OBErase
 232 00ac 0446     		mov	r4, r0
 233 00ae 0028     		cmp	r0, #0
 234 00b0 EFD1     		bne	.L32
 235 00b2 D8F81020 		ldr	r2, [r8, #16]
ARM GAS  C:\Users\gyoku\AppData\Local\Temp\ccZSyI4n.s 			page 5


 236 00b6 49EA0707 		orr	r7, r9, r7
 237 00ba FBB2     		uxtb	r3, r7
 238 00bc 42F01002 		orr	r2, r2, #16
 239 00c0 FF2B     		cmp	r3, #255
 240 00c2 C8F81020 		str	r2, [r8, #16]
 241 00c6 07D1     		bne	.L25
 242              	.L28:
 243 00c8 C7F30727 		ubfx	r7, r7, #8, #8
 244 00cc FF2F     		cmp	r7, #255
 245 00ce DAD0     		beq	.L27
 246 00d0 2C4B     		ldr	r3, .L66+4
 247 00d2 5A89     		ldrh	r2, [r3, #10]
 248 00d4 1743     		orrs	r7, r7, r2
 249 00d6 C5E7     		b	.L65
 250              	.L25:
 251 00d8 2A4A     		ldr	r2, .L66+4
 252 00da 1189     		ldrh	r1, [r2, #8]
 253 00dc 0B43     		orrs	r3, r3, r1
 254 00de 1381     		strh	r3, [r2, #8]	@ movhi
 255 00e0 4CF25030 		movw	r0, #50000
 256 00e4 FFF7FEFF 		bl	FLASH_WaitForLastOperation
 257 00e8 0028     		cmp	r0, #0
 258 00ea CBD1     		bne	.L64
 259 00ec ECE7     		b	.L28
 260              	.L17:
 261 00ee 3368     		ldr	r3, [r6]
 262 00f0 9907     		lsls	r1, r3, #30
 263 00f2 05D5     		bpl	.L29
 264 00f4 307B     		ldrb	r0, [r6, #12]	@ zero_extendqisi2
 265 00f6 FFF7FEFF 		bl	FLASH_OB_RDP_LevelConfig
 266 00fa 0446     		mov	r4, r0
 267 00fc 0028     		cmp	r0, #0
 268 00fe C8D1     		bne	.L32
 269              	.L29:
 270 0100 3368     		ldr	r3, [r6]
 271 0102 5A07     		lsls	r2, r3, #29
 272 0104 1CD5     		bpl	.L30
 273 0106 4CF25030 		movw	r0, #50000
 274 010a 777B     		ldrb	r7, [r6, #13]	@ zero_extendqisi2
 275 010c FFF7FEFF 		bl	FLASH_WaitForLastOperation
 276 0110 0446     		mov	r4, r0
 277 0112 0028     		cmp	r0, #0
 278 0114 BDD1     		bne	.L32
 279 0116 1C4C     		ldr	r4, .L66+8
 280 0118 E861     		str	r0, [r5, #28]
 281 011a 2369     		ldr	r3, [r4, #16]
 282 011c 43F01003 		orr	r3, r3, #16
 283 0120 2361     		str	r3, [r4, #16]
 284 0122 184B     		ldr	r3, .L66+4
 285 0124 47F08807 		orr	r7, r7, #136
 286 0128 5F80     		strh	r7, [r3, #2]	@ movhi
 287 012a 4CF25030 		movw	r0, #50000
 288 012e FFF7FEFF 		bl	FLASH_WaitForLastOperation
 289 0132 2369     		ldr	r3, [r4, #16]
 290 0134 23F01003 		bic	r3, r3, #16
 291 0138 2361     		str	r3, [r4, #16]
 292 013a 0446     		mov	r4, r0
ARM GAS  C:\Users\gyoku\AppData\Local\Temp\ccZSyI4n.s 			page 6


 293 013c 0028     		cmp	r0, #0
 294 013e A8D1     		bne	.L32
 295              	.L30:
 296 0140 3368     		ldr	r3, [r6]
 297 0142 1B07     		lsls	r3, r3, #28
 298 0144 A5D5     		bpl	.L32
 299 0146 4CF25030 		movw	r0, #50000
 300 014a 3769     		ldr	r7, [r6, #16]
 301 014c 367D     		ldrb	r6, [r6, #20]	@ zero_extendqisi2
 302 014e FFF7FEFF 		bl	FLASH_WaitForLastOperation
 303 0152 0446     		mov	r4, r0
 304 0154 0028     		cmp	r0, #0
 305 0156 9CD1     		bne	.L32
 306 0158 0B4C     		ldr	r4, .L66+8
 307 015a E861     		str	r0, [r5, #28]
 308 015c 2369     		ldr	r3, [r4, #16]
 309 015e B6B2     		uxth	r6, r6
 310 0160 43F01003 		orr	r3, r3, #16
 311 0164 2361     		str	r3, [r4, #16]
 312 0166 4CF25030 		movw	r0, #50000
 313 016a 3E80     		strh	r6, [r7]	@ movhi
 314 016c FFF7FEFF 		bl	FLASH_WaitForLastOperation
 315 0170 2369     		ldr	r3, [r4, #16]
 316 0172 23F01003 		bic	r3, r3, #16
 317 0176 2361     		str	r3, [r4, #16]
 318 0178 0446     		mov	r4, r0
 319 017a 8AE7     		b	.L32
 320              	.L34:
 321 017c 0224     		movs	r4, #2
 322 017e 8AE7     		b	.L16
 323              	.L67:
 324              		.align	2
 325              	.L66:
 326 0180 00000000 		.word	pFlash
 327 0184 00F8FF1F 		.word	536868864
 328 0188 00200240 		.word	1073881088
 330              		.section	.text.HAL_FLASHEx_OBGetConfig,"ax",%progbits
 331              		.align	1
 332              		.global	HAL_FLASHEx_OBGetConfig
 333              		.syntax unified
 334              		.thumb
 335              		.thumb_func
 336              		.fpu fpv4-sp-d16
 338              	HAL_FLASHEx_OBGetConfig:
 339              		@ args = 0, pretend = 0, frame = 0
 340              		@ frame_needed = 0, uses_anonymous_args = 0
 341              		@ link register save eliminated.
 342 0000 0723     		movs	r3, #7
 343 0002 0360     		str	r3, [r0]
 344 0004 0D4B     		ldr	r3, .L72
 345 0006 1A6A     		ldr	r2, [r3, #32]
 346 0008 8260     		str	r2, [r0, #8]
 347 000a DA69     		ldr	r2, [r3, #28]
 348 000c 02F00602 		and	r2, r2, #6
 349 0010 022A     		cmp	r2, #2
 350 0012 10D0     		beq	.L70
 351 0014 062A     		cmp	r2, #6
ARM GAS  C:\Users\gyoku\AppData\Local\Temp\ccZSyI4n.s 			page 7


 352 0016 0CBF     		ite	eq
 353 0018 CC22     		moveq	r2, #204
 354 001a AA22     		movne	r2, #170
 355              	.L69:
 356 001c 0273     		strb	r2, [r0, #12]
 357 001e DB69     		ldr	r3, [r3, #28]
 358 0020 4FF48072 		mov	r2, #256
 359              		.syntax unified
 360              	@ 531 "Drivers/CMSIS/Include/cmsis_gcc.h" 1
 361 0024 92FAA2F2 		rbit r2, r2
 362              	@ 0 "" 2
 363              		.thumb
 364              		.syntax unified
 365 0028 B2FA82F2 		clz	r2, r2
 366 002c 03F4EE43 		and	r3, r3, #30464
 367 0030 D340     		lsrs	r3, r3, r2
 368 0032 4373     		strb	r3, [r0, #13]
 369 0034 7047     		bx	lr
 370              	.L70:
 371 0036 BB22     		movs	r2, #187
 372 0038 F0E7     		b	.L69
 373              	.L73:
 374 003a 00BF     		.align	2
 375              	.L72:
 376 003c 00200240 		.word	1073881088
 378              		.section	.text.HAL_FLASHEx_OBGetUserData,"ax",%progbits
 379              		.align	1
 380              		.global	HAL_FLASHEx_OBGetUserData
 381              		.syntax unified
 382              		.thumb
 383              		.thumb_func
 384              		.fpu fpv4-sp-d16
 386              	HAL_FLASHEx_OBGetUserData:
 387              		@ args = 0, pretend = 0, frame = 0
 388              		@ frame_needed = 0, uses_anonymous_args = 0
 389              		@ link register save eliminated.
 390 0000 0B4B     		ldr	r3, .L78
 391 0002 9842     		cmp	r0, r3
 392 0004 0B4B     		ldr	r3, .L78+4
 393 0006 D869     		ldr	r0, [r3, #28]
 394 0008 09D1     		bne	.L75
 395 000a 4FF47F03 		mov	r3, #16711680
 396              		.syntax unified
 397              	@ 531 "Drivers/CMSIS/Include/cmsis_gcc.h" 1
 398 000e 93FAA3F3 		rbit r3, r3
 399              	@ 0 "" 2
 400              		.thumb
 401              		.syntax unified
 402 0012 B3FA83F3 		clz	r3, r3
 403 0016 00F47F00 		and	r0, r0, #16711680
 404              	.L77:
 405 001a D840     		lsrs	r0, r0, r3
 406 001c 7047     		bx	lr
 407              	.L75:
 408 001e 4FF07F43 		mov	r3, #-16777216
 409              		.syntax unified
 410              	@ 531 "Drivers/CMSIS/Include/cmsis_gcc.h" 1
ARM GAS  C:\Users\gyoku\AppData\Local\Temp\ccZSyI4n.s 			page 8


 411 0022 93FAA3F3 		rbit r3, r3
 412              	@ 0 "" 2
 413              		.thumb
 414              		.syntax unified
 415 0026 B3FA83F3 		clz	r3, r3
 416 002a 00F07F40 		and	r0, r0, #-16777216
 417 002e F4E7     		b	.L77
 418              	.L79:
 419              		.align	2
 420              	.L78:
 421 0030 04F8FF1F 		.word	536868868
 422 0034 00200240 		.word	1073881088
 424              		.section	.text.FLASH_PageErase,"ax",%progbits
 425              		.align	1
 426              		.global	FLASH_PageErase
 427              		.syntax unified
 428              		.thumb
 429              		.thumb_func
 430              		.fpu fpv4-sp-d16
 432              	FLASH_PageErase:
 433              		@ args = 0, pretend = 0, frame = 0
 434              		@ frame_needed = 0, uses_anonymous_args = 0
 435              		@ link register save eliminated.
 436 0000 064B     		ldr	r3, .L81
 437 0002 0022     		movs	r2, #0
 438 0004 DA61     		str	r2, [r3, #28]
 439 0006 064B     		ldr	r3, .L81+4
 440 0008 1A69     		ldr	r2, [r3, #16]
 441 000a 42F00202 		orr	r2, r2, #2
 442 000e 1A61     		str	r2, [r3, #16]
 443 0010 5861     		str	r0, [r3, #20]
 444 0012 1A69     		ldr	r2, [r3, #16]
 445 0014 42F04002 		orr	r2, r2, #64
 446 0018 1A61     		str	r2, [r3, #16]
 447 001a 7047     		bx	lr
 448              	.L82:
 449              		.align	2
 450              	.L81:
 451 001c 00000000 		.word	pFlash
 452 0020 00200240 		.word	1073881088
 454              		.section	.text.HAL_FLASHEx_Erase,"ax",%progbits
 455              		.align	1
 456              		.global	HAL_FLASHEx_Erase
 457              		.syntax unified
 458              		.thumb
 459              		.thumb_func
 460              		.fpu fpv4-sp-d16
 462              	HAL_FLASHEx_Erase:
 463              		@ args = 0, pretend = 0, frame = 0
 464              		@ frame_needed = 0, uses_anonymous_args = 0
 465 0000 2DE9F041 		push	{r4, r5, r6, r7, r8, lr}
 466 0004 224D     		ldr	r5, .L93
 467 0006 2B7E     		ldrb	r3, [r5, #24]	@ zero_extendqisi2
 468 0008 012B     		cmp	r3, #1
 469 000a 0746     		mov	r7, r0
 470 000c 8846     		mov	r8, r1
 471 000e 3DD0     		beq	.L92
ARM GAS  C:\Users\gyoku\AppData\Local\Temp\ccZSyI4n.s 			page 9


 472 0010 0368     		ldr	r3, [r0]
 473 0012 0124     		movs	r4, #1
 474 0014 A342     		cmp	r3, r4
 475 0016 2C76     		strb	r4, [r5, #24]
 476 0018 4CF25030 		movw	r0, #50000
 477 001c 13D1     		bne	.L85
 478 001e FFF7FEFF 		bl	FLASH_WaitForLastOperation
 479 0022 20B1     		cbz	r0, .L86
 480              	.L88:
 481 0024 0120     		movs	r0, #1
 482              	.L87:
 483 0026 0023     		movs	r3, #0
 484 0028 2B76     		strb	r3, [r5, #24]
 485              	.L84:
 486 002a BDE8F081 		pop	{r4, r5, r6, r7, r8, pc}
 487              	.L86:
 488 002e FFF7FEFF 		bl	FLASH_MassErase
 489 0032 4CF25030 		movw	r0, #50000
 490 0036 FFF7FEFF 		bl	FLASH_WaitForLastOperation
 491 003a 164A     		ldr	r2, .L93+4
 492 003c 1369     		ldr	r3, [r2, #16]
 493 003e 23F00403 		bic	r3, r3, #4
 494 0042 1361     		str	r3, [r2, #16]
 495 0044 EFE7     		b	.L87
 496              	.L85:
 497 0046 FFF7FEFF 		bl	FLASH_WaitForLastOperation
 498 004a 0028     		cmp	r0, #0
 499 004c EAD1     		bne	.L88
 500 004e 4FF0FF33 		mov	r3, #-1
 501 0052 C8F80030 		str	r3, [r8]
 502 0056 2046     		mov	r0, r4
 503 0058 7E68     		ldr	r6, [r7, #4]
 504 005a 0E4C     		ldr	r4, .L93+4
 505              	.L89:
 506 005c D7E90132 		ldrd	r3, r2, [r7, #4]
 507 0060 03EBC223 		add	r3, r3, r2, lsl #11
 508 0064 B342     		cmp	r3, r6
 509 0066 DED9     		bls	.L87
 510 0068 3046     		mov	r0, r6
 511 006a FFF7FEFF 		bl	FLASH_PageErase
 512 006e 4CF25030 		movw	r0, #50000
 513 0072 FFF7FEFF 		bl	FLASH_WaitForLastOperation
 514 0076 2369     		ldr	r3, [r4, #16]
 515 0078 23F00203 		bic	r3, r3, #2
 516 007c 2361     		str	r3, [r4, #16]
 517 007e 10B1     		cbz	r0, .L90
 518 0080 C8F80060 		str	r6, [r8]
 519 0084 CFE7     		b	.L87
 520              	.L90:
 521 0086 06F50066 		add	r6, r6, #2048
 522 008a E7E7     		b	.L89
 523              	.L92:
 524 008c 0220     		movs	r0, #2
 525 008e CCE7     		b	.L84
 526              	.L94:
 527              		.align	2
 528              	.L93:
ARM GAS  C:\Users\gyoku\AppData\Local\Temp\ccZSyI4n.s 			page 10


 529 0090 00000000 		.word	pFlash
 530 0094 00200240 		.word	1073881088
 532              		.section	.text.HAL_FLASHEx_Erase_IT,"ax",%progbits
 533              		.align	1
 534              		.global	HAL_FLASHEx_Erase_IT
 535              		.syntax unified
 536              		.thumb
 537              		.thumb_func
 538              		.fpu fpv4-sp-d16
 540              	HAL_FLASHEx_Erase_IT:
 541              		@ args = 0, pretend = 0, frame = 0
 542              		@ frame_needed = 0, uses_anonymous_args = 0
 543 0000 124A     		ldr	r2, .L101
 544 0002 38B5     		push	{r3, r4, r5, lr}
 545 0004 137E     		ldrb	r3, [r2, #24]	@ zero_extendqisi2
 546 0006 012B     		cmp	r3, #1
 547 0008 1BD0     		beq	.L98
 548 000a 1178     		ldrb	r1, [r2]	@ zero_extendqisi2
 549 000c 0123     		movs	r3, #1
 550 000e 1376     		strb	r3, [r2, #24]
 551 0010 01F0FF04 		and	r4, r1, #255
 552 0014 B9B9     		cbnz	r1, .L99
 553 0016 0E4D     		ldr	r5, .L101+4
 554 0018 2969     		ldr	r1, [r5, #16]
 555 001a 41F4A051 		orr	r1, r1, #5120
 556 001e 2961     		str	r1, [r5, #16]
 557 0020 0168     		ldr	r1, [r0]
 558 0022 9942     		cmp	r1, r3
 559 0024 05D1     		bne	.L97
 560 0026 0223     		movs	r3, #2
 561 0028 1370     		strb	r3, [r2]
 562 002a FFF7FEFF 		bl	FLASH_MassErase
 563              	.L100:
 564 002e 2046     		mov	r0, r4
 565              	.L96:
 566 0030 38BD     		pop	{r3, r4, r5, pc}
 567              	.L97:
 568 0032 1370     		strb	r3, [r2]
 569 0034 8368     		ldr	r3, [r0, #8]
 570 0036 4068     		ldr	r0, [r0, #4]
 571 0038 5360     		str	r3, [r2, #4]
 572 003a 9060     		str	r0, [r2, #8]
 573 003c FFF7FEFF 		bl	FLASH_PageErase
 574 0040 F5E7     		b	.L100
 575              	.L98:
 576 0042 0220     		movs	r0, #2
 577 0044 F4E7     		b	.L96
 578              	.L99:
 579 0046 1846     		mov	r0, r3
 580 0048 F2E7     		b	.L96
 581              	.L102:
 582 004a 00BF     		.align	2
 583              	.L101:
 584 004c 00000000 		.word	pFlash
 585 0050 00200240 		.word	1073881088
 587              		.ident	"GCC: (GNU MCU Eclipse ARM Embedded GCC, 64-bit) 8.2.1 20181213 (release) [gcc-8-branch rev
ARM GAS  C:\Users\gyoku\AppData\Local\Temp\ccZSyI4n.s 			page 11

