ARM GAS  C:\Users\gyoku\AppData\Local\Temp\ccpXGRVa.s 			page 1


   1              		.cpu cortex-m4
   2              		.eabi_attribute 27, 1
   3              		.eabi_attribute 28, 1
   4              		.eabi_attribute 20, 1
   5              		.eabi_attribute 21, 1
   6              		.eabi_attribute 23, 3
   7              		.eabi_attribute 24, 1
   8              		.eabi_attribute 25, 1
   9              		.eabi_attribute 26, 1
  10              		.eabi_attribute 30, 4
  11              		.eabi_attribute 34, 1
  12              		.eabi_attribute 18, 4
  13              		.file	"stm32f3xx_hal_msp.c"
  14              		.text
  15              		.section	.text.HAL_MspInit,"ax",%progbits
  16              		.align	1
  17              		.global	HAL_MspInit
  18              		.arch armv7e-m
  19              		.syntax unified
  20              		.thumb
  21              		.thumb_func
  22              		.fpu fpv4-sp-d16
  24              	HAL_MspInit:
  25              		@ args = 0, pretend = 0, frame = 8
  26              		@ frame_needed = 0, uses_anonymous_args = 0
  27              		@ link register save eliminated.
  28 0000 0A4B     		ldr	r3, .L2
  29 0002 9A69     		ldr	r2, [r3, #24]
  30 0004 42F00102 		orr	r2, r2, #1
  31 0008 9A61     		str	r2, [r3, #24]
  32 000a 9A69     		ldr	r2, [r3, #24]
  33 000c 82B0     		sub	sp, sp, #8
  34 000e 02F00102 		and	r2, r2, #1
  35 0012 0092     		str	r2, [sp]
  36 0014 009A     		ldr	r2, [sp]
  37 0016 DA69     		ldr	r2, [r3, #28]
  38 0018 42F08052 		orr	r2, r2, #268435456
  39 001c DA61     		str	r2, [r3, #28]
  40 001e DB69     		ldr	r3, [r3, #28]
  41 0020 03F08053 		and	r3, r3, #268435456
  42 0024 0193     		str	r3, [sp, #4]
  43 0026 019B     		ldr	r3, [sp, #4]
  44 0028 02B0     		add	sp, sp, #8
  45              		@ sp needed
  46 002a 7047     		bx	lr
  47              	.L3:
  48              		.align	2
  49              	.L2:
  50 002c 00100240 		.word	1073876992
  52              		.section	.text.HAL_CAN_MspInit,"ax",%progbits
  53              		.align	1
  54              		.global	HAL_CAN_MspInit
  55              		.syntax unified
  56              		.thumb
  57              		.thumb_func
  58              		.fpu fpv4-sp-d16
  60              	HAL_CAN_MspInit:
ARM GAS  C:\Users\gyoku\AppData\Local\Temp\ccpXGRVa.s 			page 2


  61              		@ args = 0, pretend = 0, frame = 32
  62              		@ frame_needed = 0, uses_anonymous_args = 0
  63 0000 10B5     		push	{r4, lr}
  64 0002 0446     		mov	r4, r0
  65 0004 88B0     		sub	sp, sp, #32
  66 0006 1422     		movs	r2, #20
  67 0008 0021     		movs	r1, #0
  68 000a 03A8     		add	r0, sp, #12
  69 000c FFF7FEFF 		bl	memset
  70 0010 2268     		ldr	r2, [r4]
  71 0012 134B     		ldr	r3, .L6
  72 0014 9A42     		cmp	r2, r3
  73 0016 21D1     		bne	.L4
  74 0018 03F5D633 		add	r3, r3, #109568
  75 001c 0321     		movs	r1, #3
  76 001e DA69     		ldr	r2, [r3, #28]
  77 0020 42F00072 		orr	r2, r2, #33554432
  78 0024 DA61     		str	r2, [r3, #28]
  79 0026 DA69     		ldr	r2, [r3, #28]
  80 0028 02F00072 		and	r2, r2, #33554432
  81 002c 0192     		str	r2, [sp, #4]
  82 002e 019A     		ldr	r2, [sp, #4]
  83 0030 5A69     		ldr	r2, [r3, #20]
  84 0032 42F40032 		orr	r2, r2, #131072
  85 0036 5A61     		str	r2, [r3, #20]
  86 0038 5B69     		ldr	r3, [r3, #20]
  87 003a 03F40033 		and	r3, r3, #131072
  88 003e 0293     		str	r3, [sp, #8]
  89 0040 029B     		ldr	r3, [sp, #8]
  90 0042 4FF4C052 		mov	r2, #6144
  91 0046 0223     		movs	r3, #2
  92 0048 CDE90323 		strd	r2, r3, [sp, #12]
  93 004c 0923     		movs	r3, #9
  94 004e CDE90613 		strd	r1, r3, [sp, #24]
  95 0052 4FF09040 		mov	r0, #1207959552
  96 0056 03A9     		add	r1, sp, #12
  97 0058 FFF7FEFF 		bl	HAL_GPIO_Init
  98              	.L4:
  99 005c 08B0     		add	sp, sp, #32
 100              		@ sp needed
 101 005e 10BD     		pop	{r4, pc}
 102              	.L7:
 103              		.align	2
 104              	.L6:
 105 0060 00640040 		.word	1073767424
 107              		.section	.text.HAL_CAN_MspDeInit,"ax",%progbits
 108              		.align	1
 109              		.global	HAL_CAN_MspDeInit
 110              		.syntax unified
 111              		.thumb
 112              		.thumb_func
 113              		.fpu fpv4-sp-d16
 115              	HAL_CAN_MspDeInit:
 116              		@ args = 0, pretend = 0, frame = 0
 117              		@ frame_needed = 0, uses_anonymous_args = 0
 118              		@ link register save eliminated.
 119 0000 0268     		ldr	r2, [r0]
ARM GAS  C:\Users\gyoku\AppData\Local\Temp\ccpXGRVa.s 			page 3


 120 0002 074B     		ldr	r3, .L10
 121 0004 9A42     		cmp	r2, r3
 122 0006 0AD1     		bne	.L8
 123 0008 064A     		ldr	r2, .L10+4
 124 000a D369     		ldr	r3, [r2, #28]
 125 000c 23F00073 		bic	r3, r3, #33554432
 126 0010 D361     		str	r3, [r2, #28]
 127 0012 4FF4C051 		mov	r1, #6144
 128 0016 4FF09040 		mov	r0, #1207959552
 129 001a FFF7FEBF 		b	HAL_GPIO_DeInit
 130              	.L8:
 131 001e 7047     		bx	lr
 132              	.L11:
 133              		.align	2
 134              	.L10:
 135 0020 00640040 		.word	1073767424
 136 0024 00100240 		.word	1073876992
 138              		.section	.text.HAL_TIM_PWM_MspInit,"ax",%progbits
 139              		.align	1
 140              		.global	HAL_TIM_PWM_MspInit
 141              		.syntax unified
 142              		.thumb
 143              		.thumb_func
 144              		.fpu fpv4-sp-d16
 146              	HAL_TIM_PWM_MspInit:
 147              		@ args = 0, pretend = 0, frame = 8
 148              		@ frame_needed = 0, uses_anonymous_args = 0
 149              		@ link register save eliminated.
 150 0000 0368     		ldr	r3, [r0]
 151 0002 B3F1804F 		cmp	r3, #1073741824
 152 0006 82B0     		sub	sp, sp, #8
 153 0008 0AD1     		bne	.L12
 154 000a 03F50433 		add	r3, r3, #135168
 155 000e DA69     		ldr	r2, [r3, #28]
 156 0010 42F00102 		orr	r2, r2, #1
 157 0014 DA61     		str	r2, [r3, #28]
 158 0016 DB69     		ldr	r3, [r3, #28]
 159 0018 03F00103 		and	r3, r3, #1
 160 001c 0193     		str	r3, [sp, #4]
 161 001e 019B     		ldr	r3, [sp, #4]
 162              	.L12:
 163 0020 02B0     		add	sp, sp, #8
 164              		@ sp needed
 165 0022 7047     		bx	lr
 167              		.section	.text.HAL_TIM_MspPostInit,"ax",%progbits
 168              		.align	1
 169              		.global	HAL_TIM_MspPostInit
 170              		.syntax unified
 171              		.thumb
 172              		.thumb_func
 173              		.fpu fpv4-sp-d16
 175              	HAL_TIM_MspPostInit:
 176              		@ args = 0, pretend = 0, frame = 24
 177              		@ frame_needed = 0, uses_anonymous_args = 0
 178 0000 10B5     		push	{r4, lr}
 179 0002 0446     		mov	r4, r0
 180 0004 86B0     		sub	sp, sp, #24
ARM GAS  C:\Users\gyoku\AppData\Local\Temp\ccpXGRVa.s 			page 4


 181 0006 1422     		movs	r2, #20
 182 0008 0021     		movs	r1, #0
 183 000a 01A8     		add	r0, sp, #4
 184 000c FFF7FEFF 		bl	memset
 185 0010 2368     		ldr	r3, [r4]
 186 0012 B3F1804F 		cmp	r3, #1073741824
 187 0016 15D1     		bne	.L14
 188 0018 03F50433 		add	r3, r3, #135168
 189 001c 01A9     		add	r1, sp, #4
 190 001e 5A69     		ldr	r2, [r3, #20]
 191 0020 42F40032 		orr	r2, r2, #131072
 192 0024 5A61     		str	r2, [r3, #20]
 193 0026 5B69     		ldr	r3, [r3, #20]
 194 0028 03F40033 		and	r3, r3, #131072
 195 002c 0093     		str	r3, [sp]
 196 002e 009B     		ldr	r3, [sp]
 197 0030 0622     		movs	r2, #6
 198 0032 0223     		movs	r3, #2
 199 0034 CDE90123 		strd	r2, r3, [sp, #4]
 200 0038 4FF09040 		mov	r0, #1207959552
 201 003c 0123     		movs	r3, #1
 202 003e 0593     		str	r3, [sp, #20]
 203 0040 FFF7FEFF 		bl	HAL_GPIO_Init
 204              	.L14:
 205 0044 06B0     		add	sp, sp, #24
 206              		@ sp needed
 207 0046 10BD     		pop	{r4, pc}
 209              		.section	.text.HAL_TIM_PWM_MspDeInit,"ax",%progbits
 210              		.align	1
 211              		.global	HAL_TIM_PWM_MspDeInit
 212              		.syntax unified
 213              		.thumb
 214              		.thumb_func
 215              		.fpu fpv4-sp-d16
 217              	HAL_TIM_PWM_MspDeInit:
 218              		@ args = 0, pretend = 0, frame = 0
 219              		@ frame_needed = 0, uses_anonymous_args = 0
 220              		@ link register save eliminated.
 221 0000 0368     		ldr	r3, [r0]
 222 0002 B3F1804F 		cmp	r3, #1073741824
 223 0006 01BF     		itttt	eq
 224 0008 024A     		ldreq	r2, .L18
 225 000a D369     		ldreq	r3, [r2, #28]
 226 000c 23F00103 		biceq	r3, r3, #1
 227 0010 D361     		streq	r3, [r2, #28]
 228 0012 7047     		bx	lr
 229              	.L19:
 230              		.align	2
 231              	.L18:
 232 0014 00100240 		.word	1073876992
 234              		.section	.text.HAL_UART_MspInit,"ax",%progbits
 235              		.align	1
 236              		.global	HAL_UART_MspInit
 237              		.syntax unified
 238              		.thumb
 239              		.thumb_func
 240              		.fpu fpv4-sp-d16
ARM GAS  C:\Users\gyoku\AppData\Local\Temp\ccpXGRVa.s 			page 5


 242              	HAL_UART_MspInit:
 243              		@ args = 0, pretend = 0, frame = 32
 244              		@ frame_needed = 0, uses_anonymous_args = 0
 245 0000 10B5     		push	{r4, lr}
 246 0002 0446     		mov	r4, r0
 247 0004 88B0     		sub	sp, sp, #32
 248 0006 1422     		movs	r2, #20
 249 0008 0021     		movs	r1, #0
 250 000a 03A8     		add	r0, sp, #12
 251 000c FFF7FEFF 		bl	memset
 252 0010 2268     		ldr	r2, [r4]
 253 0012 134B     		ldr	r3, .L22
 254 0014 9A42     		cmp	r2, r3
 255 0016 21D1     		bne	.L20
 256 0018 03F55843 		add	r3, r3, #55296
 257 001c 0321     		movs	r1, #3
 258 001e 9A69     		ldr	r2, [r3, #24]
 259 0020 42F48042 		orr	r2, r2, #16384
 260 0024 9A61     		str	r2, [r3, #24]
 261 0026 9A69     		ldr	r2, [r3, #24]
 262 0028 02F48042 		and	r2, r2, #16384
 263 002c 0192     		str	r2, [sp, #4]
 264 002e 019A     		ldr	r2, [sp, #4]
 265 0030 5A69     		ldr	r2, [r3, #20]
 266 0032 42F40032 		orr	r2, r2, #131072
 267 0036 5A61     		str	r2, [r3, #20]
 268 0038 5B69     		ldr	r3, [r3, #20]
 269 003a 03F40033 		and	r3, r3, #131072
 270 003e 0293     		str	r3, [sp, #8]
 271 0040 029B     		ldr	r3, [sp, #8]
 272 0042 4FF4C062 		mov	r2, #1536
 273 0046 0223     		movs	r3, #2
 274 0048 CDE90323 		strd	r2, r3, [sp, #12]
 275 004c 0723     		movs	r3, #7
 276 004e CDE90613 		strd	r1, r3, [sp, #24]
 277 0052 4FF09040 		mov	r0, #1207959552
 278 0056 03A9     		add	r1, sp, #12
 279 0058 FFF7FEFF 		bl	HAL_GPIO_Init
 280              	.L20:
 281 005c 08B0     		add	sp, sp, #32
 282              		@ sp needed
 283 005e 10BD     		pop	{r4, pc}
 284              	.L23:
 285              		.align	2
 286              	.L22:
 287 0060 00380140 		.word	1073821696
 289              		.section	.text.HAL_UART_MspDeInit,"ax",%progbits
 290              		.align	1
 291              		.global	HAL_UART_MspDeInit
 292              		.syntax unified
 293              		.thumb
 294              		.thumb_func
 295              		.fpu fpv4-sp-d16
 297              	HAL_UART_MspDeInit:
 298              		@ args = 0, pretend = 0, frame = 0
 299              		@ frame_needed = 0, uses_anonymous_args = 0
 300              		@ link register save eliminated.
ARM GAS  C:\Users\gyoku\AppData\Local\Temp\ccpXGRVa.s 			page 6


 301 0000 0268     		ldr	r2, [r0]
 302 0002 074B     		ldr	r3, .L26
 303 0004 9A42     		cmp	r2, r3
 304 0006 0AD1     		bne	.L24
 305 0008 064A     		ldr	r2, .L26+4
 306 000a 9369     		ldr	r3, [r2, #24]
 307 000c 23F48043 		bic	r3, r3, #16384
 308 0010 9361     		str	r3, [r2, #24]
 309 0012 4FF4C061 		mov	r1, #1536
 310 0016 4FF09040 		mov	r0, #1207959552
 311 001a FFF7FEBF 		b	HAL_GPIO_DeInit
 312              	.L24:
 313 001e 7047     		bx	lr
 314              	.L27:
 315              		.align	2
 316              	.L26:
 317 0020 00380140 		.word	1073821696
 318 0024 00100240 		.word	1073876992
 320              		.ident	"GCC: (GNU MCU Eclipse ARM Embedded GCC, 64-bit) 8.2.1 20181213 (release) [gcc-8-branch rev
ARM GAS  C:\Users\gyoku\AppData\Local\Temp\ccpXGRVa.s 			page 7

