ARM GAS  C:\Users\gyoku\AppData\Local\Temp\ccZMWtFk.s 			page 1


   1              		.cpu cortex-m4
   2              		.eabi_attribute 27, 1
   3              		.eabi_attribute 28, 1
   4              		.eabi_attribute 20, 1
   5              		.eabi_attribute 21, 1
   6              		.eabi_attribute 23, 3
   7              		.eabi_attribute 24, 1
   8              		.eabi_attribute 25, 1
   9              		.eabi_attribute 26, 1
  10              		.eabi_attribute 30, 4
  11              		.eabi_attribute 34, 1
  12              		.eabi_attribute 18, 4
  13              		.file	"stm32f3xx_hal_uart.c"
  14              		.text
  15              		.section	.text.UART_EndRxTransfer,"ax",%progbits
  16              		.align	1
  17              		.arch armv7e-m
  18              		.syntax unified
  19              		.thumb
  20              		.thumb_func
  21              		.fpu fpv4-sp-d16
  23              	UART_EndRxTransfer:
  24              		@ args = 0, pretend = 0, frame = 0
  25              		@ frame_needed = 0, uses_anonymous_args = 0
  26              		@ link register save eliminated.
  27 0000 0368     		ldr	r3, [r0]
  28 0002 1A68     		ldr	r2, [r3]
  29 0004 22F49072 		bic	r2, r2, #288
  30 0008 1A60     		str	r2, [r3]
  31 000a 9A68     		ldr	r2, [r3, #8]
  32 000c 22F00102 		bic	r2, r2, #1
  33 0010 9A60     		str	r2, [r3, #8]
  34 0012 2023     		movs	r3, #32
  35 0014 80F86A30 		strb	r3, [r0, #106]
  36 0018 7047     		bx	lr
  38              		.section	.text.HAL_UART_MspInit,"ax",%progbits
  39              		.align	1
  40              		.weak	HAL_UART_MspInit
  41              		.syntax unified
  42              		.thumb
  43              		.thumb_func
  44              		.fpu fpv4-sp-d16
  46              	HAL_UART_MspInit:
  47              		@ args = 0, pretend = 0, frame = 0
  48              		@ frame_needed = 0, uses_anonymous_args = 0
  49              		@ link register save eliminated.
  50 0000 7047     		bx	lr
  52              		.section	.text.HAL_UART_MspDeInit,"ax",%progbits
  53              		.align	1
  54              		.weak	HAL_UART_MspDeInit
  55              		.syntax unified
  56              		.thumb
  57              		.thumb_func
  58              		.fpu fpv4-sp-d16
  60              	HAL_UART_MspDeInit:
  61              		@ args = 0, pretend = 0, frame = 0
  62              		@ frame_needed = 0, uses_anonymous_args = 0
ARM GAS  C:\Users\gyoku\AppData\Local\Temp\ccZMWtFk.s 			page 2


  63              		@ link register save eliminated.
  64 0000 7047     		bx	lr
  66              		.section	.text.HAL_UART_DeInit,"ax",%progbits
  67              		.align	1
  68              		.global	HAL_UART_DeInit
  69              		.syntax unified
  70              		.thumb
  71              		.thumb_func
  72              		.fpu fpv4-sp-d16
  74              	HAL_UART_DeInit:
  75              		@ args = 0, pretend = 0, frame = 0
  76              		@ frame_needed = 0, uses_anonymous_args = 0
  77 0000 38B5     		push	{r3, r4, r5, lr}
  78 0002 0546     		mov	r5, r0
  79 0004 B0B1     		cbz	r0, .L6
  80 0006 2423     		movs	r3, #36
  81 0008 80F86930 		strb	r3, [r0, #105]
  82 000c 0368     		ldr	r3, [r0]
  83 000e 1A68     		ldr	r2, [r3]
  84 0010 0024     		movs	r4, #0
  85 0012 22F00102 		bic	r2, r2, #1
  86 0016 1A60     		str	r2, [r3]
  87 0018 1C60     		str	r4, [r3]
  88 001a 5C60     		str	r4, [r3, #4]
  89 001c 9C60     		str	r4, [r3, #8]
  90 001e FFF7FEFF 		bl	HAL_UART_MspDeInit
  91 0022 EC66     		str	r4, [r5, #108]
  92 0024 85F86840 		strb	r4, [r5, #104]
  93 0028 85F86940 		strb	r4, [r5, #105]
  94 002c 2046     		mov	r0, r4
  95 002e 85F86A40 		strb	r4, [r5, #106]
  96              	.L5:
  97 0032 38BD     		pop	{r3, r4, r5, pc}
  98              	.L6:
  99 0034 0120     		movs	r0, #1
 100 0036 FCE7     		b	.L5
 102              		.section	.text.HAL_UART_Transmit_IT,"ax",%progbits
 103              		.align	1
 104              		.global	HAL_UART_Transmit_IT
 105              		.syntax unified
 106              		.thumb
 107              		.thumb_func
 108              		.fpu fpv4-sp-d16
 110              	HAL_UART_Transmit_IT:
 111              		@ args = 0, pretend = 0, frame = 0
 112              		@ frame_needed = 0, uses_anonymous_args = 0
 113              		@ link register save eliminated.
 114 0000 90F86930 		ldrb	r3, [r0, #105]	@ zero_extendqisi2
 115 0004 202B     		cmp	r3, #32
 116 0006 1AD1     		bne	.L12
 117 0008 B9B1     		cbz	r1, .L11
 118 000a B2B1     		cbz	r2, .L11
 119 000c 90F86830 		ldrb	r3, [r0, #104]	@ zero_extendqisi2
 120 0010 012B     		cmp	r3, #1
 121 0012 14D0     		beq	.L12
 122 0014 A0F85220 		strh	r2, [r0, #82]	@ movhi
 123 0018 C164     		str	r1, [r0, #76]
ARM GAS  C:\Users\gyoku\AppData\Local\Temp\ccZMWtFk.s 			page 3


 124 001a A0F85020 		strh	r2, [r0, #80]	@ movhi
 125 001e 0023     		movs	r3, #0
 126 0020 0168     		ldr	r1, [r0]
 127 0022 C366     		str	r3, [r0, #108]
 128 0024 2122     		movs	r2, #33
 129 0026 80F86920 		strb	r2, [r0, #105]
 130 002a 0A68     		ldr	r2, [r1]
 131 002c 80F86830 		strb	r3, [r0, #104]
 132 0030 42F08002 		orr	r2, r2, #128
 133 0034 0A60     		str	r2, [r1]
 134 0036 1846     		mov	r0, r3
 135 0038 7047     		bx	lr
 136              	.L11:
 137 003a 0120     		movs	r0, #1
 138 003c 7047     		bx	lr
 139              	.L12:
 140 003e 0220     		movs	r0, #2
 141 0040 7047     		bx	lr
 143              		.section	.text.HAL_UART_Receive_IT,"ax",%progbits
 144              		.align	1
 145              		.global	HAL_UART_Receive_IT
 146              		.syntax unified
 147              		.thumb
 148              		.thumb_func
 149              		.fpu fpv4-sp-d16
 151              	HAL_UART_Receive_IT:
 152              		@ args = 0, pretend = 0, frame = 0
 153              		@ frame_needed = 0, uses_anonymous_args = 0
 154              		@ link register save eliminated.
 155 0000 90F86A30 		ldrb	r3, [r0, #106]	@ zero_extendqisi2
 156 0004 202B     		cmp	r3, #32
 157 0006 3DD1     		bne	.L23
 158 0008 0029     		cmp	r1, #0
 159 000a 39D0     		beq	.L22
 160 000c 002A     		cmp	r2, #0
 161 000e 37D0     		beq	.L22
 162 0010 90F86830 		ldrb	r3, [r0, #104]	@ zero_extendqisi2
 163 0014 012B     		cmp	r3, #1
 164 0016 35D0     		beq	.L23
 165 0018 0123     		movs	r3, #1
 166 001a 80F86830 		strb	r3, [r0, #104]
 167 001e 8368     		ldr	r3, [r0, #8]
 168 0020 4165     		str	r1, [r0, #84]
 169 0022 B3F5805F 		cmp	r3, #4096
 170 0026 A0F85820 		strh	r2, [r0, #88]	@ movhi
 171 002a A0F85A20 		strh	r2, [r0, #90]	@ movhi
 172 002e 19D1     		bne	.L15
 173 0030 0369     		ldr	r3, [r0, #16]
 174 0032 ABB9     		cbnz	r3, .L16
 175 0034 40F2FF13 		movw	r3, #511
 176              	.L30:
 177 0038 A0F85C30 		strh	r3, [r0, #92]	@ movhi
 178              	.L17:
 179 003c 0023     		movs	r3, #0
 180 003e 2222     		movs	r2, #34
 181 0040 C366     		str	r3, [r0, #108]
 182 0042 80F86A20 		strb	r2, [r0, #106]
ARM GAS  C:\Users\gyoku\AppData\Local\Temp\ccZMWtFk.s 			page 4


 183 0046 0268     		ldr	r2, [r0]
 184 0048 80F86830 		strb	r3, [r0, #104]
 185 004c 9168     		ldr	r1, [r2, #8]
 186 004e 41F00101 		orr	r1, r1, #1
 187 0052 9160     		str	r1, [r2, #8]
 188 0054 1168     		ldr	r1, [r2]
 189 0056 41F49071 		orr	r1, r1, #288
 190 005a 1160     		str	r1, [r2]
 191 005c 1846     		mov	r0, r3
 192 005e 7047     		bx	lr
 193              	.L16:
 194 0060 FF23     		movs	r3, #255
 195 0062 E9E7     		b	.L30
 196              	.L15:
 197 0064 23B9     		cbnz	r3, .L18
 198 0066 0369     		ldr	r3, [r0, #16]
 199 0068 002B     		cmp	r3, #0
 200 006a F9D0     		beq	.L16
 201              	.L19:
 202 006c 7F23     		movs	r3, #127
 203 006e E3E7     		b	.L30
 204              	.L18:
 205 0070 B3F1805F 		cmp	r3, #268435456
 206 0074 E2D1     		bne	.L17
 207 0076 0369     		ldr	r3, [r0, #16]
 208 0078 002B     		cmp	r3, #0
 209 007a F7D0     		beq	.L19
 210 007c 3F23     		movs	r3, #63
 211 007e DBE7     		b	.L30
 212              	.L22:
 213 0080 0120     		movs	r0, #1
 214 0082 7047     		bx	lr
 215              	.L23:
 216 0084 0220     		movs	r0, #2
 217 0086 7047     		bx	lr
 219              		.section	.text.HAL_UART_Transmit_DMA,"ax",%progbits
 220              		.align	1
 221              		.global	HAL_UART_Transmit_DMA
 222              		.syntax unified
 223              		.thumb
 224              		.thumb_func
 225              		.fpu fpv4-sp-d16
 227              	HAL_UART_Transmit_DMA:
 228              		@ args = 0, pretend = 0, frame = 0
 229              		@ frame_needed = 0, uses_anonymous_args = 0
 230 0000 38B5     		push	{r3, r4, r5, lr}
 231 0002 0446     		mov	r4, r0
 232 0004 1346     		mov	r3, r2
 233 0006 94F86920 		ldrb	r2, [r4, #105]	@ zero_extendqisi2
 234 000a 202A     		cmp	r2, #32
 235 000c 2BD1     		bne	.L36
 236 000e 41B3     		cbz	r1, .L35
 237 0010 3BB3     		cbz	r3, .L35
 238 0012 94F86820 		ldrb	r2, [r4, #104]	@ zero_extendqisi2
 239 0016 012A     		cmp	r2, #1
 240 0018 25D0     		beq	.L36
 241 001a 0122     		movs	r2, #1
ARM GAS  C:\Users\gyoku\AppData\Local\Temp\ccZMWtFk.s 			page 5


 242 001c 84F86820 		strb	r2, [r4, #104]
 243 0020 0025     		movs	r5, #0
 244 0022 206E     		ldr	r0, [r4, #96]
 245 0024 A4F85230 		strh	r3, [r4, #82]	@ movhi
 246 0028 2122     		movs	r2, #33
 247 002a E566     		str	r5, [r4, #108]
 248 002c 84F86920 		strb	r2, [r4, #105]
 249 0030 0E4A     		ldr	r2, .L37
 250 0032 A4F85030 		strh	r3, [r4, #80]	@ movhi
 251 0036 E164     		str	r1, [r4, #76]
 252 0038 8262     		str	r2, [r0, #40]
 253 003a 0D4A     		ldr	r2, .L37+4
 254 003c C262     		str	r2, [r0, #44]
 255 003e 0D4A     		ldr	r2, .L37+8
 256 0040 C0E90C25 		strd	r2, r5, [r0, #48]
 257 0044 2268     		ldr	r2, [r4]
 258 0046 2832     		adds	r2, r2, #40
 259 0048 FFF7FEFF 		bl	HAL_DMA_Start_IT
 260 004c 2368     		ldr	r3, [r4]
 261 004e 4022     		movs	r2, #64
 262 0050 1A62     		str	r2, [r3, #32]
 263 0052 9A68     		ldr	r2, [r3, #8]
 264 0054 84F86850 		strb	r5, [r4, #104]
 265 0058 42F08002 		orr	r2, r2, #128
 266 005c 9A60     		str	r2, [r3, #8]
 267 005e 2846     		mov	r0, r5
 268              	.L32:
 269 0060 38BD     		pop	{r3, r4, r5, pc}
 270              	.L35:
 271 0062 0120     		movs	r0, #1
 272 0064 FCE7     		b	.L32
 273              	.L36:
 274 0066 0220     		movs	r0, #2
 275 0068 FAE7     		b	.L32
 276              	.L38:
 277 006a 00BF     		.align	2
 278              	.L37:
 279 006c 00000000 		.word	UART_DMATransmitCplt
 280 0070 00000000 		.word	UART_DMATxHalfCplt
 281 0074 00000000 		.word	UART_DMAError
 283              		.section	.text.HAL_UART_Receive_DMA,"ax",%progbits
 284              		.align	1
 285              		.global	HAL_UART_Receive_DMA
 286              		.syntax unified
 287              		.thumb
 288              		.thumb_func
 289              		.fpu fpv4-sp-d16
 291              	HAL_UART_Receive_DMA:
 292              		@ args = 0, pretend = 0, frame = 0
 293              		@ frame_needed = 0, uses_anonymous_args = 0
 294 0000 1346     		mov	r3, r2
 295 0002 90F86A20 		ldrb	r2, [r0, #106]	@ zero_extendqisi2
 296 0006 202A     		cmp	r2, #32
 297 0008 70B5     		push	{r4, r5, r6, lr}
 298 000a 0446     		mov	r4, r0
 299 000c 31D1     		bne	.L44
 300 000e 71B3     		cbz	r1, .L43
ARM GAS  C:\Users\gyoku\AppData\Local\Temp\ccZMWtFk.s 			page 6


 301 0010 6BB3     		cbz	r3, .L43
 302 0012 90F86820 		ldrb	r2, [r0, #104]	@ zero_extendqisi2
 303 0016 012A     		cmp	r2, #1
 304 0018 2BD0     		beq	.L44
 305 001a 0122     		movs	r2, #1
 306 001c 0025     		movs	r5, #0
 307 001e 80F86820 		strb	r2, [r0, #104]
 308 0022 2222     		movs	r2, #34
 309 0024 4165     		str	r1, [r0, #84]
 310 0026 A0F85830 		strh	r3, [r0, #88]	@ movhi
 311 002a C566     		str	r5, [r0, #108]
 312 002c 80F86A20 		strb	r2, [r0, #106]
 313 0030 406E     		ldr	r0, [r0, #100]
 314 0032 114A     		ldr	r2, .L45
 315 0034 8262     		str	r2, [r0, #40]
 316 0036 114A     		ldr	r2, .L45+4
 317 0038 C262     		str	r2, [r0, #44]
 318 003a 2668     		ldr	r6, [r4]
 319 003c 104A     		ldr	r2, .L45+8
 320 003e C0E90C25 		strd	r2, r5, [r0, #48]
 321 0042 0A46     		mov	r2, r1
 322 0044 06F12401 		add	r1, r6, #36
 323 0048 FFF7FEFF 		bl	HAL_DMA_Start_IT
 324 004c 2368     		ldr	r3, [r4]
 325 004e 84F86850 		strb	r5, [r4, #104]
 326 0052 1A68     		ldr	r2, [r3]
 327 0054 42F48072 		orr	r2, r2, #256
 328 0058 1A60     		str	r2, [r3]
 329 005a 9A68     		ldr	r2, [r3, #8]
 330 005c 42F00102 		orr	r2, r2, #1
 331 0060 9A60     		str	r2, [r3, #8]
 332 0062 9A68     		ldr	r2, [r3, #8]
 333 0064 42F04002 		orr	r2, r2, #64
 334 0068 9A60     		str	r2, [r3, #8]
 335 006a 2846     		mov	r0, r5
 336              	.L40:
 337 006c 70BD     		pop	{r4, r5, r6, pc}
 338              	.L43:
 339 006e 0120     		movs	r0, #1
 340 0070 FCE7     		b	.L40
 341              	.L44:
 342 0072 0220     		movs	r0, #2
 343 0074 FAE7     		b	.L40
 344              	.L46:
 345 0076 00BF     		.align	2
 346              	.L45:
 347 0078 00000000 		.word	UART_DMAReceiveCplt
 348 007c 00000000 		.word	UART_DMARxHalfCplt
 349 0080 00000000 		.word	UART_DMAError
 351              		.section	.text.HAL_UART_DMAPause,"ax",%progbits
 352              		.align	1
 353              		.global	HAL_UART_DMAPause
 354              		.syntax unified
 355              		.thumb
 356              		.thumb_func
 357              		.fpu fpv4-sp-d16
 359              	HAL_UART_DMAPause:
ARM GAS  C:\Users\gyoku\AppData\Local\Temp\ccZMWtFk.s 			page 7


 360              		@ args = 0, pretend = 0, frame = 0
 361              		@ frame_needed = 0, uses_anonymous_args = 0
 362              		@ link register save eliminated.
 363 0000 90F86830 		ldrb	r3, [r0, #104]	@ zero_extendqisi2
 364 0004 012B     		cmp	r3, #1
 365 0006 27D0     		beq	.L51
 366 0008 0123     		movs	r3, #1
 367 000a 80F86830 		strb	r3, [r0, #104]
 368 000e 90F86930 		ldrb	r3, [r0, #105]	@ zero_extendqisi2
 369 0012 212B     		cmp	r3, #33
 370 0014 07D1     		bne	.L49
 371 0016 0368     		ldr	r3, [r0]
 372 0018 9A68     		ldr	r2, [r3, #8]
 373 001a 1106     		lsls	r1, r2, #24
 374 001c 42BF     		ittt	mi
 375 001e 9A68     		ldrmi	r2, [r3, #8]
 376 0020 22F08002 		bicmi	r2, r2, #128
 377 0024 9A60     		strmi	r2, [r3, #8]
 378              	.L49:
 379 0026 90F86A30 		ldrb	r3, [r0, #106]	@ zero_extendqisi2
 380 002a 222B     		cmp	r3, #34
 381 002c 0FD1     		bne	.L50
 382 002e 0368     		ldr	r3, [r0]
 383 0030 9A68     		ldr	r2, [r3, #8]
 384 0032 5206     		lsls	r2, r2, #25
 385 0034 0BD5     		bpl	.L50
 386 0036 1A68     		ldr	r2, [r3]
 387 0038 22F48072 		bic	r2, r2, #256
 388 003c 1A60     		str	r2, [r3]
 389 003e 9A68     		ldr	r2, [r3, #8]
 390 0040 22F00102 		bic	r2, r2, #1
 391 0044 9A60     		str	r2, [r3, #8]
 392 0046 9A68     		ldr	r2, [r3, #8]
 393 0048 22F04002 		bic	r2, r2, #64
 394 004c 9A60     		str	r2, [r3, #8]
 395              	.L50:
 396 004e 0023     		movs	r3, #0
 397 0050 80F86830 		strb	r3, [r0, #104]
 398 0054 1846     		mov	r0, r3
 399 0056 7047     		bx	lr
 400              	.L51:
 401 0058 0220     		movs	r0, #2
 402 005a 7047     		bx	lr
 404              		.section	.text.HAL_UART_DMAResume,"ax",%progbits
 405              		.align	1
 406              		.global	HAL_UART_DMAResume
 407              		.syntax unified
 408              		.thumb
 409              		.thumb_func
 410              		.fpu fpv4-sp-d16
 412              	HAL_UART_DMAResume:
 413              		@ args = 0, pretend = 0, frame = 0
 414              		@ frame_needed = 0, uses_anonymous_args = 0
 415              		@ link register save eliminated.
 416 0000 90F86830 		ldrb	r3, [r0, #104]	@ zero_extendqisi2
 417 0004 012B     		cmp	r3, #1
 418 0006 23D0     		beq	.L62
ARM GAS  C:\Users\gyoku\AppData\Local\Temp\ccZMWtFk.s 			page 8


 419 0008 0123     		movs	r3, #1
 420 000a 80F86830 		strb	r3, [r0, #104]
 421 000e 90F86930 		ldrb	r3, [r0, #105]	@ zero_extendqisi2
 422 0012 212B     		cmp	r3, #33
 423 0014 01BF     		itttt	eq
 424 0016 0268     		ldreq	r2, [r0]
 425 0018 9368     		ldreq	r3, [r2, #8]
 426 001a 43F08003 		orreq	r3, r3, #128
 427 001e 9360     		streq	r3, [r2, #8]
 428 0020 90F86A30 		ldrb	r3, [r0, #106]	@ zero_extendqisi2
 429 0024 222B     		cmp	r3, #34
 430 0026 0ED1     		bne	.L61
 431 0028 0368     		ldr	r3, [r0]
 432 002a 0822     		movs	r2, #8
 433 002c 1A62     		str	r2, [r3, #32]
 434 002e 1A68     		ldr	r2, [r3]
 435 0030 42F48072 		orr	r2, r2, #256
 436 0034 1A60     		str	r2, [r3]
 437 0036 9A68     		ldr	r2, [r3, #8]
 438 0038 42F00102 		orr	r2, r2, #1
 439 003c 9A60     		str	r2, [r3, #8]
 440 003e 9A68     		ldr	r2, [r3, #8]
 441 0040 42F04002 		orr	r2, r2, #64
 442 0044 9A60     		str	r2, [r3, #8]
 443              	.L61:
 444 0046 0023     		movs	r3, #0
 445 0048 80F86830 		strb	r3, [r0, #104]
 446 004c 1846     		mov	r0, r3
 447 004e 7047     		bx	lr
 448              	.L62:
 449 0050 0220     		movs	r0, #2
 450 0052 7047     		bx	lr
 452              		.section	.text.HAL_UART_DMAStop,"ax",%progbits
 453              		.align	1
 454              		.global	HAL_UART_DMAStop
 455              		.syntax unified
 456              		.thumb
 457              		.thumb_func
 458              		.fpu fpv4-sp-d16
 460              	HAL_UART_DMAStop:
 461              		@ args = 0, pretend = 0, frame = 0
 462              		@ frame_needed = 0, uses_anonymous_args = 0
 463 0000 90F86930 		ldrb	r3, [r0, #105]	@ zero_extendqisi2
 464 0004 212B     		cmp	r3, #33
 465 0006 10B5     		push	{r4, lr}
 466 0008 0446     		mov	r4, r0
 467 000a 13D1     		bne	.L64
 468 000c 0368     		ldr	r3, [r0]
 469 000e 9A68     		ldr	r2, [r3, #8]
 470 0010 1106     		lsls	r1, r2, #24
 471 0012 0FD5     		bpl	.L64
 472 0014 9A68     		ldr	r2, [r3, #8]
 473 0016 006E     		ldr	r0, [r0, #96]
 474 0018 22F08002 		bic	r2, r2, #128
 475 001c 9A60     		str	r2, [r3, #8]
 476 001e 08B1     		cbz	r0, .L65
 477 0020 FFF7FEFF 		bl	HAL_DMA_Abort
ARM GAS  C:\Users\gyoku\AppData\Local\Temp\ccZMWtFk.s 			page 9


 478              	.L65:
 479 0024 2268     		ldr	r2, [r4]
 480 0026 1368     		ldr	r3, [r2]
 481 0028 23F0C003 		bic	r3, r3, #192
 482 002c 1360     		str	r3, [r2]
 483 002e 2023     		movs	r3, #32
 484 0030 84F86930 		strb	r3, [r4, #105]
 485              	.L64:
 486 0034 94F86A30 		ldrb	r3, [r4, #106]	@ zero_extendqisi2
 487 0038 222B     		cmp	r3, #34
 488 003a 0ED1     		bne	.L66
 489 003c 2368     		ldr	r3, [r4]
 490 003e 9A68     		ldr	r2, [r3, #8]
 491 0040 5206     		lsls	r2, r2, #25
 492 0042 0AD5     		bpl	.L66
 493 0044 9A68     		ldr	r2, [r3, #8]
 494 0046 606E     		ldr	r0, [r4, #100]
 495 0048 22F04002 		bic	r2, r2, #64
 496 004c 9A60     		str	r2, [r3, #8]
 497 004e 08B1     		cbz	r0, .L67
 498 0050 FFF7FEFF 		bl	HAL_DMA_Abort
 499              	.L67:
 500 0054 2046     		mov	r0, r4
 501 0056 FFF7FEFF 		bl	UART_EndRxTransfer
 502              	.L66:
 503 005a 0020     		movs	r0, #0
 504 005c 10BD     		pop	{r4, pc}
 506              		.section	.text.HAL_UART_Abort,"ax",%progbits
 507              		.align	1
 508              		.global	HAL_UART_Abort
 509              		.syntax unified
 510              		.thumb
 511              		.thumb_func
 512              		.fpu fpv4-sp-d16
 514              	HAL_UART_Abort:
 515              		@ args = 0, pretend = 0, frame = 0
 516              		@ frame_needed = 0, uses_anonymous_args = 0
 517 0000 0368     		ldr	r3, [r0]
 518 0002 1A68     		ldr	r2, [r3]
 519 0004 22F4F072 		bic	r2, r2, #480
 520 0008 10B5     		push	{r4, lr}
 521 000a 1A60     		str	r2, [r3]
 522 000c 9A68     		ldr	r2, [r3, #8]
 523 000e 22F00102 		bic	r2, r2, #1
 524 0012 9A60     		str	r2, [r3, #8]
 525 0014 9A68     		ldr	r2, [r3, #8]
 526 0016 1106     		lsls	r1, r2, #24
 527 0018 0446     		mov	r4, r0
 528 001a 09D5     		bpl	.L82
 529 001c 9A68     		ldr	r2, [r3, #8]
 530 001e 006E     		ldr	r0, [r0, #96]
 531 0020 22F08002 		bic	r2, r2, #128
 532 0024 9A60     		str	r2, [r3, #8]
 533 0026 18B1     		cbz	r0, .L82
 534 0028 0023     		movs	r3, #0
 535 002a 4363     		str	r3, [r0, #52]
 536 002c FFF7FEFF 		bl	HAL_DMA_Abort
ARM GAS  C:\Users\gyoku\AppData\Local\Temp\ccZMWtFk.s 			page 10


 537              	.L82:
 538 0030 2368     		ldr	r3, [r4]
 539 0032 9A68     		ldr	r2, [r3, #8]
 540 0034 5206     		lsls	r2, r2, #25
 541 0036 09D5     		bpl	.L85
 542 0038 9A68     		ldr	r2, [r3, #8]
 543 003a 606E     		ldr	r0, [r4, #100]
 544 003c 22F04002 		bic	r2, r2, #64
 545 0040 9A60     		str	r2, [r3, #8]
 546 0042 18B1     		cbz	r0, .L85
 547 0044 0023     		movs	r3, #0
 548 0046 4363     		str	r3, [r0, #52]
 549 0048 FFF7FEFF 		bl	HAL_DMA_Abort
 550              	.L85:
 551 004c 2368     		ldr	r3, [r4]
 552 004e 0020     		movs	r0, #0
 553 0050 0F22     		movs	r2, #15
 554 0052 A4F85200 		strh	r0, [r4, #82]	@ movhi
 555 0056 A4F85A00 		strh	r0, [r4, #90]	@ movhi
 556 005a 1A62     		str	r2, [r3, #32]
 557 005c 2023     		movs	r3, #32
 558 005e 84F86930 		strb	r3, [r4, #105]
 559 0062 84F86A30 		strb	r3, [r4, #106]
 560 0066 E066     		str	r0, [r4, #108]
 561 0068 10BD     		pop	{r4, pc}
 563              		.section	.text.HAL_UART_AbortTransmit,"ax",%progbits
 564              		.align	1
 565              		.global	HAL_UART_AbortTransmit
 566              		.syntax unified
 567              		.thumb
 568              		.thumb_func
 569              		.fpu fpv4-sp-d16
 571              	HAL_UART_AbortTransmit:
 572              		@ args = 0, pretend = 0, frame = 0
 573              		@ frame_needed = 0, uses_anonymous_args = 0
 574 0000 0368     		ldr	r3, [r0]
 575 0002 1A68     		ldr	r2, [r3]
 576 0004 22F0C002 		bic	r2, r2, #192
 577 0008 10B5     		push	{r4, lr}
 578 000a 1A60     		str	r2, [r3]
 579 000c 9A68     		ldr	r2, [r3, #8]
 580 000e 1206     		lsls	r2, r2, #24
 581 0010 0446     		mov	r4, r0
 582 0012 09D5     		bpl	.L95
 583 0014 9A68     		ldr	r2, [r3, #8]
 584 0016 006E     		ldr	r0, [r0, #96]
 585 0018 22F08002 		bic	r2, r2, #128
 586 001c 9A60     		str	r2, [r3, #8]
 587 001e 18B1     		cbz	r0, .L95
 588 0020 0023     		movs	r3, #0
 589 0022 4363     		str	r3, [r0, #52]
 590 0024 FFF7FEFF 		bl	HAL_DMA_Abort
 591              	.L95:
 592 0028 0020     		movs	r0, #0
 593 002a 2023     		movs	r3, #32
 594 002c A4F85200 		strh	r0, [r4, #82]	@ movhi
 595 0030 84F86930 		strb	r3, [r4, #105]
ARM GAS  C:\Users\gyoku\AppData\Local\Temp\ccZMWtFk.s 			page 11


 596 0034 10BD     		pop	{r4, pc}
 598              		.section	.text.HAL_UART_AbortReceive,"ax",%progbits
 599              		.align	1
 600              		.global	HAL_UART_AbortReceive
 601              		.syntax unified
 602              		.thumb
 603              		.thumb_func
 604              		.fpu fpv4-sp-d16
 606              	HAL_UART_AbortReceive:
 607              		@ args = 0, pretend = 0, frame = 0
 608              		@ frame_needed = 0, uses_anonymous_args = 0
 609 0000 0368     		ldr	r3, [r0]
 610 0002 1A68     		ldr	r2, [r3]
 611 0004 22F49072 		bic	r2, r2, #288
 612 0008 10B5     		push	{r4, lr}
 613 000a 1A60     		str	r2, [r3]
 614 000c 9A68     		ldr	r2, [r3, #8]
 615 000e 22F00102 		bic	r2, r2, #1
 616 0012 9A60     		str	r2, [r3, #8]
 617 0014 9A68     		ldr	r2, [r3, #8]
 618 0016 5206     		lsls	r2, r2, #25
 619 0018 0446     		mov	r4, r0
 620 001a 09D5     		bpl	.L102
 621 001c 9A68     		ldr	r2, [r3, #8]
 622 001e 406E     		ldr	r0, [r0, #100]
 623 0020 22F04002 		bic	r2, r2, #64
 624 0024 9A60     		str	r2, [r3, #8]
 625 0026 18B1     		cbz	r0, .L102
 626 0028 0023     		movs	r3, #0
 627 002a 4363     		str	r3, [r0, #52]
 628 002c FFF7FEFF 		bl	HAL_DMA_Abort
 629              	.L102:
 630 0030 2368     		ldr	r3, [r4]
 631 0032 0020     		movs	r0, #0
 632 0034 0F22     		movs	r2, #15
 633 0036 A4F85A00 		strh	r0, [r4, #90]	@ movhi
 634 003a 1A62     		str	r2, [r3, #32]
 635 003c 2023     		movs	r3, #32
 636 003e 84F86A30 		strb	r3, [r4, #106]
 637 0042 10BD     		pop	{r4, pc}
 639              		.section	.text.HAL_UART_TxCpltCallback,"ax",%progbits
 640              		.align	1
 641              		.weak	HAL_UART_TxCpltCallback
 642              		.syntax unified
 643              		.thumb
 644              		.thumb_func
 645              		.fpu fpv4-sp-d16
 647              	HAL_UART_TxCpltCallback:
 648              		@ args = 0, pretend = 0, frame = 0
 649              		@ frame_needed = 0, uses_anonymous_args = 0
 650              		@ link register save eliminated.
 651 0000 7047     		bx	lr
 653              		.section	.text.UART_DMATransmitCplt,"ax",%progbits
 654              		.align	1
 655              		.syntax unified
 656              		.thumb
 657              		.thumb_func
ARM GAS  C:\Users\gyoku\AppData\Local\Temp\ccZMWtFk.s 			page 12


 658              		.fpu fpv4-sp-d16
 660              	UART_DMATransmitCplt:
 661              		@ args = 0, pretend = 0, frame = 0
 662              		@ frame_needed = 0, uses_anonymous_args = 0
 663 0000 08B5     		push	{r3, lr}
 664 0002 0368     		ldr	r3, [r0]
 665 0004 426A     		ldr	r2, [r0, #36]
 666 0006 1B68     		ldr	r3, [r3]
 667 0008 13F02003 		ands	r3, r3, #32
 668 000c 0BD1     		bne	.L109
 669 000e A2F85230 		strh	r3, [r2, #82]	@ movhi
 670 0012 1368     		ldr	r3, [r2]
 671 0014 9A68     		ldr	r2, [r3, #8]
 672 0016 22F08002 		bic	r2, r2, #128
 673 001a 9A60     		str	r2, [r3, #8]
 674 001c 1A68     		ldr	r2, [r3]
 675 001e 42F04002 		orr	r2, r2, #64
 676 0022 1A60     		str	r2, [r3]
 677              	.L108:
 678 0024 08BD     		pop	{r3, pc}
 679              	.L109:
 680 0026 1046     		mov	r0, r2
 681 0028 FFF7FEFF 		bl	HAL_UART_TxCpltCallback
 682 002c FAE7     		b	.L108
 684              		.section	.text.HAL_UART_TxHalfCpltCallback,"ax",%progbits
 685              		.align	1
 686              		.weak	HAL_UART_TxHalfCpltCallback
 687              		.syntax unified
 688              		.thumb
 689              		.thumb_func
 690              		.fpu fpv4-sp-d16
 692              	HAL_UART_TxHalfCpltCallback:
 693              		@ args = 0, pretend = 0, frame = 0
 694              		@ frame_needed = 0, uses_anonymous_args = 0
 695              		@ link register save eliminated.
 696 0000 7047     		bx	lr
 698              		.section	.text.UART_DMATxHalfCplt,"ax",%progbits
 699              		.align	1
 700              		.syntax unified
 701              		.thumb
 702              		.thumb_func
 703              		.fpu fpv4-sp-d16
 705              	UART_DMATxHalfCplt:
 706              		@ args = 0, pretend = 0, frame = 0
 707              		@ frame_needed = 0, uses_anonymous_args = 0
 708 0000 08B5     		push	{r3, lr}
 709 0002 406A     		ldr	r0, [r0, #36]
 710 0004 FFF7FEFF 		bl	HAL_UART_TxHalfCpltCallback
 711 0008 08BD     		pop	{r3, pc}
 713              		.section	.text.HAL_UART_RxCpltCallback,"ax",%progbits
 714              		.align	1
 715              		.weak	HAL_UART_RxCpltCallback
 716              		.syntax unified
 717              		.thumb
 718              		.thumb_func
 719              		.fpu fpv4-sp-d16
 721              	HAL_UART_RxCpltCallback:
ARM GAS  C:\Users\gyoku\AppData\Local\Temp\ccZMWtFk.s 			page 13


 722              		@ args = 0, pretend = 0, frame = 0
 723              		@ frame_needed = 0, uses_anonymous_args = 0
 724              		@ link register save eliminated.
 725 0000 7047     		bx	lr
 727              		.section	.text.UART_DMAReceiveCplt,"ax",%progbits
 728              		.align	1
 729              		.syntax unified
 730              		.thumb
 731              		.thumb_func
 732              		.fpu fpv4-sp-d16
 734              	UART_DMAReceiveCplt:
 735              		@ args = 0, pretend = 0, frame = 0
 736              		@ frame_needed = 0, uses_anonymous_args = 0
 737 0000 08B5     		push	{r3, lr}
 738 0002 0368     		ldr	r3, [r0]
 739 0004 426A     		ldr	r2, [r0, #36]
 740 0006 1B68     		ldr	r3, [r3]
 741 0008 13F02003 		ands	r3, r3, #32
 742 000c 11D1     		bne	.L115
 743 000e A2F85A30 		strh	r3, [r2, #90]	@ movhi
 744 0012 1368     		ldr	r3, [r2]
 745 0014 1968     		ldr	r1, [r3]
 746 0016 21F48071 		bic	r1, r1, #256
 747 001a 1960     		str	r1, [r3]
 748 001c 9968     		ldr	r1, [r3, #8]
 749 001e 21F00101 		bic	r1, r1, #1
 750 0022 9960     		str	r1, [r3, #8]
 751 0024 9968     		ldr	r1, [r3, #8]
 752 0026 21F04001 		bic	r1, r1, #64
 753 002a 9960     		str	r1, [r3, #8]
 754 002c 2023     		movs	r3, #32
 755 002e 82F86A30 		strb	r3, [r2, #106]
 756              	.L115:
 757 0032 1046     		mov	r0, r2
 758 0034 FFF7FEFF 		bl	HAL_UART_RxCpltCallback
 759 0038 08BD     		pop	{r3, pc}
 761              		.section	.text.HAL_UART_RxHalfCpltCallback,"ax",%progbits
 762              		.align	1
 763              		.weak	HAL_UART_RxHalfCpltCallback
 764              		.syntax unified
 765              		.thumb
 766              		.thumb_func
 767              		.fpu fpv4-sp-d16
 769              	HAL_UART_RxHalfCpltCallback:
 770              		@ args = 0, pretend = 0, frame = 0
 771              		@ frame_needed = 0, uses_anonymous_args = 0
 772              		@ link register save eliminated.
 773 0000 7047     		bx	lr
 775              		.section	.text.UART_DMARxHalfCplt,"ax",%progbits
 776              		.align	1
 777              		.syntax unified
 778              		.thumb
 779              		.thumb_func
 780              		.fpu fpv4-sp-d16
 782              	UART_DMARxHalfCplt:
 783              		@ args = 0, pretend = 0, frame = 0
 784              		@ frame_needed = 0, uses_anonymous_args = 0
ARM GAS  C:\Users\gyoku\AppData\Local\Temp\ccZMWtFk.s 			page 14


 785 0000 08B5     		push	{r3, lr}
 786 0002 406A     		ldr	r0, [r0, #36]
 787 0004 FFF7FEFF 		bl	HAL_UART_RxHalfCpltCallback
 788 0008 08BD     		pop	{r3, pc}
 790              		.section	.text.HAL_UART_ErrorCallback,"ax",%progbits
 791              		.align	1
 792              		.weak	HAL_UART_ErrorCallback
 793              		.syntax unified
 794              		.thumb
 795              		.thumb_func
 796              		.fpu fpv4-sp-d16
 798              	HAL_UART_ErrorCallback:
 799              		@ args = 0, pretend = 0, frame = 0
 800              		@ frame_needed = 0, uses_anonymous_args = 0
 801              		@ link register save eliminated.
 802 0000 7047     		bx	lr
 804              		.section	.text.UART_DMAError,"ax",%progbits
 805              		.align	1
 806              		.syntax unified
 807              		.thumb
 808              		.thumb_func
 809              		.fpu fpv4-sp-d16
 811              	UART_DMAError:
 812              		@ args = 0, pretend = 0, frame = 0
 813              		@ frame_needed = 0, uses_anonymous_args = 0
 814 0000 416A     		ldr	r1, [r0, #36]
 815 0002 08B5     		push	{r3, lr}
 816 0004 91F86930 		ldrb	r3, [r1, #105]	@ zero_extendqisi2
 817 0008 212B     		cmp	r3, #33
 818 000a 0DD1     		bne	.L120
 819 000c 0B68     		ldr	r3, [r1]
 820 000e 9A68     		ldr	r2, [r3, #8]
 821 0010 1206     		lsls	r2, r2, #24
 822 0012 09D5     		bpl	.L120
 823 0014 0022     		movs	r2, #0
 824 0016 A1F85220 		strh	r2, [r1, #82]	@ movhi
 825 001a 1A68     		ldr	r2, [r3]
 826 001c 22F0C002 		bic	r2, r2, #192
 827 0020 1A60     		str	r2, [r3]
 828 0022 2023     		movs	r3, #32
 829 0024 81F86930 		strb	r3, [r1, #105]
 830              	.L120:
 831 0028 91F86A30 		ldrb	r3, [r1, #106]	@ zero_extendqisi2
 832 002c 222B     		cmp	r3, #34
 833 002e 09D1     		bne	.L121
 834 0030 0B68     		ldr	r3, [r1]
 835 0032 9B68     		ldr	r3, [r3, #8]
 836 0034 5B06     		lsls	r3, r3, #25
 837 0036 05D5     		bpl	.L121
 838 0038 0023     		movs	r3, #0
 839 003a A1F85A30 		strh	r3, [r1, #90]	@ movhi
 840 003e 0846     		mov	r0, r1
 841 0040 FFF7FEFF 		bl	UART_EndRxTransfer
 842              	.L121:
 843 0044 CB6E     		ldr	r3, [r1, #108]
 844 0046 43F01003 		orr	r3, r3, #16
 845 004a CB66     		str	r3, [r1, #108]
ARM GAS  C:\Users\gyoku\AppData\Local\Temp\ccZMWtFk.s 			page 15


 846 004c 0846     		mov	r0, r1
 847 004e FFF7FEFF 		bl	HAL_UART_ErrorCallback
 848 0052 08BD     		pop	{r3, pc}
 850              		.section	.text.UART_DMAAbortOnError,"ax",%progbits
 851              		.align	1
 852              		.syntax unified
 853              		.thumb
 854              		.thumb_func
 855              		.fpu fpv4-sp-d16
 857              	UART_DMAAbortOnError:
 858              		@ args = 0, pretend = 0, frame = 0
 859              		@ frame_needed = 0, uses_anonymous_args = 0
 860 0000 08B5     		push	{r3, lr}
 861 0002 406A     		ldr	r0, [r0, #36]
 862 0004 0023     		movs	r3, #0
 863 0006 A0F85A30 		strh	r3, [r0, #90]	@ movhi
 864 000a A0F85230 		strh	r3, [r0, #82]	@ movhi
 865 000e FFF7FEFF 		bl	HAL_UART_ErrorCallback
 866 0012 08BD     		pop	{r3, pc}
 868              		.section	.text.HAL_UART_AbortCpltCallback,"ax",%progbits
 869              		.align	1
 870              		.weak	HAL_UART_AbortCpltCallback
 871              		.syntax unified
 872              		.thumb
 873              		.thumb_func
 874              		.fpu fpv4-sp-d16
 876              	HAL_UART_AbortCpltCallback:
 877              		@ args = 0, pretend = 0, frame = 0
 878              		@ frame_needed = 0, uses_anonymous_args = 0
 879              		@ link register save eliminated.
 880 0000 7047     		bx	lr
 882              		.section	.text.HAL_UART_Abort_IT,"ax",%progbits
 883              		.align	1
 884              		.global	HAL_UART_Abort_IT
 885              		.syntax unified
 886              		.thumb
 887              		.thumb_func
 888              		.fpu fpv4-sp-d16
 890              	HAL_UART_Abort_IT:
 891              		@ args = 0, pretend = 0, frame = 0
 892              		@ frame_needed = 0, uses_anonymous_args = 0
 893 0000 0368     		ldr	r3, [r0]
 894 0002 1A68     		ldr	r2, [r3]
 895 0004 22F4F072 		bic	r2, r2, #480
 896 0008 10B5     		push	{r4, lr}
 897 000a 1A60     		str	r2, [r3]
 898 000c 9A68     		ldr	r2, [r3, #8]
 899 000e 0446     		mov	r4, r0
 900 0010 006E     		ldr	r0, [r0, #96]
 901 0012 22F00102 		bic	r2, r2, #1
 902 0016 9A60     		str	r2, [r3, #8]
 903 0018 28B1     		cbz	r0, .L131
 904 001a 9A68     		ldr	r2, [r3, #8]
 905 001c 12F08002 		ands	r2, r2, #128
 906 0020 18BF     		it	ne
 907 0022 214A     		ldrne	r2, .L160
 908 0024 4263     		str	r2, [r0, #52]
ARM GAS  C:\Users\gyoku\AppData\Local\Temp\ccZMWtFk.s 			page 16


 909              	.L131:
 910 0026 616E     		ldr	r1, [r4, #100]
 911 0028 29B1     		cbz	r1, .L133
 912 002a 9A68     		ldr	r2, [r3, #8]
 913 002c 12F04002 		ands	r2, r2, #64
 914 0030 18BF     		it	ne
 915 0032 1E4A     		ldrne	r2, .L160+4
 916 0034 4A63     		str	r2, [r1, #52]
 917              	.L133:
 918 0036 9A68     		ldr	r2, [r3, #8]
 919 0038 1206     		lsls	r2, r2, #24
 920 003a 22D4     		bmi	.L135
 921              	.L159:
 922 003c 0123     		movs	r3, #1
 923              	.L136:
 924 003e 2268     		ldr	r2, [r4]
 925 0040 9168     		ldr	r1, [r2, #8]
 926 0042 4906     		lsls	r1, r1, #25
 927 0044 2CD5     		bpl	.L138
 928 0046 9168     		ldr	r1, [r2, #8]
 929 0048 606E     		ldr	r0, [r4, #100]
 930 004a 21F04001 		bic	r1, r1, #64
 931 004e 9160     		str	r1, [r2, #8]
 932 0050 30B3     		cbz	r0, .L138
 933 0052 FFF7FEFF 		bl	HAL_DMA_Abort_IT
 934 0056 28B3     		cbz	r0, .L140
 935 0058 636E     		ldr	r3, [r4, #100]
 936 005a 0022     		movs	r2, #0
 937 005c 5A63     		str	r2, [r3, #52]
 938              	.L141:
 939 005e 0023     		movs	r3, #0
 940 0060 A4F85230 		strh	r3, [r4, #82]	@ movhi
 941 0064 A4F85A30 		strh	r3, [r4, #90]	@ movhi
 942 0068 E366     		str	r3, [r4, #108]
 943 006a 2368     		ldr	r3, [r4]
 944 006c 0F22     		movs	r2, #15
 945 006e 1A62     		str	r2, [r3, #32]
 946 0070 2023     		movs	r3, #32
 947 0072 84F86930 		strb	r3, [r4, #105]
 948 0076 2046     		mov	r0, r4
 949 0078 84F86A30 		strb	r3, [r4, #106]
 950 007c FFF7FEFF 		bl	HAL_UART_AbortCpltCallback
 951 0080 10E0     		b	.L140
 952              	.L135:
 953 0082 9A68     		ldr	r2, [r3, #8]
 954 0084 22F08002 		bic	r2, r2, #128
 955 0088 9A60     		str	r2, [r3, #8]
 956 008a 0028     		cmp	r0, #0
 957 008c D6D0     		beq	.L159
 958 008e FFF7FEFF 		bl	HAL_DMA_Abort_IT
 959 0092 18B1     		cbz	r0, .L143
 960 0094 236E     		ldr	r3, [r4, #96]
 961 0096 0022     		movs	r2, #0
 962 0098 5A63     		str	r2, [r3, #52]
 963 009a CFE7     		b	.L159
 964              	.L143:
 965 009c 0346     		mov	r3, r0
ARM GAS  C:\Users\gyoku\AppData\Local\Temp\ccZMWtFk.s 			page 17


 966 009e CEE7     		b	.L136
 967              	.L138:
 968 00a0 002B     		cmp	r3, #0
 969 00a2 DCD1     		bne	.L141
 970              	.L140:
 971 00a4 0020     		movs	r0, #0
 972 00a6 10BD     		pop	{r4, pc}
 973              	.L161:
 974              		.align	2
 975              	.L160:
 976 00a8 00000000 		.word	UART_DMATxAbortCallback
 977 00ac 00000000 		.word	UART_DMARxAbortCallback
 979              		.section	.text.UART_DMARxAbortCallback,"ax",%progbits
 980              		.align	1
 981              		.syntax unified
 982              		.thumb
 983              		.thumb_func
 984              		.fpu fpv4-sp-d16
 986              	UART_DMARxAbortCallback:
 987              		@ args = 0, pretend = 0, frame = 0
 988              		@ frame_needed = 0, uses_anonymous_args = 0
 989 0000 406A     		ldr	r0, [r0, #36]
 990 0002 426E     		ldr	r2, [r0, #100]
 991 0004 08B5     		push	{r3, lr}
 992 0006 0023     		movs	r3, #0
 993 0008 5363     		str	r3, [r2, #52]
 994 000a 026E     		ldr	r2, [r0, #96]
 995 000c 0AB1     		cbz	r2, .L163
 996 000e 526B     		ldr	r2, [r2, #52]
 997 0010 72B9     		cbnz	r2, .L162
 998              	.L163:
 999 0012 A0F85230 		strh	r3, [r0, #82]	@ movhi
 1000 0016 A0F85A30 		strh	r3, [r0, #90]	@ movhi
 1001 001a C366     		str	r3, [r0, #108]
 1002 001c 0368     		ldr	r3, [r0]
 1003 001e 0F22     		movs	r2, #15
 1004 0020 1A62     		str	r2, [r3, #32]
 1005 0022 2023     		movs	r3, #32
 1006 0024 80F86930 		strb	r3, [r0, #105]
 1007 0028 80F86A30 		strb	r3, [r0, #106]
 1008 002c FFF7FEFF 		bl	HAL_UART_AbortCpltCallback
 1009              	.L162:
 1010 0030 08BD     		pop	{r3, pc}
 1012              		.section	.text.UART_DMATxAbortCallback,"ax",%progbits
 1013              		.align	1
 1014              		.syntax unified
 1015              		.thumb
 1016              		.thumb_func
 1017              		.fpu fpv4-sp-d16
 1019              	UART_DMATxAbortCallback:
 1020              		@ args = 0, pretend = 0, frame = 0
 1021              		@ frame_needed = 0, uses_anonymous_args = 0
 1022 0000 406A     		ldr	r0, [r0, #36]
 1023 0002 026E     		ldr	r2, [r0, #96]
 1024 0004 08B5     		push	{r3, lr}
 1025 0006 0023     		movs	r3, #0
 1026 0008 5363     		str	r3, [r2, #52]
ARM GAS  C:\Users\gyoku\AppData\Local\Temp\ccZMWtFk.s 			page 18


 1027 000a 426E     		ldr	r2, [r0, #100]
 1028 000c 0AB1     		cbz	r2, .L169
 1029 000e 526B     		ldr	r2, [r2, #52]
 1030 0010 72B9     		cbnz	r2, .L168
 1031              	.L169:
 1032 0012 A0F85230 		strh	r3, [r0, #82]	@ movhi
 1033 0016 A0F85A30 		strh	r3, [r0, #90]	@ movhi
 1034 001a C366     		str	r3, [r0, #108]
 1035 001c 0368     		ldr	r3, [r0]
 1036 001e 0F22     		movs	r2, #15
 1037 0020 1A62     		str	r2, [r3, #32]
 1038 0022 2023     		movs	r3, #32
 1039 0024 80F86930 		strb	r3, [r0, #105]
 1040 0028 80F86A30 		strb	r3, [r0, #106]
 1041 002c FFF7FEFF 		bl	HAL_UART_AbortCpltCallback
 1042              	.L168:
 1043 0030 08BD     		pop	{r3, pc}
 1045              		.section	.text.HAL_UART_AbortTransmitCpltCallback,"ax",%progbits
 1046              		.align	1
 1047              		.weak	HAL_UART_AbortTransmitCpltCallback
 1048              		.syntax unified
 1049              		.thumb
 1050              		.thumb_func
 1051              		.fpu fpv4-sp-d16
 1053              	HAL_UART_AbortTransmitCpltCallback:
 1054              		@ args = 0, pretend = 0, frame = 0
 1055              		@ frame_needed = 0, uses_anonymous_args = 0
 1056              		@ link register save eliminated.
 1057 0000 7047     		bx	lr
 1059              		.section	.text.HAL_UART_AbortTransmit_IT,"ax",%progbits
 1060              		.align	1
 1061              		.global	HAL_UART_AbortTransmit_IT
 1062              		.syntax unified
 1063              		.thumb
 1064              		.thumb_func
 1065              		.fpu fpv4-sp-d16
 1067              	HAL_UART_AbortTransmit_IT:
 1068              		@ args = 0, pretend = 0, frame = 0
 1069              		@ frame_needed = 0, uses_anonymous_args = 0
 1070 0000 0368     		ldr	r3, [r0]
 1071 0002 1A68     		ldr	r2, [r3]
 1072 0004 22F0C002 		bic	r2, r2, #192
 1073 0008 10B5     		push	{r4, lr}
 1074 000a 1A60     		str	r2, [r3]
 1075 000c 9A68     		ldr	r2, [r3, #8]
 1076 000e 12F08002 		ands	r2, r2, #128
 1077 0012 0446     		mov	r4, r0
 1078 0014 18D0     		beq	.L176
 1079 0016 9A68     		ldr	r2, [r3, #8]
 1080 0018 22F08002 		bic	r2, r2, #128
 1081 001c 9A60     		str	r2, [r3, #8]
 1082 001e 036E     		ldr	r3, [r0, #96]
 1083 0020 53B1     		cbz	r3, .L177
 1084 0022 0B4A     		ldr	r2, .L183
 1085 0024 5A63     		str	r2, [r3, #52]
 1086 0026 1846     		mov	r0, r3
 1087 0028 FFF7FEFF 		bl	HAL_DMA_Abort_IT
ARM GAS  C:\Users\gyoku\AppData\Local\Temp\ccZMWtFk.s 			page 19


 1088 002c 10B1     		cbz	r0, .L178
 1089 002e 206E     		ldr	r0, [r4, #96]
 1090 0030 436B     		ldr	r3, [r0, #52]
 1091 0032 9847     		blx	r3
 1092              	.L178:
 1093 0034 0020     		movs	r0, #0
 1094 0036 10BD     		pop	{r4, pc}
 1095              	.L177:
 1096 0038 A0F85230 		strh	r3, [r0, #82]	@ movhi
 1097              	.L182:
 1098 003c 2023     		movs	r3, #32
 1099 003e 84F86930 		strb	r3, [r4, #105]
 1100 0042 FFF7FEFF 		bl	HAL_UART_AbortTransmitCpltCallback
 1101 0046 F5E7     		b	.L178
 1102              	.L176:
 1103 0048 A0F85220 		strh	r2, [r0, #82]	@ movhi
 1104 004c F6E7     		b	.L182
 1105              	.L184:
 1106 004e 00BF     		.align	2
 1107              	.L183:
 1108 0050 00000000 		.word	UART_DMATxOnlyAbortCallback
 1110              		.section	.text.UART_DMATxOnlyAbortCallback,"ax",%progbits
 1111              		.align	1
 1112              		.syntax unified
 1113              		.thumb
 1114              		.thumb_func
 1115              		.fpu fpv4-sp-d16
 1117              	UART_DMATxOnlyAbortCallback:
 1118              		@ args = 0, pretend = 0, frame = 0
 1119              		@ frame_needed = 0, uses_anonymous_args = 0
 1120 0000 08B5     		push	{r3, lr}
 1121 0002 406A     		ldr	r0, [r0, #36]
 1122 0004 0023     		movs	r3, #0
 1123 0006 A0F85230 		strh	r3, [r0, #82]	@ movhi
 1124 000a 2023     		movs	r3, #32
 1125 000c 80F86930 		strb	r3, [r0, #105]
 1126 0010 FFF7FEFF 		bl	HAL_UART_AbortTransmitCpltCallback
 1127 0014 08BD     		pop	{r3, pc}
 1129              		.section	.text.HAL_UART_AbortReceiveCpltCallback,"ax",%progbits
 1130              		.align	1
 1131              		.weak	HAL_UART_AbortReceiveCpltCallback
 1132              		.syntax unified
 1133              		.thumb
 1134              		.thumb_func
 1135              		.fpu fpv4-sp-d16
 1137              	HAL_UART_AbortReceiveCpltCallback:
 1138              		@ args = 0, pretend = 0, frame = 0
 1139              		@ frame_needed = 0, uses_anonymous_args = 0
 1140              		@ link register save eliminated.
 1141 0000 7047     		bx	lr
 1143              		.section	.text.HAL_UART_AbortReceive_IT,"ax",%progbits
 1144              		.align	1
 1145              		.global	HAL_UART_AbortReceive_IT
 1146              		.syntax unified
 1147              		.thumb
 1148              		.thumb_func
 1149              		.fpu fpv4-sp-d16
ARM GAS  C:\Users\gyoku\AppData\Local\Temp\ccZMWtFk.s 			page 20


 1151              	HAL_UART_AbortReceive_IT:
 1152              		@ args = 0, pretend = 0, frame = 0
 1153              		@ frame_needed = 0, uses_anonymous_args = 0
 1154 0000 0368     		ldr	r3, [r0]
 1155 0002 1A68     		ldr	r2, [r3]
 1156 0004 22F49072 		bic	r2, r2, #288
 1157 0008 10B5     		push	{r4, lr}
 1158 000a 1A60     		str	r2, [r3]
 1159 000c 9A68     		ldr	r2, [r3, #8]
 1160 000e 22F00102 		bic	r2, r2, #1
 1161 0012 9A60     		str	r2, [r3, #8]
 1162 0014 9A68     		ldr	r2, [r3, #8]
 1163 0016 12F04002 		ands	r2, r2, #64
 1164 001a 0446     		mov	r4, r0
 1165 001c 10D0     		beq	.L188
 1166 001e 9A68     		ldr	r2, [r3, #8]
 1167 0020 22F04002 		bic	r2, r2, #64
 1168 0024 9A60     		str	r2, [r3, #8]
 1169 0026 426E     		ldr	r2, [r0, #100]
 1170 0028 52B1     		cbz	r2, .L188
 1171 002a 0A4B     		ldr	r3, .L194
 1172 002c 5363     		str	r3, [r2, #52]
 1173 002e 1046     		mov	r0, r2
 1174 0030 FFF7FEFF 		bl	HAL_DMA_Abort_IT
 1175 0034 10B1     		cbz	r0, .L190
 1176 0036 606E     		ldr	r0, [r4, #100]
 1177 0038 436B     		ldr	r3, [r0, #52]
 1178 003a 9847     		blx	r3
 1179              	.L190:
 1180 003c 0020     		movs	r0, #0
 1181 003e 10BD     		pop	{r4, pc}
 1182              	.L188:
 1183 0040 A4F85A20 		strh	r2, [r4, #90]	@ movhi
 1184 0044 0F22     		movs	r2, #15
 1185 0046 1A62     		str	r2, [r3, #32]
 1186 0048 2023     		movs	r3, #32
 1187 004a 84F86A30 		strb	r3, [r4, #106]
 1188 004e FFF7FEFF 		bl	HAL_UART_AbortReceiveCpltCallback
 1189 0052 F3E7     		b	.L190
 1190              	.L195:
 1191              		.align	2
 1192              	.L194:
 1193 0054 00000000 		.word	UART_DMARxOnlyAbortCallback
 1195              		.section	.text.UART_DMARxOnlyAbortCallback,"ax",%progbits
 1196              		.align	1
 1197              		.syntax unified
 1198              		.thumb
 1199              		.thumb_func
 1200              		.fpu fpv4-sp-d16
 1202              	UART_DMARxOnlyAbortCallback:
 1203              		@ args = 0, pretend = 0, frame = 0
 1204              		@ frame_needed = 0, uses_anonymous_args = 0
 1205 0000 406A     		ldr	r0, [r0, #36]
 1206 0002 08B5     		push	{r3, lr}
 1207 0004 0023     		movs	r3, #0
 1208 0006 A0F85A30 		strh	r3, [r0, #90]	@ movhi
 1209 000a 0368     		ldr	r3, [r0]
ARM GAS  C:\Users\gyoku\AppData\Local\Temp\ccZMWtFk.s 			page 21


 1210 000c 0F22     		movs	r2, #15
 1211 000e 1A62     		str	r2, [r3, #32]
 1212 0010 2023     		movs	r3, #32
 1213 0012 80F86A30 		strb	r3, [r0, #106]
 1214 0016 FFF7FEFF 		bl	HAL_UART_AbortReceiveCpltCallback
 1215 001a 08BD     		pop	{r3, pc}
 1217              		.section	.text.HAL_MultiProcessor_EnterMuteMode,"ax",%progbits
 1218              		.align	1
 1219              		.global	HAL_MultiProcessor_EnterMuteMode
 1220              		.syntax unified
 1221              		.thumb
 1222              		.thumb_func
 1223              		.fpu fpv4-sp-d16
 1225              	HAL_MultiProcessor_EnterMuteMode:
 1226              		@ args = 0, pretend = 0, frame = 0
 1227              		@ frame_needed = 0, uses_anonymous_args = 0
 1228              		@ link register save eliminated.
 1229 0000 0268     		ldr	r2, [r0]
 1230 0002 9369     		ldr	r3, [r2, #24]
 1231 0004 43F00403 		orr	r3, r3, #4
 1232 0008 9361     		str	r3, [r2, #24]
 1233 000a 7047     		bx	lr
 1235              		.section	.text.HAL_HalfDuplex_EnableTransmitter,"ax",%progbits
 1236              		.align	1
 1237              		.global	HAL_HalfDuplex_EnableTransmitter
 1238              		.syntax unified
 1239              		.thumb
 1240              		.thumb_func
 1241              		.fpu fpv4-sp-d16
 1243              	HAL_HalfDuplex_EnableTransmitter:
 1244              		@ args = 0, pretend = 0, frame = 0
 1245              		@ frame_needed = 0, uses_anonymous_args = 0
 1246              		@ link register save eliminated.
 1247 0000 90F86830 		ldrb	r3, [r0, #104]	@ zero_extendqisi2
 1248 0004 012B     		cmp	r3, #1
 1249 0006 13D0     		beq	.L200
 1250 0008 2423     		movs	r3, #36
 1251 000a 80F86930 		strb	r3, [r0, #105]
 1252 000e 0368     		ldr	r3, [r0]
 1253 0010 1A68     		ldr	r2, [r3]
 1254 0012 22F00C02 		bic	r2, r2, #12
 1255 0016 1A60     		str	r2, [r3]
 1256 0018 1A68     		ldr	r2, [r3]
 1257 001a 42F00802 		orr	r2, r2, #8
 1258 001e 1A60     		str	r2, [r3]
 1259 0020 2023     		movs	r3, #32
 1260 0022 80F86930 		strb	r3, [r0, #105]
 1261 0026 0023     		movs	r3, #0
 1262 0028 80F86830 		strb	r3, [r0, #104]
 1263 002c 1846     		mov	r0, r3
 1264 002e 7047     		bx	lr
 1265              	.L200:
 1266 0030 0220     		movs	r0, #2
 1267 0032 7047     		bx	lr
 1269              		.section	.text.HAL_HalfDuplex_EnableReceiver,"ax",%progbits
 1270              		.align	1
 1271              		.global	HAL_HalfDuplex_EnableReceiver
ARM GAS  C:\Users\gyoku\AppData\Local\Temp\ccZMWtFk.s 			page 22


 1272              		.syntax unified
 1273              		.thumb
 1274              		.thumb_func
 1275              		.fpu fpv4-sp-d16
 1277              	HAL_HalfDuplex_EnableReceiver:
 1278              		@ args = 0, pretend = 0, frame = 0
 1279              		@ frame_needed = 0, uses_anonymous_args = 0
 1280              		@ link register save eliminated.
 1281 0000 90F86830 		ldrb	r3, [r0, #104]	@ zero_extendqisi2
 1282 0004 012B     		cmp	r3, #1
 1283 0006 13D0     		beq	.L203
 1284 0008 2423     		movs	r3, #36
 1285 000a 80F86930 		strb	r3, [r0, #105]
 1286 000e 0368     		ldr	r3, [r0]
 1287 0010 1A68     		ldr	r2, [r3]
 1288 0012 22F00C02 		bic	r2, r2, #12
 1289 0016 1A60     		str	r2, [r3]
 1290 0018 1A68     		ldr	r2, [r3]
 1291 001a 42F00402 		orr	r2, r2, #4
 1292 001e 1A60     		str	r2, [r3]
 1293 0020 2023     		movs	r3, #32
 1294 0022 80F86930 		strb	r3, [r0, #105]
 1295 0026 0023     		movs	r3, #0
 1296 0028 80F86830 		strb	r3, [r0, #104]
 1297 002c 1846     		mov	r0, r3
 1298 002e 7047     		bx	lr
 1299              	.L203:
 1300 0030 0220     		movs	r0, #2
 1301 0032 7047     		bx	lr
 1303              		.section	.text.HAL_LIN_SendBreak,"ax",%progbits
 1304              		.align	1
 1305              		.global	HAL_LIN_SendBreak
 1306              		.syntax unified
 1307              		.thumb
 1308              		.thumb_func
 1309              		.fpu fpv4-sp-d16
 1311              	HAL_LIN_SendBreak:
 1312              		@ args = 0, pretend = 0, frame = 0
 1313              		@ frame_needed = 0, uses_anonymous_args = 0
 1314              		@ link register save eliminated.
 1315 0000 90F86830 		ldrb	r3, [r0, #104]	@ zero_extendqisi2
 1316 0004 012B     		cmp	r3, #1
 1317 0006 0FD0     		beq	.L206
 1318 0008 0268     		ldr	r2, [r0]
 1319 000a 2423     		movs	r3, #36
 1320 000c 80F86930 		strb	r3, [r0, #105]
 1321 0010 9369     		ldr	r3, [r2, #24]
 1322 0012 43F00203 		orr	r3, r3, #2
 1323 0016 9361     		str	r3, [r2, #24]
 1324 0018 2023     		movs	r3, #32
 1325 001a 80F86930 		strb	r3, [r0, #105]
 1326 001e 0023     		movs	r3, #0
 1327 0020 80F86830 		strb	r3, [r0, #104]
 1328 0024 1846     		mov	r0, r3
 1329 0026 7047     		bx	lr
 1330              	.L206:
 1331 0028 0220     		movs	r0, #2
ARM GAS  C:\Users\gyoku\AppData\Local\Temp\ccZMWtFk.s 			page 23


 1332 002a 7047     		bx	lr
 1334              		.section	.text.HAL_UART_GetState,"ax",%progbits
 1335              		.align	1
 1336              		.global	HAL_UART_GetState
 1337              		.syntax unified
 1338              		.thumb
 1339              		.thumb_func
 1340              		.fpu fpv4-sp-d16
 1342              	HAL_UART_GetState:
 1343              		@ args = 0, pretend = 0, frame = 0
 1344              		@ frame_needed = 0, uses_anonymous_args = 0
 1345              		@ link register save eliminated.
 1346 0000 90F86920 		ldrb	r2, [r0, #105]	@ zero_extendqisi2
 1347 0004 90F86A00 		ldrb	r0, [r0, #106]	@ zero_extendqisi2
 1348 0008 1043     		orrs	r0, r0, r2
 1349 000a 7047     		bx	lr
 1351              		.section	.text.HAL_UART_GetError,"ax",%progbits
 1352              		.align	1
 1353              		.global	HAL_UART_GetError
 1354              		.syntax unified
 1355              		.thumb
 1356              		.thumb_func
 1357              		.fpu fpv4-sp-d16
 1359              	HAL_UART_GetError:
 1360              		@ args = 0, pretend = 0, frame = 0
 1361              		@ frame_needed = 0, uses_anonymous_args = 0
 1362              		@ link register save eliminated.
 1363 0000 C06E     		ldr	r0, [r0, #108]
 1364 0002 7047     		bx	lr
 1366              		.section	.text.UART_SetConfig,"ax",%progbits
 1367              		.align	1
 1368              		.global	UART_SetConfig
 1369              		.syntax unified
 1370              		.thumb
 1371              		.thumb_func
 1372              		.fpu fpv4-sp-d16
 1374              	UART_SetConfig:
 1375              		@ args = 0, pretend = 0, frame = 0
 1376              		@ frame_needed = 0, uses_anonymous_args = 0
 1377 0000 38B5     		push	{r3, r4, r5, lr}
 1378 0002 C169     		ldr	r1, [r0, #28]
 1379 0004 0368     		ldr	r3, [r0]
 1380 0006 8268     		ldr	r2, [r0, #8]
 1381 0008 1D68     		ldr	r5, [r3]
 1382 000a 0446     		mov	r4, r0
 1383 000c 0069     		ldr	r0, [r0, #16]
 1384 000e 0243     		orrs	r2, r2, r0
 1385 0010 6069     		ldr	r0, [r4, #20]
 1386 0012 0243     		orrs	r2, r2, r0
 1387 0014 4548     		ldr	r0, .L250
 1388 0016 0A43     		orrs	r2, r2, r1
 1389 0018 2840     		ands	r0, r0, r5
 1390 001a 0243     		orrs	r2, r2, r0
 1391 001c 1A60     		str	r2, [r3]
 1392 001e 5A68     		ldr	r2, [r3, #4]
 1393 0020 E068     		ldr	r0, [r4, #12]
 1394 0022 256A     		ldr	r5, [r4, #32]
ARM GAS  C:\Users\gyoku\AppData\Local\Temp\ccZMWtFk.s 			page 24


 1395 0024 22F44052 		bic	r2, r2, #12288
 1396 0028 0243     		orrs	r2, r2, r0
 1397 002a 5A60     		str	r2, [r3, #4]
 1398 002c 9868     		ldr	r0, [r3, #8]
 1399 002e A269     		ldr	r2, [r4, #24]
 1400 0030 20F43060 		bic	r0, r0, #2816
 1401 0034 2A43     		orrs	r2, r2, r5
 1402 0036 0243     		orrs	r2, r2, r0
 1403 0038 9A60     		str	r2, [r3, #8]
 1404 003a 3D4A     		ldr	r2, .L250+4
 1405 003c 9342     		cmp	r3, r2
 1406 003e 11D1     		bne	.L210
 1407 0040 3C4B     		ldr	r3, .L250+8
 1408 0042 3D4A     		ldr	r2, .L250+12
 1409 0044 1B6B     		ldr	r3, [r3, #48]
 1410 0046 03F00303 		and	r3, r3, #3
 1411 004a B1F5004F 		cmp	r1, #32768
 1412 004e D35C     		ldrb	r3, [r2, r3]	@ zero_extendqisi2
 1413 0050 3BD1     		bne	.L239
 1414 0052 082B     		cmp	r3, #8
 1415 0054 36D8     		bhi	.L232
 1416 0056 DFE803F0 		tbb	[pc, r3]
 1417              	.L218:
 1418 005a 0F       		.byte	(.L222-.L218)/2
 1419 005b 21       		.byte	(.L221-.L218)/2
 1420 005c 24       		.byte	(.L220-.L218)/2
 1421 005d 35       		.byte	(.L232-.L218)/2
 1422 005e 2D       		.byte	(.L219-.L218)/2
 1423 005f 35       		.byte	(.L232-.L218)/2
 1424 0060 35       		.byte	(.L232-.L218)/2
 1425 0061 35       		.byte	(.L232-.L218)/2
 1426 0062 30       		.byte	(.L217-.L218)/2
 1427 0063 00       		.p2align 1
 1428              	.L210:
 1429 0064 354A     		ldr	r2, .L250+16
 1430 0066 9342     		cmp	r3, r2
 1431 0068 03D0     		beq	.L214
 1432 006a 02F58062 		add	r2, r2, #1024
 1433 006e 9342     		cmp	r3, r2
 1434 0070 57D1     		bne	.L240
 1435              	.L214:
 1436 0072 B1F5004F 		cmp	r1, #32768
 1437 0076 31D1     		bne	.L229
 1438              	.L222:
 1439 0078 FFF7FEFF 		bl	HAL_RCC_GetPCLK1Freq
 1440              	.L248:
 1441 007c 6168     		ldr	r1, [r4, #4]
 1442 007e 4A08     		lsrs	r2, r1, #1
 1443 0080 02EB4003 		add	r3, r2, r0, lsl #1
 1444 0084 B3FBF1F3 		udiv	r3, r3, r1
 1445              	.L243:
 1446 0088 9BB2     		uxth	r3, r3
 1447 008a 0020     		movs	r0, #0
 1448              	.L216:
 1449 008c 23F00F02 		bic	r2, r3, #15
 1450 0090 2168     		ldr	r1, [r4]
 1451 0092 C3F34203 		ubfx	r3, r3, #1, #3
ARM GAS  C:\Users\gyoku\AppData\Local\Temp\ccZMWtFk.s 			page 25


 1452 0096 1343     		orrs	r3, r3, r2
 1453 0098 CB60     		str	r3, [r1, #12]
 1454              	.L241:
 1455 009a 38BD     		pop	{r3, r4, r5, pc}
 1456              	.L221:
 1457 009c FFF7FEFF 		bl	HAL_RCC_GetPCLK2Freq
 1458 00a0 ECE7     		b	.L248
 1459              	.L220:
 1460 00a2 6068     		ldr	r0, [r4, #4]
 1461 00a4 4308     		lsrs	r3, r0, #1
 1462 00a6 03F57403 		add	r3, r3, #15990784
 1463 00aa 03F51053 		add	r3, r3, #9216
 1464              	.L244:
 1465 00ae B3FBF0F3 		udiv	r3, r3, r0
 1466 00b2 E9E7     		b	.L243
 1467              	.L219:
 1468 00b4 FFF7FEFF 		bl	HAL_RCC_GetSysClockFreq
 1469 00b8 E0E7     		b	.L248
 1470              	.L217:
 1471 00ba 6068     		ldr	r0, [r4, #4]
 1472 00bc 4308     		lsrs	r3, r0, #1
 1473 00be 03F58033 		add	r3, r3, #65536
 1474 00c2 F4E7     		b	.L244
 1475              	.L232:
 1476 00c4 0120     		movs	r0, #1
 1477 00c6 0023     		movs	r3, #0
 1478 00c8 E0E7     		b	.L216
 1479              	.L239:
 1480 00ca 082B     		cmp	r3, #8
 1481 00cc 2CD8     		bhi	.L245
 1482 00ce DFE803F0 		tbb	[pc, r3]
 1483              	.L225:
 1484 00d2 05       		.byte	(.L229-.L225)/2
 1485 00d3 11       		.byte	(.L228-.L225)/2
 1486 00d4 14       		.byte	(.L227-.L225)/2
 1487 00d5 2B       		.byte	(.L245-.L225)/2
 1488 00d6 20       		.byte	(.L226-.L225)/2
 1489 00d7 2B       		.byte	(.L245-.L225)/2
 1490 00d8 2B       		.byte	(.L245-.L225)/2
 1491 00d9 2B       		.byte	(.L245-.L225)/2
 1492 00da 23       		.byte	(.L224-.L225)/2
 1493 00db 00       		.p2align 1
 1494              	.L229:
 1495 00dc FFF7FEFF 		bl	HAL_RCC_GetPCLK1Freq
 1496              	.L249:
 1497 00e0 D4E90023 		ldrd	r2, r3, [r4]
 1498 00e4 00EB5300 		add	r0, r0, r3, lsr #1
 1499 00e8 B0FBF3F0 		udiv	r0, r0, r3
 1500 00ec 80B2     		uxth	r0, r0
 1501 00ee D060     		str	r0, [r2, #12]
 1502              	.L246:
 1503 00f0 0020     		movs	r0, #0
 1504 00f2 D2E7     		b	.L241
 1505              	.L228:
 1506 00f4 FFF7FEFF 		bl	HAL_RCC_GetPCLK2Freq
 1507 00f8 F2E7     		b	.L249
 1508              	.L227:
ARM GAS  C:\Users\gyoku\AppData\Local\Temp\ccZMWtFk.s 			page 26


 1509 00fa 6268     		ldr	r2, [r4, #4]
 1510 00fc 5308     		lsrs	r3, r2, #1
 1511 00fe 03F5F403 		add	r3, r3, #7995392
 1512 0102 03F59053 		add	r3, r3, #4608
 1513              	.L247:
 1514 0106 B3FBF2F3 		udiv	r3, r3, r2
 1515 010a 094A     		ldr	r2, .L250+4
 1516 010c 9BB2     		uxth	r3, r3
 1517 010e D360     		str	r3, [r2, #12]
 1518 0110 EEE7     		b	.L246
 1519              	.L226:
 1520 0112 FFF7FEFF 		bl	HAL_RCC_GetSysClockFreq
 1521 0116 E3E7     		b	.L249
 1522              	.L224:
 1523 0118 6268     		ldr	r2, [r4, #4]
 1524 011a 5308     		lsrs	r3, r2, #1
 1525 011c 03F50043 		add	r3, r3, #32768
 1526 0120 F1E7     		b	.L247
 1527              	.L240:
 1528 0122 B1F5004F 		cmp	r1, #32768
 1529 0126 CDD0     		beq	.L232
 1530              	.L245:
 1531 0128 0120     		movs	r0, #1
 1532 012a B6E7     		b	.L241
 1533              	.L251:
 1534              		.align	2
 1535              	.L250:
 1536 012c F369FFEF 		.word	-268473869
 1537 0130 00380140 		.word	1073821696
 1538 0134 00100240 		.word	1073876992
 1539 0138 00000000 		.word	.LANCHOR0
 1540 013c 00440040 		.word	1073759232
 1542              		.section	.text.UART_AdvFeatureConfig,"ax",%progbits
 1543              		.align	1
 1544              		.global	UART_AdvFeatureConfig
 1545              		.syntax unified
 1546              		.thumb
 1547              		.thumb_func
 1548              		.fpu fpv4-sp-d16
 1550              	UART_AdvFeatureConfig:
 1551              		@ args = 0, pretend = 0, frame = 0
 1552              		@ frame_needed = 0, uses_anonymous_args = 0
 1553 0000 436A     		ldr	r3, [r0, #36]
 1554 0002 DA07     		lsls	r2, r3, #31
 1555 0004 10B5     		push	{r4, lr}
 1556 0006 06D5     		bpl	.L253
 1557 0008 0168     		ldr	r1, [r0]
 1558 000a 846A     		ldr	r4, [r0, #40]
 1559 000c 4A68     		ldr	r2, [r1, #4]
 1560 000e 22F40032 		bic	r2, r2, #131072
 1561 0012 2243     		orrs	r2, r2, r4
 1562 0014 4A60     		str	r2, [r1, #4]
 1563              	.L253:
 1564 0016 9C07     		lsls	r4, r3, #30
 1565 0018 06D5     		bpl	.L254
 1566 001a 0168     		ldr	r1, [r0]
 1567 001c C46A     		ldr	r4, [r0, #44]
ARM GAS  C:\Users\gyoku\AppData\Local\Temp\ccZMWtFk.s 			page 27


 1568 001e 4A68     		ldr	r2, [r1, #4]
 1569 0020 22F48032 		bic	r2, r2, #65536
 1570 0024 2243     		orrs	r2, r2, r4
 1571 0026 4A60     		str	r2, [r1, #4]
 1572              	.L254:
 1573 0028 5907     		lsls	r1, r3, #29
 1574 002a 06D5     		bpl	.L255
 1575 002c 0168     		ldr	r1, [r0]
 1576 002e 046B     		ldr	r4, [r0, #48]
 1577 0030 4A68     		ldr	r2, [r1, #4]
 1578 0032 22F48022 		bic	r2, r2, #262144
 1579 0036 2243     		orrs	r2, r2, r4
 1580 0038 4A60     		str	r2, [r1, #4]
 1581              	.L255:
 1582 003a 1A07     		lsls	r2, r3, #28
 1583 003c 06D5     		bpl	.L256
 1584 003e 0168     		ldr	r1, [r0]
 1585 0040 446B     		ldr	r4, [r0, #52]
 1586 0042 4A68     		ldr	r2, [r1, #4]
 1587 0044 22F40042 		bic	r2, r2, #32768
 1588 0048 2243     		orrs	r2, r2, r4
 1589 004a 4A60     		str	r2, [r1, #4]
 1590              	.L256:
 1591 004c DC06     		lsls	r4, r3, #27
 1592 004e 06D5     		bpl	.L257
 1593 0050 0168     		ldr	r1, [r0]
 1594 0052 846B     		ldr	r4, [r0, #56]
 1595 0054 8A68     		ldr	r2, [r1, #8]
 1596 0056 22F48052 		bic	r2, r2, #4096
 1597 005a 2243     		orrs	r2, r2, r4
 1598 005c 8A60     		str	r2, [r1, #8]
 1599              	.L257:
 1600 005e 9906     		lsls	r1, r3, #26
 1601 0060 06D5     		bpl	.L258
 1602 0062 0168     		ldr	r1, [r0]
 1603 0064 C46B     		ldr	r4, [r0, #60]
 1604 0066 8A68     		ldr	r2, [r1, #8]
 1605 0068 22F40052 		bic	r2, r2, #8192
 1606 006c 2243     		orrs	r2, r2, r4
 1607 006e 8A60     		str	r2, [r1, #8]
 1608              	.L258:
 1609 0070 5A06     		lsls	r2, r3, #25
 1610 0072 0FD5     		bpl	.L260
 1611 0074 0168     		ldr	r1, [r0]
 1612 0076 046C     		ldr	r4, [r0, #64]
 1613 0078 4A68     		ldr	r2, [r1, #4]
 1614 007a 22F48012 		bic	r2, r2, #1048576
 1615 007e 2243     		orrs	r2, r2, r4
 1616 0080 B4F5801F 		cmp	r4, #1048576
 1617 0084 4A60     		str	r2, [r1, #4]
 1618 0086 05D1     		bne	.L260
 1619 0088 4A68     		ldr	r2, [r1, #4]
 1620 008a 446C     		ldr	r4, [r0, #68]
 1621 008c 22F4C002 		bic	r2, r2, #6291456
 1622 0090 2243     		orrs	r2, r2, r4
 1623 0092 4A60     		str	r2, [r1, #4]
 1624              	.L260:
ARM GAS  C:\Users\gyoku\AppData\Local\Temp\ccZMWtFk.s 			page 28


 1625 0094 1B06     		lsls	r3, r3, #24
 1626 0096 06D5     		bpl	.L252
 1627 0098 0268     		ldr	r2, [r0]
 1628 009a 816C     		ldr	r1, [r0, #72]
 1629 009c 5368     		ldr	r3, [r2, #4]
 1630 009e 23F40023 		bic	r3, r3, #524288
 1631 00a2 0B43     		orrs	r3, r3, r1
 1632 00a4 5360     		str	r3, [r2, #4]
 1633              	.L252:
 1634 00a6 10BD     		pop	{r4, pc}
 1636              		.section	.text.UART_WaitOnFlagUntilTimeout,"ax",%progbits
 1637              		.align	1
 1638              		.global	UART_WaitOnFlagUntilTimeout
 1639              		.syntax unified
 1640              		.thumb
 1641              		.thumb_func
 1642              		.fpu fpv4-sp-d16
 1644              	UART_WaitOnFlagUntilTimeout:
 1645              		@ args = 4, pretend = 0, frame = 0
 1646              		@ frame_needed = 0, uses_anonymous_args = 0
 1647 0000 2DE9F041 		push	{r4, r5, r6, r7, r8, lr}
 1648 0004 069D     		ldr	r5, [sp, #24]
 1649 0006 0446     		mov	r4, r0
 1650 0008 0F46     		mov	r7, r1
 1651 000a 1646     		mov	r6, r2
 1652 000c 9846     		mov	r8, r3
 1653              	.L285:
 1654 000e 2168     		ldr	r1, [r4]
 1655              	.L286:
 1656 0010 CA69     		ldr	r2, [r1, #28]
 1657 0012 37EA0203 		bics	r3, r7, r2
 1658 0016 0CBF     		ite	eq
 1659 0018 0122     		moveq	r2, #1
 1660 001a 0022     		movne	r2, #0
 1661 001c B242     		cmp	r2, r6
 1662 001e 01D0     		beq	.L290
 1663 0020 0020     		movs	r0, #0
 1664 0022 14E0     		b	.L288
 1665              	.L290:
 1666 0024 6B1C     		adds	r3, r5, #1
 1667 0026 F3D0     		beq	.L286
 1668 0028 9DB9     		cbnz	r5, .L287
 1669              	.L289:
 1670 002a 2368     		ldr	r3, [r4]
 1671 002c 1A68     		ldr	r2, [r3]
 1672 002e 22F4D072 		bic	r2, r2, #416
 1673 0032 1A60     		str	r2, [r3]
 1674 0034 9A68     		ldr	r2, [r3, #8]
 1675 0036 22F00102 		bic	r2, r2, #1
 1676 003a 9A60     		str	r2, [r3, #8]
 1677 003c 2023     		movs	r3, #32
 1678 003e 84F86930 		strb	r3, [r4, #105]
 1679 0042 84F86A30 		strb	r3, [r4, #106]
 1680 0046 0023     		movs	r3, #0
 1681 0048 84F86830 		strb	r3, [r4, #104]
 1682 004c 0320     		movs	r0, #3
 1683              	.L288:
ARM GAS  C:\Users\gyoku\AppData\Local\Temp\ccZMWtFk.s 			page 29


 1684 004e BDE8F081 		pop	{r4, r5, r6, r7, r8, pc}
 1685              	.L287:
 1686 0052 FFF7FEFF 		bl	HAL_GetTick
 1687 0056 A0EB0800 		sub	r0, r0, r8
 1688 005a A842     		cmp	r0, r5
 1689 005c D7D9     		bls	.L285
 1690 005e E4E7     		b	.L289
 1692              		.section	.text.HAL_UART_Transmit,"ax",%progbits
 1693              		.align	1
 1694              		.global	HAL_UART_Transmit
 1695              		.syntax unified
 1696              		.thumb
 1697              		.thumb_func
 1698              		.fpu fpv4-sp-d16
 1700              	HAL_UART_Transmit:
 1701              		@ args = 0, pretend = 0, frame = 0
 1702              		@ frame_needed = 0, uses_anonymous_args = 0
 1703 0000 2DE9F341 		push	{r0, r1, r4, r5, r6, r7, r8, lr}
 1704 0004 1F46     		mov	r7, r3
 1705 0006 90F86930 		ldrb	r3, [r0, #105]	@ zero_extendqisi2
 1706 000a 202B     		cmp	r3, #32
 1707 000c 0446     		mov	r4, r0
 1708 000e 0D46     		mov	r5, r1
 1709 0010 9046     		mov	r8, r2
 1710 0012 4BD1     		bne	.L304
 1711 0014 0029     		cmp	r1, #0
 1712 0016 47D0     		beq	.L303
 1713 0018 002A     		cmp	r2, #0
 1714 001a 45D0     		beq	.L303
 1715 001c 90F86830 		ldrb	r3, [r0, #104]	@ zero_extendqisi2
 1716 0020 012B     		cmp	r3, #1
 1717 0022 43D0     		beq	.L304
 1718 0024 0123     		movs	r3, #1
 1719 0026 80F86830 		strb	r3, [r0, #104]
 1720 002a 0023     		movs	r3, #0
 1721 002c C366     		str	r3, [r0, #108]
 1722 002e 2123     		movs	r3, #33
 1723 0030 80F86930 		strb	r3, [r0, #105]
 1724 0034 FFF7FEFF 		bl	HAL_GetTick
 1725 0038 A4F85080 		strh	r8, [r4, #80]	@ movhi
 1726 003c 0646     		mov	r6, r0
 1727 003e A4F85280 		strh	r8, [r4, #82]	@ movhi
 1728              	.L295:
 1729 0042 B4F85220 		ldrh	r2, [r4, #82]
 1730 0046 92B2     		uxth	r2, r2
 1731 0048 62B9     		cbnz	r2, .L299
 1732 004a 0097     		str	r7, [sp]
 1733 004c 3346     		mov	r3, r6
 1734 004e 4021     		movs	r1, #64
 1735 0050 2046     		mov	r0, r4
 1736 0052 FFF7FEFF 		bl	UART_WaitOnFlagUntilTimeout
 1737 0056 98B9     		cbnz	r0, .L300
 1738 0058 2023     		movs	r3, #32
 1739 005a 84F86930 		strb	r3, [r4, #105]
 1740 005e 84F86800 		strb	r0, [r4, #104]
 1741 0062 0EE0     		b	.L294
 1742              	.L299:
ARM GAS  C:\Users\gyoku\AppData\Local\Temp\ccZMWtFk.s 			page 30


 1743 0064 B4F85230 		ldrh	r3, [r4, #82]
 1744 0068 0097     		str	r7, [sp]
 1745 006a 013B     		subs	r3, r3, #1
 1746 006c 9BB2     		uxth	r3, r3
 1747 006e A4F85230 		strh	r3, [r4, #82]	@ movhi
 1748 0072 0022     		movs	r2, #0
 1749 0074 3346     		mov	r3, r6
 1750 0076 8021     		movs	r1, #128
 1751 0078 2046     		mov	r0, r4
 1752 007a FFF7FEFF 		bl	UART_WaitOnFlagUntilTimeout
 1753 007e 18B1     		cbz	r0, .L296
 1754              	.L300:
 1755 0080 0320     		movs	r0, #3
 1756              	.L294:
 1757 0082 02B0     		add	sp, sp, #8
 1758              		@ sp needed
 1759 0084 BDE8F081 		pop	{r4, r5, r6, r7, r8, pc}
 1760              	.L296:
 1761 0088 A368     		ldr	r3, [r4, #8]
 1762 008a 2268     		ldr	r2, [r4]
 1763 008c B3F5805F 		cmp	r3, #4096
 1764 0090 07D1     		bne	.L297
 1765 0092 2369     		ldr	r3, [r4, #16]
 1766 0094 2BB9     		cbnz	r3, .L297
 1767 0096 35F8023B 		ldrh	r3, [r5], #2
 1768 009a C3F30803 		ubfx	r3, r3, #0, #9
 1769              	.L305:
 1770 009e 1385     		strh	r3, [r2, #40]	@ movhi
 1771 00a0 CFE7     		b	.L295
 1772              	.L297:
 1773 00a2 15F8013B 		ldrb	r3, [r5], #1	@ zero_extendqisi2
 1774 00a6 FAE7     		b	.L305
 1775              	.L303:
 1776 00a8 0120     		movs	r0, #1
 1777 00aa EAE7     		b	.L294
 1778              	.L304:
 1779 00ac 0220     		movs	r0, #2
 1780 00ae E8E7     		b	.L294
 1782              		.section	.text.HAL_UART_Receive,"ax",%progbits
 1783              		.align	1
 1784              		.global	HAL_UART_Receive
 1785              		.syntax unified
 1786              		.thumb
 1787              		.thumb_func
 1788              		.fpu fpv4-sp-d16
 1790              	HAL_UART_Receive:
 1791              		@ args = 0, pretend = 0, frame = 0
 1792              		@ frame_needed = 0, uses_anonymous_args = 0
 1793 0000 2DE9F341 		push	{r0, r1, r4, r5, r6, r7, r8, lr}
 1794 0004 9846     		mov	r8, r3
 1795 0006 90F86A30 		ldrb	r3, [r0, #106]	@ zero_extendqisi2
 1796 000a 202B     		cmp	r3, #32
 1797 000c 0446     		mov	r4, r0
 1798 000e 0D46     		mov	r5, r1
 1799 0010 1646     		mov	r6, r2
 1800 0012 60D1     		bne	.L320
 1801 0014 0029     		cmp	r1, #0
ARM GAS  C:\Users\gyoku\AppData\Local\Temp\ccZMWtFk.s 			page 31


 1802 0016 5CD0     		beq	.L319
 1803 0018 002A     		cmp	r2, #0
 1804 001a 5AD0     		beq	.L319
 1805 001c 90F86830 		ldrb	r3, [r0, #104]	@ zero_extendqisi2
 1806 0020 012B     		cmp	r3, #1
 1807 0022 58D0     		beq	.L320
 1808 0024 0123     		movs	r3, #1
 1809 0026 80F86830 		strb	r3, [r0, #104]
 1810 002a 0023     		movs	r3, #0
 1811 002c C366     		str	r3, [r0, #108]
 1812 002e 2223     		movs	r3, #34
 1813 0030 80F86A30 		strb	r3, [r0, #106]
 1814 0034 FFF7FEFF 		bl	HAL_GetTick
 1815 0038 A368     		ldr	r3, [r4, #8]
 1816 003a A4F85860 		strh	r6, [r4, #88]	@ movhi
 1817 003e B3F5805F 		cmp	r3, #4096
 1818 0042 0746     		mov	r7, r0
 1819 0044 A4F85A60 		strh	r6, [r4, #90]	@ movhi
 1820 0048 15D1     		bne	.L308
 1821 004a 2369     		ldr	r3, [r4, #16]
 1822 004c 8BB9     		cbnz	r3, .L309
 1823 004e 40F2FF13 		movw	r3, #511
 1824              	.L328:
 1825 0052 A4F85C30 		strh	r3, [r4, #92]	@ movhi
 1826              	.L310:
 1827 0056 B4F85C60 		ldrh	r6, [r4, #92]
 1828              	.L313:
 1829 005a B4F85A00 		ldrh	r0, [r4, #90]
 1830 005e 80B2     		uxth	r0, r0
 1831 0060 B8B9     		cbnz	r0, .L316
 1832 0062 2023     		movs	r3, #32
 1833 0064 84F86A30 		strb	r3, [r4, #106]
 1834 0068 84F86800 		strb	r0, [r4, #104]
 1835              	.L307:
 1836 006c 02B0     		add	sp, sp, #8
 1837              		@ sp needed
 1838 006e BDE8F081 		pop	{r4, r5, r6, r7, r8, pc}
 1839              	.L309:
 1840 0072 FF23     		movs	r3, #255
 1841 0074 EDE7     		b	.L328
 1842              	.L308:
 1843 0076 23B9     		cbnz	r3, .L311
 1844 0078 2369     		ldr	r3, [r4, #16]
 1845 007a 002B     		cmp	r3, #0
 1846 007c F9D0     		beq	.L309
 1847              	.L312:
 1848 007e 7F23     		movs	r3, #127
 1849 0080 E7E7     		b	.L328
 1850              	.L311:
 1851 0082 B3F1805F 		cmp	r3, #268435456
 1852 0086 E6D1     		bne	.L310
 1853 0088 2369     		ldr	r3, [r4, #16]
 1854 008a 002B     		cmp	r3, #0
 1855 008c F7D0     		beq	.L312
 1856 008e 3F23     		movs	r3, #63
 1857 0090 DFE7     		b	.L328
 1858              	.L316:
ARM GAS  C:\Users\gyoku\AppData\Local\Temp\ccZMWtFk.s 			page 32


 1859 0092 B4F85A30 		ldrh	r3, [r4, #90]
 1860 0096 CDF80080 		str	r8, [sp]
 1861 009a 013B     		subs	r3, r3, #1
 1862 009c 9BB2     		uxth	r3, r3
 1863 009e A4F85A30 		strh	r3, [r4, #90]	@ movhi
 1864 00a2 0022     		movs	r2, #0
 1865 00a4 3B46     		mov	r3, r7
 1866 00a6 2021     		movs	r1, #32
 1867 00a8 2046     		mov	r0, r4
 1868 00aa FFF7FEFF 		bl	UART_WaitOnFlagUntilTimeout
 1869 00ae A0B9     		cbnz	r0, .L321
 1870 00b0 A268     		ldr	r2, [r4, #8]
 1871 00b2 2368     		ldr	r3, [r4]
 1872 00b4 B2F5805F 		cmp	r2, #4096
 1873 00b8 06D1     		bne	.L314
 1874 00ba 2269     		ldr	r2, [r4, #16]
 1875 00bc 22B9     		cbnz	r2, .L314
 1876 00be 9B8C     		ldrh	r3, [r3, #36]
 1877 00c0 3340     		ands	r3, r3, r6
 1878 00c2 25F8023B 		strh	r3, [r5], #2	@ movhi
 1879 00c6 C8E7     		b	.L313
 1880              	.L314:
 1881 00c8 9B8C     		ldrh	r3, [r3, #36]
 1882 00ca 3340     		ands	r3, r3, r6
 1883 00cc 05F8013B 		strb	r3, [r5], #1
 1884 00d0 C3E7     		b	.L313
 1885              	.L319:
 1886 00d2 0120     		movs	r0, #1
 1887 00d4 CAE7     		b	.L307
 1888              	.L320:
 1889 00d6 0220     		movs	r0, #2
 1890 00d8 C8E7     		b	.L307
 1891              	.L321:
 1892 00da 0320     		movs	r0, #3
 1893 00dc C6E7     		b	.L307
 1895              		.section	.text.UART_CheckIdleState,"ax",%progbits
 1896              		.align	1
 1897              		.global	UART_CheckIdleState
 1898              		.syntax unified
 1899              		.thumb
 1900              		.thumb_func
 1901              		.fpu fpv4-sp-d16
 1903              	UART_CheckIdleState:
 1904              		@ args = 0, pretend = 0, frame = 0
 1905              		@ frame_needed = 0, uses_anonymous_args = 0
 1906 0000 73B5     		push	{r0, r1, r4, r5, r6, lr}
 1907 0002 0446     		mov	r4, r0
 1908 0004 0026     		movs	r6, #0
 1909 0006 C666     		str	r6, [r0, #108]
 1910 0008 FFF7FEFF 		bl	HAL_GetTick
 1911 000c 2368     		ldr	r3, [r4]
 1912 000e 1B68     		ldr	r3, [r3]
 1913 0010 1A07     		lsls	r2, r3, #28
 1914 0012 0546     		mov	r5, r0
 1915 0014 17D4     		bmi	.L330
 1916              	.L333:
 1917 0016 2368     		ldr	r3, [r4]
ARM GAS  C:\Users\gyoku\AppData\Local\Temp\ccZMWtFk.s 			page 33


 1918 0018 1B68     		ldr	r3, [r3]
 1919 001a 5B07     		lsls	r3, r3, #29
 1920 001c 0AD5     		bpl	.L332
 1921 001e 6FF07E43 		mvn	r3, #-33554432
 1922 0022 0093     		str	r3, [sp]
 1923 0024 0022     		movs	r2, #0
 1924 0026 2B46     		mov	r3, r5
 1925 0028 4FF48001 		mov	r1, #4194304
 1926 002c 2046     		mov	r0, r4
 1927 002e FFF7FEFF 		bl	UART_WaitOnFlagUntilTimeout
 1928 0032 A0B9     		cbnz	r0, .L335
 1929              	.L332:
 1930 0034 2023     		movs	r3, #32
 1931 0036 0020     		movs	r0, #0
 1932 0038 84F86930 		strb	r3, [r4, #105]
 1933 003c 84F86800 		strb	r0, [r4, #104]
 1934 0040 84F86A30 		strb	r3, [r4, #106]
 1935 0044 0CE0     		b	.L334
 1936              	.L330:
 1937 0046 6FF07E43 		mvn	r3, #-33554432
 1938 004a 0093     		str	r3, [sp]
 1939 004c 3246     		mov	r2, r6
 1940 004e 0346     		mov	r3, r0
 1941 0050 4FF40011 		mov	r1, #2097152
 1942 0054 2046     		mov	r0, r4
 1943 0056 FFF7FEFF 		bl	UART_WaitOnFlagUntilTimeout
 1944 005a 0028     		cmp	r0, #0
 1945 005c DBD0     		beq	.L333
 1946              	.L335:
 1947 005e 0320     		movs	r0, #3
 1948              	.L334:
 1949 0060 02B0     		add	sp, sp, #8
 1950              		@ sp needed
 1951 0062 70BD     		pop	{r4, r5, r6, pc}
 1953              		.section	.text.HAL_UART_Init,"ax",%progbits
 1954              		.align	1
 1955              		.global	HAL_UART_Init
 1956              		.syntax unified
 1957              		.thumb
 1958              		.thumb_func
 1959              		.fpu fpv4-sp-d16
 1961              	HAL_UART_Init:
 1962              		@ args = 0, pretend = 0, frame = 0
 1963              		@ frame_needed = 0, uses_anonymous_args = 0
 1964 0000 10B5     		push	{r4, lr}
 1965 0002 0446     		mov	r4, r0
 1966 0004 60B3     		cbz	r0, .L341
 1967 0006 90F86930 		ldrb	r3, [r0, #105]	@ zero_extendqisi2
 1968 000a 03F0FF02 		and	r2, r3, #255
 1969 000e 1BB9     		cbnz	r3, .L342
 1970 0010 80F86820 		strb	r2, [r0, #104]
 1971 0014 FFF7FEFF 		bl	HAL_UART_MspInit
 1972              	.L342:
 1973 0018 2268     		ldr	r2, [r4]
 1974 001a 2423     		movs	r3, #36
 1975 001c 84F86930 		strb	r3, [r4, #105]
 1976 0020 1368     		ldr	r3, [r2]
ARM GAS  C:\Users\gyoku\AppData\Local\Temp\ccZMWtFk.s 			page 34


 1977 0022 23F00103 		bic	r3, r3, #1
 1978 0026 1360     		str	r3, [r2]
 1979 0028 2046     		mov	r0, r4
 1980 002a FFF7FEFF 		bl	UART_SetConfig
 1981 002e 0128     		cmp	r0, #1
 1982 0030 16D0     		beq	.L341
 1983 0032 636A     		ldr	r3, [r4, #36]
 1984 0034 13B1     		cbz	r3, .L344
 1985 0036 2046     		mov	r0, r4
 1986 0038 FFF7FEFF 		bl	UART_AdvFeatureConfig
 1987              	.L344:
 1988 003c 2368     		ldr	r3, [r4]
 1989 003e 5A68     		ldr	r2, [r3, #4]
 1990 0040 22F49042 		bic	r2, r2, #18432
 1991 0044 5A60     		str	r2, [r3, #4]
 1992 0046 9A68     		ldr	r2, [r3, #8]
 1993 0048 22F02A02 		bic	r2, r2, #42
 1994 004c 9A60     		str	r2, [r3, #8]
 1995 004e 1A68     		ldr	r2, [r3]
 1996 0050 42F00102 		orr	r2, r2, #1
 1997 0054 2046     		mov	r0, r4
 1998 0056 1A60     		str	r2, [r3]
 1999 0058 BDE81040 		pop	{r4, lr}
 2000 005c FFF7FEBF 		b	UART_CheckIdleState
 2001              	.L341:
 2002 0060 0120     		movs	r0, #1
 2003 0062 10BD     		pop	{r4, pc}
 2005              		.section	.text.HAL_HalfDuplex_Init,"ax",%progbits
 2006              		.align	1
 2007              		.global	HAL_HalfDuplex_Init
 2008              		.syntax unified
 2009              		.thumb
 2010              		.thumb_func
 2011              		.fpu fpv4-sp-d16
 2013              	HAL_HalfDuplex_Init:
 2014              		@ args = 0, pretend = 0, frame = 0
 2015              		@ frame_needed = 0, uses_anonymous_args = 0
 2016 0000 10B5     		push	{r4, lr}
 2017 0002 0446     		mov	r4, r0
 2018 0004 80B3     		cbz	r0, .L353
 2019 0006 90F86930 		ldrb	r3, [r0, #105]	@ zero_extendqisi2
 2020 000a 03F0FF02 		and	r2, r3, #255
 2021 000e 1BB9     		cbnz	r3, .L354
 2022 0010 80F86820 		strb	r2, [r0, #104]
 2023 0014 FFF7FEFF 		bl	HAL_UART_MspInit
 2024              	.L354:
 2025 0018 2268     		ldr	r2, [r4]
 2026 001a 2423     		movs	r3, #36
 2027 001c 84F86930 		strb	r3, [r4, #105]
 2028 0020 1368     		ldr	r3, [r2]
 2029 0022 23F00103 		bic	r3, r3, #1
 2030 0026 1360     		str	r3, [r2]
 2031 0028 2046     		mov	r0, r4
 2032 002a FFF7FEFF 		bl	UART_SetConfig
 2033 002e 0128     		cmp	r0, #1
 2034 0030 1AD0     		beq	.L353
 2035 0032 636A     		ldr	r3, [r4, #36]
ARM GAS  C:\Users\gyoku\AppData\Local\Temp\ccZMWtFk.s 			page 35


 2036 0034 13B1     		cbz	r3, .L356
 2037 0036 2046     		mov	r0, r4
 2038 0038 FFF7FEFF 		bl	UART_AdvFeatureConfig
 2039              	.L356:
 2040 003c 2368     		ldr	r3, [r4]
 2041 003e 5A68     		ldr	r2, [r3, #4]
 2042 0040 22F49042 		bic	r2, r2, #18432
 2043 0044 5A60     		str	r2, [r3, #4]
 2044 0046 9A68     		ldr	r2, [r3, #8]
 2045 0048 22F02202 		bic	r2, r2, #34
 2046 004c 9A60     		str	r2, [r3, #8]
 2047 004e 9A68     		ldr	r2, [r3, #8]
 2048 0050 42F00802 		orr	r2, r2, #8
 2049 0054 9A60     		str	r2, [r3, #8]
 2050 0056 1A68     		ldr	r2, [r3]
 2051 0058 42F00102 		orr	r2, r2, #1
 2052 005c 2046     		mov	r0, r4
 2053 005e 1A60     		str	r2, [r3]
 2054 0060 BDE81040 		pop	{r4, lr}
 2055 0064 FFF7FEBF 		b	UART_CheckIdleState
 2056              	.L353:
 2057 0068 0120     		movs	r0, #1
 2058 006a 10BD     		pop	{r4, pc}
 2060              		.section	.text.HAL_LIN_Init,"ax",%progbits
 2061              		.align	1
 2062              		.global	HAL_LIN_Init
 2063              		.syntax unified
 2064              		.thumb
 2065              		.thumb_func
 2066              		.fpu fpv4-sp-d16
 2068              	HAL_LIN_Init:
 2069              		@ args = 0, pretend = 0, frame = 0
 2070              		@ frame_needed = 0, uses_anonymous_args = 0
 2071 0000 38B5     		push	{r3, r4, r5, lr}
 2072 0002 0D46     		mov	r5, r1
 2073 0004 0446     		mov	r4, r0
 2074 0006 0028     		cmp	r0, #0
 2075 0008 3CD0     		beq	.L365
 2076 000a C369     		ldr	r3, [r0, #28]
 2077 000c B3F5004F 		cmp	r3, #32768
 2078 0010 38D0     		beq	.L365
 2079 0012 8368     		ldr	r3, [r0, #8]
 2080 0014 002B     		cmp	r3, #0
 2081 0016 35D1     		bne	.L365
 2082 0018 90F86930 		ldrb	r3, [r0, #105]	@ zero_extendqisi2
 2083 001c 03F0FF02 		and	r2, r3, #255
 2084 0020 1BB9     		cbnz	r3, .L367
 2085 0022 80F86820 		strb	r2, [r0, #104]
 2086 0026 FFF7FEFF 		bl	HAL_UART_MspInit
 2087              	.L367:
 2088 002a 2268     		ldr	r2, [r4]
 2089 002c 2423     		movs	r3, #36
 2090 002e 84F86930 		strb	r3, [r4, #105]
 2091 0032 1368     		ldr	r3, [r2]
 2092 0034 23F00103 		bic	r3, r3, #1
 2093 0038 1360     		str	r3, [r2]
 2094 003a 2046     		mov	r0, r4
ARM GAS  C:\Users\gyoku\AppData\Local\Temp\ccZMWtFk.s 			page 36


 2095 003c FFF7FEFF 		bl	UART_SetConfig
 2096 0040 0128     		cmp	r0, #1
 2097 0042 1FD0     		beq	.L365
 2098 0044 636A     		ldr	r3, [r4, #36]
 2099 0046 13B1     		cbz	r3, .L368
 2100 0048 2046     		mov	r0, r4
 2101 004a FFF7FEFF 		bl	UART_AdvFeatureConfig
 2102              	.L368:
 2103 004e 2368     		ldr	r3, [r4]
 2104 0050 5A68     		ldr	r2, [r3, #4]
 2105 0052 22F40062 		bic	r2, r2, #2048
 2106 0056 5A60     		str	r2, [r3, #4]
 2107 0058 9A68     		ldr	r2, [r3, #8]
 2108 005a 22F02A02 		bic	r2, r2, #42
 2109 005e 9A60     		str	r2, [r3, #8]
 2110 0060 5A68     		ldr	r2, [r3, #4]
 2111 0062 42F48042 		orr	r2, r2, #16384
 2112 0066 5A60     		str	r2, [r3, #4]
 2113 0068 5968     		ldr	r1, [r3, #4]
 2114 006a 21F02001 		bic	r1, r1, #32
 2115 006e 2943     		orrs	r1, r1, r5
 2116 0070 5960     		str	r1, [r3, #4]
 2117 0072 1A68     		ldr	r2, [r3]
 2118 0074 42F00102 		orr	r2, r2, #1
 2119 0078 1A60     		str	r2, [r3]
 2120 007a 2046     		mov	r0, r4
 2121 007c BDE83840 		pop	{r3, r4, r5, lr}
 2122 0080 FFF7FEBF 		b	UART_CheckIdleState
 2123              	.L365:
 2124 0084 0120     		movs	r0, #1
 2125 0086 38BD     		pop	{r3, r4, r5, pc}
 2127              		.section	.text.HAL_MultiProcessor_Init,"ax",%progbits
 2128              		.align	1
 2129              		.global	HAL_MultiProcessor_Init
 2130              		.syntax unified
 2131              		.thumb
 2132              		.thumb_func
 2133              		.fpu fpv4-sp-d16
 2135              	HAL_MultiProcessor_Init:
 2136              		@ args = 0, pretend = 0, frame = 0
 2137              		@ frame_needed = 0, uses_anonymous_args = 0
 2138 0000 70B5     		push	{r4, r5, r6, lr}
 2139 0002 0E46     		mov	r6, r1
 2140 0004 1546     		mov	r5, r2
 2141 0006 0446     		mov	r4, r0
 2142 0008 0028     		cmp	r0, #0
 2143 000a 3AD0     		beq	.L380
 2144 000c 90F86930 		ldrb	r3, [r0, #105]	@ zero_extendqisi2
 2145 0010 03F0FF02 		and	r2, r3, #255
 2146 0014 1BB9     		cbnz	r3, .L381
 2147 0016 80F86820 		strb	r2, [r0, #104]
 2148 001a FFF7FEFF 		bl	HAL_UART_MspInit
 2149              	.L381:
 2150 001e 2268     		ldr	r2, [r4]
 2151 0020 2423     		movs	r3, #36
 2152 0022 84F86930 		strb	r3, [r4, #105]
 2153 0026 1368     		ldr	r3, [r2]
ARM GAS  C:\Users\gyoku\AppData\Local\Temp\ccZMWtFk.s 			page 37


 2154 0028 23F00103 		bic	r3, r3, #1
 2155 002c 1360     		str	r3, [r2]
 2156 002e 2046     		mov	r0, r4
 2157 0030 FFF7FEFF 		bl	UART_SetConfig
 2158 0034 0128     		cmp	r0, #1
 2159 0036 24D0     		beq	.L380
 2160 0038 636A     		ldr	r3, [r4, #36]
 2161 003a 13B1     		cbz	r3, .L383
 2162 003c 2046     		mov	r0, r4
 2163 003e FFF7FEFF 		bl	UART_AdvFeatureConfig
 2164              	.L383:
 2165 0042 2368     		ldr	r3, [r4]
 2166 0044 5A68     		ldr	r2, [r3, #4]
 2167 0046 22F49042 		bic	r2, r2, #18432
 2168 004a 5A60     		str	r2, [r3, #4]
 2169 004c 9A68     		ldr	r2, [r3, #8]
 2170 004e 22F02A02 		bic	r2, r2, #42
 2171 0052 9A60     		str	r2, [r3, #8]
 2172 0054 B5F5006F 		cmp	r5, #2048
 2173 0058 01BF     		itttt	eq
 2174 005a 5968     		ldreq	r1, [r3, #4]
 2175 005c 21F07F41 		biceq	r1, r1, #-16777216
 2176 0060 41EA0661 		orreq	r1, r1, r6, lsl #24
 2177 0064 5960     		streq	r1, [r3, #4]
 2178 0066 1A68     		ldr	r2, [r3]
 2179 0068 22F40062 		bic	r2, r2, #2048
 2180 006c 2A43     		orrs	r2, r2, r5
 2181 006e 1A60     		str	r2, [r3]
 2182 0070 1A68     		ldr	r2, [r3]
 2183 0072 42F00102 		orr	r2, r2, #1
 2184 0076 2046     		mov	r0, r4
 2185 0078 1A60     		str	r2, [r3]
 2186 007a BDE87040 		pop	{r4, r5, r6, lr}
 2187 007e FFF7FEBF 		b	UART_CheckIdleState
 2188              	.L380:
 2189 0082 0120     		movs	r0, #1
 2190 0084 70BD     		pop	{r4, r5, r6, pc}
 2192              		.section	.text.HAL_MultiProcessor_EnableMuteMode,"ax",%progbits
 2193              		.align	1
 2194              		.global	HAL_MultiProcessor_EnableMuteMode
 2195              		.syntax unified
 2196              		.thumb
 2197              		.thumb_func
 2198              		.fpu fpv4-sp-d16
 2200              	HAL_MultiProcessor_EnableMuteMode:
 2201              		@ args = 0, pretend = 0, frame = 0
 2202              		@ frame_needed = 0, uses_anonymous_args = 0
 2203              		@ link register save eliminated.
 2204 0000 90F86820 		ldrb	r2, [r0, #104]	@ zero_extendqisi2
 2205 0004 012A     		cmp	r2, #1
 2206 0006 0FD0     		beq	.L392
 2207 0008 0122     		movs	r2, #1
 2208 000a 80F86820 		strb	r2, [r0, #104]
 2209 000e 0168     		ldr	r1, [r0]
 2210 0010 2422     		movs	r2, #36
 2211 0012 80F86920 		strb	r2, [r0, #105]
 2212 0016 0A68     		ldr	r2, [r1]
ARM GAS  C:\Users\gyoku\AppData\Local\Temp\ccZMWtFk.s 			page 38


 2213 0018 42F40052 		orr	r2, r2, #8192
 2214 001c 0A60     		str	r2, [r1]
 2215 001e 2022     		movs	r2, #32
 2216 0020 80F86920 		strb	r2, [r0, #105]
 2217 0024 FFF7FEBF 		b	UART_CheckIdleState
 2218              	.L392:
 2219 0028 0220     		movs	r0, #2
 2220 002a 7047     		bx	lr
 2222              		.section	.text.HAL_MultiProcessor_DisableMuteMode,"ax",%progbits
 2223              		.align	1
 2224              		.global	HAL_MultiProcessor_DisableMuteMode
 2225              		.syntax unified
 2226              		.thumb
 2227              		.thumb_func
 2228              		.fpu fpv4-sp-d16
 2230              	HAL_MultiProcessor_DisableMuteMode:
 2231              		@ args = 0, pretend = 0, frame = 0
 2232              		@ frame_needed = 0, uses_anonymous_args = 0
 2233              		@ link register save eliminated.
 2234 0000 90F86820 		ldrb	r2, [r0, #104]	@ zero_extendqisi2
 2235 0004 012A     		cmp	r2, #1
 2236 0006 0FD0     		beq	.L394
 2237 0008 0122     		movs	r2, #1
 2238 000a 80F86820 		strb	r2, [r0, #104]
 2239 000e 0168     		ldr	r1, [r0]
 2240 0010 2422     		movs	r2, #36
 2241 0012 80F86920 		strb	r2, [r0, #105]
 2242 0016 0A68     		ldr	r2, [r1]
 2243 0018 22F40052 		bic	r2, r2, #8192
 2244 001c 0A60     		str	r2, [r1]
 2245 001e 2022     		movs	r2, #32
 2246 0020 80F86920 		strb	r2, [r0, #105]
 2247 0024 FFF7FEBF 		b	UART_CheckIdleState
 2248              	.L394:
 2249 0028 0220     		movs	r0, #2
 2250 002a 7047     		bx	lr
 2252              		.section	.text.UART_Transmit_IT,"ax",%progbits
 2253              		.align	1
 2254              		.global	UART_Transmit_IT
 2255              		.syntax unified
 2256              		.thumb
 2257              		.thumb_func
 2258              		.fpu fpv4-sp-d16
 2260              	UART_Transmit_IT:
 2261              		@ args = 0, pretend = 0, frame = 0
 2262              		@ frame_needed = 0, uses_anonymous_args = 0
 2263              		@ link register save eliminated.
 2264 0000 90F86930 		ldrb	r3, [r0, #105]	@ zero_extendqisi2
 2265 0004 212B     		cmp	r3, #33
 2266 0006 27D1     		bne	.L400
 2267 0008 B0F85230 		ldrh	r3, [r0, #82]
 2268 000c 0268     		ldr	r2, [r0]
 2269 000e 9BB2     		uxth	r3, r3
 2270 0010 4BB9     		cbnz	r3, .L397
 2271 0012 1168     		ldr	r1, [r2]
 2272 0014 21F08001 		bic	r1, r1, #128
 2273 0018 1160     		str	r1, [r2]
ARM GAS  C:\Users\gyoku\AppData\Local\Temp\ccZMWtFk.s 			page 39


 2274 001a 1168     		ldr	r1, [r2]
 2275 001c 41F04001 		orr	r1, r1, #64
 2276 0020 1160     		str	r1, [r2]
 2277              	.L401:
 2278 0022 0020     		movs	r0, #0
 2279 0024 7047     		bx	lr
 2280              	.L397:
 2281 0026 8168     		ldr	r1, [r0, #8]
 2282 0028 C36C     		ldr	r3, [r0, #76]
 2283 002a B1F5805F 		cmp	r1, #4096
 2284 002e 0ED1     		bne	.L398
 2285 0030 0169     		ldr	r1, [r0, #16]
 2286 0032 61B9     		cbnz	r1, .L398
 2287 0034 33F8021B 		ldrh	r1, [r3], #2
 2288 0038 C1F30801 		ubfx	r1, r1, #0, #9
 2289 003c 1185     		strh	r1, [r2, #40]	@ movhi
 2290 003e C364     		str	r3, [r0, #76]
 2291              	.L399:
 2292 0040 B0F85230 		ldrh	r3, [r0, #82]
 2293 0044 013B     		subs	r3, r3, #1
 2294 0046 9BB2     		uxth	r3, r3
 2295 0048 A0F85230 		strh	r3, [r0, #82]	@ movhi
 2296 004c E9E7     		b	.L401
 2297              	.L398:
 2298 004e 591C     		adds	r1, r3, #1
 2299 0050 C164     		str	r1, [r0, #76]
 2300 0052 1B78     		ldrb	r3, [r3]	@ zero_extendqisi2
 2301 0054 1385     		strh	r3, [r2, #40]	@ movhi
 2302 0056 F3E7     		b	.L399
 2303              	.L400:
 2304 0058 0220     		movs	r0, #2
 2305 005a 7047     		bx	lr
 2307              		.section	.text.UART_EndTransmit_IT,"ax",%progbits
 2308              		.align	1
 2309              		.global	UART_EndTransmit_IT
 2310              		.syntax unified
 2311              		.thumb
 2312              		.thumb_func
 2313              		.fpu fpv4-sp-d16
 2315              	UART_EndTransmit_IT:
 2316              		@ args = 0, pretend = 0, frame = 0
 2317              		@ frame_needed = 0, uses_anonymous_args = 0
 2318 0000 0168     		ldr	r1, [r0]
 2319 0002 08B5     		push	{r3, lr}
 2320 0004 0B68     		ldr	r3, [r1]
 2321 0006 23F04003 		bic	r3, r3, #64
 2322 000a 0B60     		str	r3, [r1]
 2323 000c 2023     		movs	r3, #32
 2324 000e 80F86930 		strb	r3, [r0, #105]
 2325 0012 FFF7FEFF 		bl	HAL_UART_TxCpltCallback
 2326 0016 0020     		movs	r0, #0
 2327 0018 08BD     		pop	{r3, pc}
 2329              		.section	.text.UART_Receive_IT,"ax",%progbits
 2330              		.align	1
 2331              		.global	UART_Receive_IT
 2332              		.syntax unified
 2333              		.thumb
ARM GAS  C:\Users\gyoku\AppData\Local\Temp\ccZMWtFk.s 			page 40


 2334              		.thumb_func
 2335              		.fpu fpv4-sp-d16
 2337              	UART_Receive_IT:
 2338              		@ args = 0, pretend = 0, frame = 0
 2339              		@ frame_needed = 0, uses_anonymous_args = 0
 2340 0000 90F86A20 		ldrb	r2, [r0, #106]	@ zero_extendqisi2
 2341 0004 0368     		ldr	r3, [r0]
 2342 0006 222A     		cmp	r2, #34
 2343 0008 10B5     		push	{r4, lr}
 2344 000a 29D1     		bne	.L404
 2345 000c 8468     		ldr	r4, [r0, #8]
 2346 000e 998C     		ldrh	r1, [r3, #36]
 2347 0010 B0F85C20 		ldrh	r2, [r0, #92]
 2348 0014 436D     		ldr	r3, [r0, #84]
 2349 0016 B4F5805F 		cmp	r4, #4096
 2350 001a 02EA0102 		and	r2, r2, r1
 2351 001e 1BD1     		bne	.L405
 2352 0020 0169     		ldr	r1, [r0, #16]
 2353 0022 C9B9     		cbnz	r1, .L405
 2354 0024 23F8022B 		strh	r2, [r3], #2	@ movhi
 2355 0028 4365     		str	r3, [r0, #84]
 2356              	.L406:
 2357 002a B0F85A40 		ldrh	r4, [r0, #90]
 2358 002e 013C     		subs	r4, r4, #1
 2359 0030 A4B2     		uxth	r4, r4
 2360 0032 A0F85A40 		strh	r4, [r0, #90]	@ movhi
 2361 0036 6CB9     		cbnz	r4, .L408
 2362 0038 0368     		ldr	r3, [r0]
 2363 003a 1A68     		ldr	r2, [r3]
 2364 003c 22F49072 		bic	r2, r2, #288
 2365 0040 1A60     		str	r2, [r3]
 2366 0042 9A68     		ldr	r2, [r3, #8]
 2367 0044 22F00102 		bic	r2, r2, #1
 2368 0048 9A60     		str	r2, [r3, #8]
 2369 004a 2023     		movs	r3, #32
 2370 004c 80F86A30 		strb	r3, [r0, #106]
 2371 0050 FFF7FEFF 		bl	HAL_UART_RxCpltCallback
 2372              	.L408:
 2373 0054 0020     		movs	r0, #0
 2374 0056 08E0     		b	.L407
 2375              	.L405:
 2376 0058 591C     		adds	r1, r3, #1
 2377 005a 4165     		str	r1, [r0, #84]
 2378 005c 1A70     		strb	r2, [r3]
 2379 005e E4E7     		b	.L406
 2380              	.L404:
 2381 0060 9A69     		ldr	r2, [r3, #24]
 2382 0062 42F00802 		orr	r2, r2, #8
 2383 0066 9A61     		str	r2, [r3, #24]
 2384 0068 0220     		movs	r0, #2
 2385              	.L407:
 2386 006a 10BD     		pop	{r4, pc}
 2388              		.section	.text.HAL_UART_IRQHandler,"ax",%progbits
 2389              		.align	1
 2390              		.global	HAL_UART_IRQHandler
 2391              		.syntax unified
 2392              		.thumb
ARM GAS  C:\Users\gyoku\AppData\Local\Temp\ccZMWtFk.s 			page 41


 2393              		.thumb_func
 2394              		.fpu fpv4-sp-d16
 2396              	HAL_UART_IRQHandler:
 2397              		@ args = 0, pretend = 0, frame = 0
 2398              		@ frame_needed = 0, uses_anonymous_args = 0
 2399 0000 0268     		ldr	r2, [r0]
 2400 0002 D369     		ldr	r3, [r2, #28]
 2401 0004 1168     		ldr	r1, [r2]
 2402 0006 70B5     		push	{r4, r5, r6, lr}
 2403 0008 13F00F06 		ands	r6, r3, #15
 2404 000c 0446     		mov	r4, r0
 2405 000e 07D1     		bne	.L410
 2406 0010 9D06     		lsls	r5, r3, #26
 2407 0012 05D5     		bpl	.L410
 2408 0014 8D06     		lsls	r5, r1, #26
 2409 0016 03D5     		bpl	.L410
 2410 0018 BDE87040 		pop	{r4, r5, r6, lr}
 2411 001c FFF7FEBF 		b	UART_Receive_IT
 2412              	.L410:
 2413 0020 9568     		ldr	r5, [r2, #8]
 2414 0022 002E     		cmp	r6, #0
 2415 0024 5CD0     		beq	.L411
 2416 0026 05F00100 		and	r0, r5, #1
 2417 002a 01F49076 		and	r6, r1, #288
 2418 002e 0643     		orrs	r6, r6, r0
 2419 0030 56D0     		beq	.L411
 2420 0032 DD07     		lsls	r5, r3, #31
 2421 0034 07D5     		bpl	.L412
 2422 0036 CE05     		lsls	r6, r1, #23
 2423 0038 05D5     		bpl	.L412
 2424 003a 0125     		movs	r5, #1
 2425 003c 1562     		str	r5, [r2, #32]
 2426 003e E56E     		ldr	r5, [r4, #108]
 2427 0040 45F00105 		orr	r5, r5, #1
 2428 0044 E566     		str	r5, [r4, #108]
 2429              	.L412:
 2430 0046 9D07     		lsls	r5, r3, #30
 2431 0048 06D5     		bpl	.L413
 2432 004a 28B1     		cbz	r0, .L413
 2433 004c 0225     		movs	r5, #2
 2434 004e 1562     		str	r5, [r2, #32]
 2435 0050 E56E     		ldr	r5, [r4, #108]
 2436 0052 45F00405 		orr	r5, r5, #4
 2437 0056 E566     		str	r5, [r4, #108]
 2438              	.L413:
 2439 0058 5E07     		lsls	r6, r3, #29
 2440 005a 06D5     		bpl	.L414
 2441 005c 28B1     		cbz	r0, .L414
 2442 005e 0425     		movs	r5, #4
 2443 0060 1562     		str	r5, [r2, #32]
 2444 0062 E56E     		ldr	r5, [r4, #108]
 2445 0064 45F00205 		orr	r5, r5, #2
 2446 0068 E566     		str	r5, [r4, #108]
 2447              	.L414:
 2448 006a 1D07     		lsls	r5, r3, #28
 2449 006c 08D5     		bpl	.L415
 2450 006e 01F02005 		and	r5, r1, #32
ARM GAS  C:\Users\gyoku\AppData\Local\Temp\ccZMWtFk.s 			page 42


 2451 0072 2843     		orrs	r0, r5, r0
 2452 0074 04D0     		beq	.L415
 2453 0076 0820     		movs	r0, #8
 2454 0078 1062     		str	r0, [r2, #32]
 2455 007a E26E     		ldr	r2, [r4, #108]
 2456 007c 0243     		orrs	r2, r2, r0
 2457 007e E266     		str	r2, [r4, #108]
 2458              	.L415:
 2459 0080 E26E     		ldr	r2, [r4, #108]
 2460 0082 42B3     		cbz	r2, .L409
 2461 0084 9A06     		lsls	r2, r3, #26
 2462 0086 04D5     		bpl	.L418
 2463 0088 8B06     		lsls	r3, r1, #26
 2464 008a 02D5     		bpl	.L418
 2465 008c 2046     		mov	r0, r4
 2466 008e FFF7FEFF 		bl	UART_Receive_IT
 2467              	.L418:
 2468 0092 E36E     		ldr	r3, [r4, #108]
 2469 0094 1E07     		lsls	r6, r3, #28
 2470 0096 2046     		mov	r0, r4
 2471 0098 04D4     		bmi	.L419
 2472 009a 2368     		ldr	r3, [r4]
 2473 009c 9D68     		ldr	r5, [r3, #8]
 2474 009e 15F04005 		ands	r5, r5, #64
 2475 00a2 19D0     		beq	.L420
 2476              	.L419:
 2477 00a4 FFF7FEFF 		bl	UART_EndRxTransfer
 2478 00a8 2368     		ldr	r3, [r4]
 2479 00aa 9A68     		ldr	r2, [r3, #8]
 2480 00ac 5506     		lsls	r5, r2, #25
 2481 00ae 0FD5     		bpl	.L421
 2482 00b0 9A68     		ldr	r2, [r3, #8]
 2483 00b2 606E     		ldr	r0, [r4, #100]
 2484 00b4 22F04002 		bic	r2, r2, #64
 2485 00b8 9A60     		str	r2, [r3, #8]
 2486 00ba 48B1     		cbz	r0, .L421
 2487 00bc 1A4B     		ldr	r3, .L494
 2488 00be 4363     		str	r3, [r0, #52]
 2489 00c0 FFF7FEFF 		bl	HAL_DMA_Abort_IT
 2490 00c4 38B1     		cbz	r0, .L409
 2491 00c6 606E     		ldr	r0, [r4, #100]
 2492 00c8 BDE87040 		pop	{r4, r5, r6, lr}
 2493 00cc 436B     		ldr	r3, [r0, #52]
 2494 00ce 1847     		bx	r3	@ indirect register sibling call
 2495              	.L421:
 2496 00d0 2046     		mov	r0, r4
 2497 00d2 FFF7FEFF 		bl	HAL_UART_ErrorCallback
 2498              	.L409:
 2499 00d6 70BD     		pop	{r4, r5, r6, pc}
 2500              	.L420:
 2501 00d8 FFF7FEFF 		bl	HAL_UART_ErrorCallback
 2502 00dc E566     		str	r5, [r4, #108]
 2503 00de FAE7     		b	.L409
 2504              	.L411:
 2505 00e0 D802     		lsls	r0, r3, #11
 2506 00e2 0ED5     		bpl	.L423
 2507 00e4 6E02     		lsls	r6, r5, #9
ARM GAS  C:\Users\gyoku\AppData\Local\Temp\ccZMWtFk.s 			page 43


 2508 00e6 0CD5     		bpl	.L423
 2509 00e8 4FF48013 		mov	r3, #1048576
 2510 00ec 1362     		str	r3, [r2, #32]
 2511 00ee 2023     		movs	r3, #32
 2512 00f0 84F86930 		strb	r3, [r4, #105]
 2513 00f4 2046     		mov	r0, r4
 2514 00f6 84F86A30 		strb	r3, [r4, #106]
 2515 00fa BDE87040 		pop	{r4, r5, r6, lr}
 2516 00fe FFF7FEBF 		b	HAL_UARTEx_WakeupCallback
 2517              	.L423:
 2518 0102 1D06     		lsls	r5, r3, #24
 2519 0104 06D5     		bpl	.L424
 2520 0106 0806     		lsls	r0, r1, #24
 2521 0108 04D5     		bpl	.L424
 2522 010a 2046     		mov	r0, r4
 2523 010c BDE87040 		pop	{r4, r5, r6, lr}
 2524 0110 FFF7FEBF 		b	UART_Transmit_IT
 2525              	.L424:
 2526 0114 5A06     		lsls	r2, r3, #25
 2527 0116 DED5     		bpl	.L409
 2528 0118 4B06     		lsls	r3, r1, #25
 2529 011a DCD5     		bpl	.L409
 2530 011c 2046     		mov	r0, r4
 2531 011e BDE87040 		pop	{r4, r5, r6, lr}
 2532 0122 FFF7FEBF 		b	UART_EndTransmit_IT
 2533              	.L495:
 2534 0126 00BF     		.align	2
 2535              	.L494:
 2536 0128 00000000 		.word	UART_DMAAbortOnError
 2538              		.section	.text.UART_Wakeup_AddressConfig,"ax",%progbits
 2539              		.align	1
 2540              		.global	UART_Wakeup_AddressConfig
 2541              		.syntax unified
 2542              		.thumb
 2543              		.thumb_func
 2544              		.fpu fpv4-sp-d16
 2546              	UART_Wakeup_AddressConfig:
 2547              		@ args = 0, pretend = 0, frame = 8
 2548              		@ frame_needed = 0, uses_anonymous_args = 0
 2549              		@ link register save eliminated.
 2550 0000 82B0     		sub	sp, sp, #8
 2551 0002 02AB     		add	r3, sp, #8
 2552 0004 03E90600 		stmdb	r3, {r1, r2}
 2553 0008 0268     		ldr	r2, [r0]
 2554 000a BDF80410 		ldrh	r1, [sp, #4]
 2555 000e 5368     		ldr	r3, [r2, #4]
 2556 0010 23F01003 		bic	r3, r3, #16
 2557 0014 0B43     		orrs	r3, r3, r1
 2558 0016 5360     		str	r3, [r2, #4]
 2559 0018 5368     		ldr	r3, [r2, #4]
 2560 001a 9DF80610 		ldrb	r1, [sp, #6]	@ zero_extendqisi2
 2561 001e 23F07F43 		bic	r3, r3, #-16777216
 2562 0022 43EA0163 		orr	r3, r3, r1, lsl #24
 2563 0026 5360     		str	r3, [r2, #4]
 2564 0028 02B0     		add	sp, sp, #8
 2565              		@ sp needed
 2566 002a 7047     		bx	lr
ARM GAS  C:\Users\gyoku\AppData\Local\Temp\ccZMWtFk.s 			page 44


 2568              		.section	.rodata.CSWTCH.2,"a"
 2569              		.set	.LANCHOR0,. + 0
 2572              	CSWTCH.2:
 2573 0000 00       		.byte	0
 2574 0001 04       		.byte	4
 2575 0002 08       		.byte	8
 2576 0003 02       		.byte	2
 2577              		.ident	"GCC: (GNU MCU Eclipse ARM Embedded GCC, 64-bit) 8.2.1 20181213 (release) [gcc-8-branch rev
ARM GAS  C:\Users\gyoku\AppData\Local\Temp\ccZMWtFk.s 			page 45

