ARM GAS  C:\Users\q-bir\AppData\Local\Temp\cc3yS06B.s 			page 1


   1              		.cpu cortex-m4
   2              		.eabi_attribute 27, 1
   3              		.eabi_attribute 28, 1
   4              		.eabi_attribute 20, 1
   5              		.eabi_attribute 21, 1
   6              		.eabi_attribute 23, 3
   7              		.eabi_attribute 24, 1
   8              		.eabi_attribute 25, 1
   9              		.eabi_attribute 26, 1
  10              		.eabi_attribute 30, 4
  11              		.eabi_attribute 34, 1
  12              		.eabi_attribute 18, 4
  13              		.file	"stm32f3xx_hal_flash.c"
  14              		.text
  15              		.section	.text.FLASH_SetErrorCode,"ax",%progbits
  16              		.align	1
  17              		.arch armv7e-m
  18              		.syntax unified
  19              		.thumb
  20              		.thumb_func
  21              		.fpu fpv4-sp-d16
  23              	FLASH_SetErrorCode:
  24              		@ args = 0, pretend = 0, frame = 0
  25              		@ frame_needed = 0, uses_anonymous_args = 0
  26              		@ link register save eliminated.
  27 0000 0B4A     		ldr	r2, .L10
  28 0002 D368     		ldr	r3, [r2, #12]
  29 0004 13F01003 		ands	r3, r3, #16
  30 0008 05D0     		beq	.L2
  31 000a 0A49     		ldr	r1, .L10+4
  32 000c CB69     		ldr	r3, [r1, #28]
  33 000e 43F00203 		orr	r3, r3, #2
  34 0012 CB61     		str	r3, [r1, #28]
  35 0014 1023     		movs	r3, #16
  36              	.L2:
  37 0016 D268     		ldr	r2, [r2, #12]
  38 0018 5207     		lsls	r2, r2, #29
  39 001a 06D5     		bpl	.L3
  40 001c 0549     		ldr	r1, .L10+4
  41 001e CA69     		ldr	r2, [r1, #28]
  42 0020 42F00102 		orr	r2, r2, #1
  43 0024 CA61     		str	r2, [r1, #28]
  44 0026 43F00403 		orr	r3, r3, #4
  45              	.L3:
  46 002a 014A     		ldr	r2, .L10
  47 002c D360     		str	r3, [r2, #12]
  48 002e 7047     		bx	lr
  49              	.L11:
  50              		.align	2
  51              	.L10:
  52 0030 00200240 		.word	1073881088
  53 0034 00000000 		.word	pFlash
  55              		.section	.text.HAL_FLASH_Program_IT,"ax",%progbits
  56              		.align	1
  57              		.global	HAL_FLASH_Program_IT
  58              		.syntax unified
  59              		.thumb
ARM GAS  C:\Users\q-bir\AppData\Local\Temp\cc3yS06B.s 			page 2


  60              		.thumb_func
  61              		.fpu fpv4-sp-d16
  63              	HAL_FLASH_Program_IT:
  64              		@ args = 0, pretend = 0, frame = 0
  65              		@ frame_needed = 0, uses_anonymous_args = 0
  66 0000 70B5     		push	{r4, r5, r6, lr}
  67 0002 1D46     		mov	r5, r3
  68 0004 134B     		ldr	r3, .L19
  69 0006 1446     		mov	r4, r2
  70 0008 1A7E     		ldrb	r2, [r3, #24]	@ zero_extendqisi2
  71 000a 012A     		cmp	r2, #1
  72 000c 20D0     		beq	.L17
  73 000e 124E     		ldr	r6, .L19+4
  74 0010 0122     		movs	r2, #1
  75 0012 1A76     		strb	r2, [r3, #24]
  76 0014 3269     		ldr	r2, [r6, #16]
  77 0016 0128     		cmp	r0, #1
  78 0018 42F4A052 		orr	r2, r2, #5120
  79 001c 3261     		str	r2, [r6, #16]
  80 001e 9960     		str	r1, [r3, #8]
  81 0020 C3E90445 		strd	r4, [r3, #16]
  82 0024 0CD1     		bne	.L14
  83 0026 0322     		movs	r2, #3
  84              	.L18:
  85 0028 1A70     		strb	r2, [r3]
  86 002a 5860     		str	r0, [r3, #4]
  87              	.L15:
  88 002c 0A4A     		ldr	r2, .L19+4
  89 002e 0020     		movs	r0, #0
  90 0030 D861     		str	r0, [r3, #28]
  91 0032 1369     		ldr	r3, [r2, #16]
  92 0034 A4B2     		uxth	r4, r4
  93 0036 43F00103 		orr	r3, r3, #1
  94 003a 1361     		str	r3, [r2, #16]
  95 003c 0C80     		strh	r4, [r1]	@ movhi
  96              	.L13:
  97 003e 70BD     		pop	{r4, r5, r6, pc}
  98              	.L14:
  99 0040 0228     		cmp	r0, #2
 100 0042 4FF00402 		mov	r2, #4
 101 0046 EFD0     		beq	.L18
 102 0048 0520     		movs	r0, #5
 103 004a 1870     		strb	r0, [r3]
 104 004c 5A60     		str	r2, [r3, #4]
 105 004e EDE7     		b	.L15
 106              	.L17:
 107 0050 0220     		movs	r0, #2
 108 0052 F4E7     		b	.L13
 109              	.L20:
 110              		.align	2
 111              	.L19:
 112 0054 00000000 		.word	pFlash
 113 0058 00200240 		.word	1073881088
 115              		.section	.text.HAL_FLASH_EndOfOperationCallback,"ax",%progbits
 116              		.align	1
 117              		.weak	HAL_FLASH_EndOfOperationCallback
 118              		.syntax unified
ARM GAS  C:\Users\q-bir\AppData\Local\Temp\cc3yS06B.s 			page 3


 119              		.thumb
 120              		.thumb_func
 121              		.fpu fpv4-sp-d16
 123              	HAL_FLASH_EndOfOperationCallback:
 124              		@ args = 0, pretend = 0, frame = 0
 125              		@ frame_needed = 0, uses_anonymous_args = 0
 126              		@ link register save eliminated.
 127 0000 7047     		bx	lr
 129              		.section	.text.HAL_FLASH_OperationErrorCallback,"ax",%progbits
 130              		.align	1
 131              		.weak	HAL_FLASH_OperationErrorCallback
 132              		.syntax unified
 133              		.thumb
 134              		.thumb_func
 135              		.fpu fpv4-sp-d16
 137              	HAL_FLASH_OperationErrorCallback:
 138              		@ args = 0, pretend = 0, frame = 0
 139              		@ frame_needed = 0, uses_anonymous_args = 0
 140              		@ link register save eliminated.
 141 0000 7047     		bx	lr
 143              		.section	.text.HAL_FLASH_IRQHandler,"ax",%progbits
 144              		.align	1
 145              		.global	HAL_FLASH_IRQHandler
 146              		.syntax unified
 147              		.thumb
 148              		.thumb_func
 149              		.fpu fpv4-sp-d16
 151              	HAL_FLASH_IRQHandler:
 152              		@ args = 0, pretend = 0, frame = 0
 153              		@ frame_needed = 0, uses_anonymous_args = 0
 154 0000 424B     		ldr	r3, .L45
 155 0002 DA68     		ldr	r2, [r3, #12]
 156 0004 12F0100F 		tst	r2, #16
 157 0008 70B5     		push	{r4, r5, r6, lr}
 158 000a 414C     		ldr	r4, .L45+4
 159 000c 02D1     		bne	.L24
 160 000e DB68     		ldr	r3, [r3, #12]
 161 0010 5A07     		lsls	r2, r3, #29
 162 0012 09D5     		bpl	.L25
 163              	.L24:
 164 0014 4FF0FF33 		mov	r3, #-1
 165 0018 A068     		ldr	r0, [r4, #8]
 166 001a A360     		str	r3, [r4, #8]
 167 001c FFF7FEFF 		bl	FLASH_SetErrorCode
 168 0020 FFF7FEFF 		bl	HAL_FLASH_OperationErrorCallback
 169 0024 0023     		movs	r3, #0
 170 0026 2370     		strb	r3, [r4]
 171              	.L25:
 172 0028 384D     		ldr	r5, .L45
 173 002a EB68     		ldr	r3, [r5, #12]
 174 002c 9B06     		lsls	r3, r3, #26
 175 002e 18D5     		bpl	.L27
 176 0030 2023     		movs	r3, #32
 177 0032 EB60     		str	r3, [r5, #12]
 178 0034 2378     		ldrb	r3, [r4]	@ zero_extendqisi2
 179 0036 A3B1     		cbz	r3, .L27
 180 0038 2378     		ldrb	r3, [r4]	@ zero_extendqisi2
ARM GAS  C:\Users\q-bir\AppData\Local\Temp\cc3yS06B.s 			page 4


 181 003a 012B     		cmp	r3, #1
 182 003c 27D1     		bne	.L29
 183 003e 6368     		ldr	r3, [r4, #4]
 184 0040 013B     		subs	r3, r3, #1
 185 0042 6360     		str	r3, [r4, #4]
 186 0044 6368     		ldr	r3, [r4, #4]
 187 0046 DBB1     		cbz	r3, .L30
 188 0048 A068     		ldr	r0, [r4, #8]
 189 004a FFF7FEFF 		bl	HAL_FLASH_EndOfOperationCallback
 190 004e A068     		ldr	r0, [r4, #8]
 191 0050 00F50060 		add	r0, r0, #2048
 192 0054 A060     		str	r0, [r4, #8]
 193 0056 2B69     		ldr	r3, [r5, #16]
 194 0058 23F00203 		bic	r3, r3, #2
 195 005c 2B61     		str	r3, [r5, #16]
 196 005e FFF7FEFF 		bl	FLASH_PageErase
 197              	.L27:
 198 0062 2378     		ldrb	r3, [r4]	@ zero_extendqisi2
 199 0064 03F0FF01 		and	r1, r3, #255
 200 0068 4BB9     		cbnz	r3, .L23
 201 006a 284B     		ldr	r3, .L45
 202 006c 1A69     		ldr	r2, [r3, #16]
 203 006e 22F00702 		bic	r2, r2, #7
 204 0072 1A61     		str	r2, [r3, #16]
 205 0074 1A69     		ldr	r2, [r3, #16]
 206 0076 22F4A052 		bic	r2, r2, #5120
 207 007a 1A61     		str	r2, [r3, #16]
 208 007c 2176     		strb	r1, [r4, #24]
 209              	.L23:
 210 007e 70BD     		pop	{r4, r5, r6, pc}
 211              	.L30:
 212 0080 4FF0FF30 		mov	r0, #-1
 213 0084 A060     		str	r0, [r4, #8]
 214 0086 2370     		strb	r3, [r4]
 215 0088 FFF7FEFF 		bl	HAL_FLASH_EndOfOperationCallback
 216 008c E9E7     		b	.L27
 217              	.L29:
 218 008e 2378     		ldrb	r3, [r4]	@ zero_extendqisi2
 219 0090 022B     		cmp	r3, #2
 220 0092 09D1     		bne	.L31
 221 0094 2B69     		ldr	r3, [r5, #16]
 222 0096 23F00403 		bic	r3, r3, #4
 223 009a 2B61     		str	r3, [r5, #16]
 224 009c 0020     		movs	r0, #0
 225 009e FFF7FEFF 		bl	HAL_FLASH_EndOfOperationCallback
 226              	.L44:
 227 00a2 0023     		movs	r3, #0
 228 00a4 2370     		strb	r3, [r4]
 229 00a6 DCE7     		b	.L27
 230              	.L31:
 231 00a8 6368     		ldr	r3, [r4, #4]
 232 00aa 013B     		subs	r3, r3, #1
 233 00ac 6360     		str	r3, [r4, #4]
 234 00ae 6368     		ldr	r3, [r4, #4]
 235 00b0 D3B1     		cbz	r3, .L32
 236 00b2 A368     		ldr	r3, [r4, #8]
 237 00b4 0233     		adds	r3, r3, #2
ARM GAS  C:\Users\q-bir\AppData\Local\Temp\cc3yS06B.s 			page 5


 238 00b6 A360     		str	r3, [r4, #8]
 239 00b8 A668     		ldr	r6, [r4, #8]
 240 00ba D4E90401 		ldrd	r0, [r4, #16]
 241 00be 020C     		lsrs	r2, r0, #16
 242 00c0 42EA0142 		orr	r2, r2, r1, lsl #16
 243 00c4 0B0C     		lsrs	r3, r1, #16
 244 00c6 C4E90423 		strd	r2, [r4, #16]
 245 00ca 2B69     		ldr	r3, [r5, #16]
 246 00cc 23F00103 		bic	r3, r3, #1
 247 00d0 2B61     		str	r3, [r5, #16]
 248 00d2 D4E90423 		ldrd	r2, [r4, #16]
 249 00d6 0023     		movs	r3, #0
 250 00d8 E361     		str	r3, [r4, #28]
 251 00da 2B69     		ldr	r3, [r5, #16]
 252 00dc 92B2     		uxth	r2, r2
 253 00de 43F00103 		orr	r3, r3, #1
 254 00e2 2B61     		str	r3, [r5, #16]
 255 00e4 3280     		strh	r2, [r6]	@ movhi
 256 00e6 BCE7     		b	.L27
 257              	.L32:
 258 00e8 2378     		ldrb	r3, [r4]	@ zero_extendqisi2
 259 00ea 032B     		cmp	r3, #3
 260 00ec 06D1     		bne	.L33
 261 00ee A068     		ldr	r0, [r4, #8]
 262              	.L43:
 263 00f0 FFF7FEFF 		bl	HAL_FLASH_EndOfOperationCallback
 264 00f4 4FF0FF33 		mov	r3, #-1
 265 00f8 A360     		str	r3, [r4, #8]
 266 00fa D2E7     		b	.L44
 267              	.L33:
 268 00fc 2378     		ldrb	r3, [r4]	@ zero_extendqisi2
 269 00fe A068     		ldr	r0, [r4, #8]
 270 0100 042B     		cmp	r3, #4
 271 0102 0CBF     		ite	eq
 272 0104 0238     		subeq	r0, r0, #2
 273 0106 0638     		subne	r0, r0, #6
 274 0108 F2E7     		b	.L43
 275              	.L46:
 276 010a 00BF     		.align	2
 277              	.L45:
 278 010c 00200240 		.word	1073881088
 279 0110 00000000 		.word	pFlash
 281              		.section	.text.HAL_FLASH_Unlock,"ax",%progbits
 282              		.align	1
 283              		.global	HAL_FLASH_Unlock
 284              		.syntax unified
 285              		.thumb
 286              		.thumb_func
 287              		.fpu fpv4-sp-d16
 289              	HAL_FLASH_Unlock:
 290              		@ args = 0, pretend = 0, frame = 0
 291              		@ frame_needed = 0, uses_anonymous_args = 0
 292              		@ link register save eliminated.
 293 0000 064B     		ldr	r3, .L50
 294 0002 1869     		ldr	r0, [r3, #16]
 295 0004 10F08000 		ands	r0, r0, #128
 296 0008 07D0     		beq	.L48
ARM GAS  C:\Users\q-bir\AppData\Local\Temp\cc3yS06B.s 			page 6


 297 000a 054A     		ldr	r2, .L50+4
 298 000c 5A60     		str	r2, [r3, #4]
 299 000e 02F18832 		add	r2, r2, #-2004318072
 300 0012 5A60     		str	r2, [r3, #4]
 301 0014 1869     		ldr	r0, [r3, #16]
 302 0016 C0F3C010 		ubfx	r0, r0, #7, #1
 303              	.L48:
 304 001a 7047     		bx	lr
 305              	.L51:
 306              		.align	2
 307              	.L50:
 308 001c 00200240 		.word	1073881088
 309 0020 23016745 		.word	1164378403
 311              		.section	.text.HAL_FLASH_Lock,"ax",%progbits
 312              		.align	1
 313              		.global	HAL_FLASH_Lock
 314              		.syntax unified
 315              		.thumb
 316              		.thumb_func
 317              		.fpu fpv4-sp-d16
 319              	HAL_FLASH_Lock:
 320              		@ args = 0, pretend = 0, frame = 0
 321              		@ frame_needed = 0, uses_anonymous_args = 0
 322              		@ link register save eliminated.
 323 0000 034A     		ldr	r2, .L53
 324 0002 1369     		ldr	r3, [r2, #16]
 325 0004 43F08003 		orr	r3, r3, #128
 326 0008 1361     		str	r3, [r2, #16]
 327 000a 0020     		movs	r0, #0
 328 000c 7047     		bx	lr
 329              	.L54:
 330 000e 00BF     		.align	2
 331              	.L53:
 332 0010 00200240 		.word	1073881088
 334              		.section	.text.HAL_FLASH_OB_Unlock,"ax",%progbits
 335              		.align	1
 336              		.global	HAL_FLASH_OB_Unlock
 337              		.syntax unified
 338              		.thumb
 339              		.thumb_func
 340              		.fpu fpv4-sp-d16
 342              	HAL_FLASH_OB_Unlock:
 343              		@ args = 0, pretend = 0, frame = 0
 344              		@ frame_needed = 0, uses_anonymous_args = 0
 345              		@ link register save eliminated.
 346 0000 064B     		ldr	r3, .L58
 347 0002 1869     		ldr	r0, [r3, #16]
 348 0004 10F40070 		ands	r0, r0, #512
 349 0008 01BF     		itttt	eq
 350 000a 054A     		ldreq	r2, .L58+4
 351 000c 9A60     		streq	r2, [r3, #8]
 352 000e 02F18832 		addeq	r2, r2, #-2004318072
 353 0012 9A60     		streq	r2, [r3, #8]
 354 0014 18BF     		it	ne
 355 0016 0120     		movne	r0, #1
 356 0018 7047     		bx	lr
 357              	.L59:
ARM GAS  C:\Users\q-bir\AppData\Local\Temp\cc3yS06B.s 			page 7


 358 001a 00BF     		.align	2
 359              	.L58:
 360 001c 00200240 		.word	1073881088
 361 0020 23016745 		.word	1164378403
 363              		.section	.text.HAL_FLASH_OB_Lock,"ax",%progbits
 364              		.align	1
 365              		.global	HAL_FLASH_OB_Lock
 366              		.syntax unified
 367              		.thumb
 368              		.thumb_func
 369              		.fpu fpv4-sp-d16
 371              	HAL_FLASH_OB_Lock:
 372              		@ args = 0, pretend = 0, frame = 0
 373              		@ frame_needed = 0, uses_anonymous_args = 0
 374              		@ link register save eliminated.
 375 0000 034A     		ldr	r2, .L61
 376 0002 1369     		ldr	r3, [r2, #16]
 377 0004 23F40073 		bic	r3, r3, #512
 378 0008 1361     		str	r3, [r2, #16]
 379 000a 0020     		movs	r0, #0
 380 000c 7047     		bx	lr
 381              	.L62:
 382 000e 00BF     		.align	2
 383              	.L61:
 384 0010 00200240 		.word	1073881088
 386              		.section	.text.HAL_FLASH_GetError,"ax",%progbits
 387              		.align	1
 388              		.global	HAL_FLASH_GetError
 389              		.syntax unified
 390              		.thumb
 391              		.thumb_func
 392              		.fpu fpv4-sp-d16
 394              	HAL_FLASH_GetError:
 395              		@ args = 0, pretend = 0, frame = 0
 396              		@ frame_needed = 0, uses_anonymous_args = 0
 397              		@ link register save eliminated.
 398 0000 014B     		ldr	r3, .L64
 399 0002 D869     		ldr	r0, [r3, #28]
 400 0004 7047     		bx	lr
 401              	.L65:
 402 0006 00BF     		.align	2
 403              	.L64:
 404 0008 00000000 		.word	pFlash
 406              		.section	.text.FLASH_WaitForLastOperation,"ax",%progbits
 407              		.align	1
 408              		.global	FLASH_WaitForLastOperation
 409              		.syntax unified
 410              		.thumb
 411              		.thumb_func
 412              		.fpu fpv4-sp-d16
 414              	FLASH_WaitForLastOperation:
 415              		@ args = 0, pretend = 0, frame = 0
 416              		@ frame_needed = 0, uses_anonymous_args = 0
 417 0000 F8B5     		push	{r3, r4, r5, r6, r7, lr}
 418 0002 0446     		mov	r4, r0
 419 0004 FFF7FEFF 		bl	HAL_GetTick
 420 0008 104D     		ldr	r5, .L81
ARM GAS  C:\Users\q-bir\AppData\Local\Temp\cc3yS06B.s 			page 8


 421 000a 0646     		mov	r6, r0
 422 000c 2F46     		mov	r7, r5
 423              	.L68:
 424 000e EB68     		ldr	r3, [r5, #12]
 425 0010 D907     		lsls	r1, r3, #31
 426 0012 0FD4     		bmi	.L72
 427 0014 EB68     		ldr	r3, [r5, #12]
 428 0016 9A06     		lsls	r2, r3, #26
 429 0018 44BF     		itt	mi
 430 001a 2023     		movmi	r3, #32
 431 001c EB60     		strmi	r3, [r5, #12]
 432 001e FB68     		ldr	r3, [r7, #12]
 433 0020 DB06     		lsls	r3, r3, #27
 434 0022 03D4     		bmi	.L74
 435 0024 F868     		ldr	r0, [r7, #12]
 436 0026 10F00400 		ands	r0, r0, #4
 437 002a 07D0     		beq	.L70
 438              	.L74:
 439 002c FFF7FEFF 		bl	FLASH_SetErrorCode
 440 0030 0120     		movs	r0, #1
 441 0032 03E0     		b	.L70
 442              	.L72:
 443 0034 601C     		adds	r0, r4, #1
 444 0036 EAD0     		beq	.L68
 445 0038 0CB9     		cbnz	r4, .L69
 446              	.L71:
 447 003a 0320     		movs	r0, #3
 448              	.L70:
 449 003c F8BD     		pop	{r3, r4, r5, r6, r7, pc}
 450              	.L69:
 451 003e FFF7FEFF 		bl	HAL_GetTick
 452 0042 801B     		subs	r0, r0, r6
 453 0044 A042     		cmp	r0, r4
 454 0046 E2D9     		bls	.L68
 455 0048 F7E7     		b	.L71
 456              	.L82:
 457 004a 00BF     		.align	2
 458              	.L81:
 459 004c 00200240 		.word	1073881088
 461              		.section	.text.HAL_FLASH_Program,"ax",%progbits
 462              		.align	1
 463              		.global	HAL_FLASH_Program
 464              		.syntax unified
 465              		.thumb
 466              		.thumb_func
 467              		.fpu fpv4-sp-d16
 469              	HAL_FLASH_Program:
 470              		@ args = 0, pretend = 0, frame = 0
 471              		@ frame_needed = 0, uses_anonymous_args = 0
 472 0000 2DE9F84F 		push	{r3, r4, r5, r6, r7, r8, r9, r10, fp, lr}
 473 0004 254E     		ldr	r6, .L92
 474 0006 1F46     		mov	r7, r3
 475 0008 337E     		ldrb	r3, [r6, #24]	@ zero_extendqisi2
 476 000a 012B     		cmp	r3, #1
 477 000c 0546     		mov	r5, r0
 478 000e 8846     		mov	r8, r1
 479 0010 9146     		mov	r9, r2
ARM GAS  C:\Users\q-bir\AppData\Local\Temp\cc3yS06B.s 			page 9


 480 0012 40D0     		beq	.L88
 481 0014 0123     		movs	r3, #1
 482 0016 4CF25030 		movw	r0, #50000
 483 001a 3376     		strb	r3, [r6, #24]
 484 001c FFF7FEFF 		bl	FLASH_WaitForLastOperation
 485 0020 A8BB     		cbnz	r0, .L85
 486 0022 012D     		cmp	r5, #1
 487 0024 03D0     		beq	.L86
 488 0026 022D     		cmp	r5, #2
 489 0028 0CBF     		ite	eq
 490 002a 0225     		moveq	r5, #2
 491 002c 0425     		movne	r5, #4
 492              	.L86:
 493 002e 4FF0000A 		mov	r10, #0
 494 0032 DFF86CB0 		ldr	fp, .L92+4
 495 0036 5346     		mov	r3, r10
 496              	.L87:
 497 0038 4FEA0A14 		lsl	r4, r10, #4
 498 003c C4F12001 		rsb	r1, r4, #32
 499 0040 A4F12002 		sub	r2, r4, #32
 500 0044 07FA01F1 		lsl	r1, r7, r1
 501 0048 29FA04F4 		lsr	r4, r9, r4
 502 004c F361     		str	r3, [r6, #28]
 503 004e 0C43     		orrs	r4, r4, r1
 504 0050 27FA02F2 		lsr	r2, r7, r2
 505 0054 1443     		orrs	r4, r4, r2
 506 0056 DBF81020 		ldr	r2, [fp, #16]
 507 005a A4B2     		uxth	r4, r4
 508 005c 42F00102 		orr	r2, r2, #1
 509 0060 CBF81020 		str	r2, [fp, #16]
 510 0064 4CF25030 		movw	r0, #50000
 511 0068 28F81A40 		strh	r4, [r8, r10, lsl #1]	@ movhi
 512 006c FFF7FEFF 		bl	FLASH_WaitForLastOperation
 513 0070 DBF81020 		ldr	r2, [fp, #16]
 514 0074 22F00102 		bic	r2, r2, #1
 515 0078 CBF81020 		str	r2, [fp, #16]
 516 007c 38B9     		cbnz	r0, .L85
 517 007e 0AF1010A 		add	r10, r10, #1
 518 0082 5FFA8AF2 		uxtb	r2, r10
 519 0086 9542     		cmp	r5, r2
 520 0088 4FF00003 		mov	r3, #0
 521 008c D4D8     		bhi	.L87
 522              	.L85:
 523 008e 0023     		movs	r3, #0
 524 0090 3376     		strb	r3, [r6, #24]
 525              	.L84:
 526 0092 BDE8F88F 		pop	{r3, r4, r5, r6, r7, r8, r9, r10, fp, pc}
 527              	.L88:
 528 0096 0220     		movs	r0, #2
 529 0098 FBE7     		b	.L84
 530              	.L93:
 531 009a 00BF     		.align	2
 532              	.L92:
 533 009c 00000000 		.word	pFlash
 534 00a0 00200240 		.word	1073881088
 536              		.section	.text.HAL_FLASH_OB_Launch,"ax",%progbits
 537              		.align	1
ARM GAS  C:\Users\q-bir\AppData\Local\Temp\cc3yS06B.s 			page 10


 538              		.global	HAL_FLASH_OB_Launch
 539              		.syntax unified
 540              		.thumb
 541              		.thumb_func
 542              		.fpu fpv4-sp-d16
 544              	HAL_FLASH_OB_Launch:
 545              		@ args = 0, pretend = 0, frame = 0
 546              		@ frame_needed = 0, uses_anonymous_args = 0
 547              		@ link register save eliminated.
 548 0000 044A     		ldr	r2, .L95
 549 0002 1369     		ldr	r3, [r2, #16]
 550 0004 43F40053 		orr	r3, r3, #8192
 551 0008 1361     		str	r3, [r2, #16]
 552 000a 4CF25030 		movw	r0, #50000
 553 000e FFF7FEBF 		b	FLASH_WaitForLastOperation
 554              	.L96:
 555 0012 00BF     		.align	2
 556              	.L95:
 557 0014 00200240 		.word	1073881088
 559              		.comm	pFlash,32,8
 560              		.ident	"GCC: (GNU Arm Embedded Toolchain 9-2020-q2-update) 9.3.1 20200408 (release)"
ARM GAS  C:\Users\q-bir\AppData\Local\Temp\cc3yS06B.s 			page 11

