ARM GAS  C:\Users\q-bir\AppData\Local\Temp\cc0FtH0H.s 			page 1


   1              		.cpu cortex-m4
   2              		.eabi_attribute 27, 1
   3              		.eabi_attribute 28, 1
   4              		.eabi_attribute 20, 1
   5              		.eabi_attribute 21, 1
   6              		.eabi_attribute 23, 3
   7              		.eabi_attribute 24, 1
   8              		.eabi_attribute 25, 1
   9              		.eabi_attribute 26, 1
  10              		.eabi_attribute 30, 4
  11              		.eabi_attribute 34, 1
  12              		.eabi_attribute 18, 4
  13              		.file	"stm32f3xx_hal_gpio.c"
  14              		.text
  15              		.section	.text.HAL_GPIO_Init,"ax",%progbits
  16              		.align	1
  17              		.global	HAL_GPIO_Init
  18              		.arch armv7e-m
  19              		.syntax unified
  20              		.thumb
  21              		.thumb_func
  22              		.fpu fpv4-sp-d16
  24              	HAL_GPIO_Init:
  25              		@ args = 0, pretend = 0, frame = 8
  26              		@ frame_needed = 0, uses_anonymous_args = 0
  27 0000 2DE9F74F 		push	{r0, r1, r2, r4, r5, r6, r7, r8, r9, r10, fp, lr}
  28 0004 DFF86881 		ldr	r8, .L25+8
  29 0008 574C     		ldr	r4, .L25
  30 000a 0023     		movs	r3, #0
  31 000c 4FF00F09 		mov	r9, #15
  32              	.L2:
  33 0010 0A68     		ldr	r2, [r1]
  34 0012 32FA03F5 		lsrs	r5, r2, r3
  35 0016 02D1     		bne	.L17
  36 0018 03B0     		add	sp, sp, #12
  37              		@ sp needed
  38 001a BDE8F08F 		pop	{r4, r5, r6, r7, r8, r9, r10, fp, pc}
  39              	.L17:
  40 001e 0125     		movs	r5, #1
  41 0020 05FA03FA 		lsl	r10, r5, r3
  42 0024 1AEA0202 		ands	r2, r10, r2
  43 0028 00F09580 		beq	.L4
  44 002c 4D68     		ldr	r5, [r1, #4]
  45 002e 25F0100E 		bic	lr, r5, #16
  46 0032 BEF1020F 		cmp	lr, #2
  47 0036 11D1     		bne	.L5
  48 0038 DF08     		lsrs	r7, r3, #3
  49 003a 00EB8707 		add	r7, r0, r7, lsl #2
  50 003e 03F0070C 		and	ip, r3, #7
  51 0042 3E6A     		ldr	r6, [r7, #32]
  52 0044 4FEA8C0C 		lsl	ip, ip, #2
  53 0048 09FA0CFB 		lsl	fp, r9, ip
  54 004c 26EA0B0B 		bic	fp, r6, fp
  55 0050 0E69     		ldr	r6, [r1, #16]
  56 0052 06FA0CF6 		lsl	r6, r6, ip
  57 0056 46EA0B06 		orr	r6, r6, fp
  58 005a 3E62     		str	r6, [r7, #32]
ARM GAS  C:\Users\q-bir\AppData\Local\Temp\cc0FtH0H.s 			page 2


  59              	.L5:
  60 005c D0F800B0 		ldr	fp, [r0]
  61 0060 4FEA430C 		lsl	ip, r3, #1
  62 0064 0326     		movs	r6, #3
  63 0066 06FA0CF7 		lsl	r7, r6, ip
  64 006a 2BEA070B 		bic	fp, fp, r7
  65 006e FE43     		mvns	r6, r7
  66 0070 05F00307 		and	r7, r5, #3
  67 0074 07FA0CF7 		lsl	r7, r7, ip
  68 0078 0EF1FF3E 		add	lr, lr, #-1
  69 007c 47EA0B07 		orr	r7, r7, fp
  70 0080 BEF1010F 		cmp	lr, #1
  71 0084 0760     		str	r7, [r0]
  72 0086 11D8     		bhi	.L6
  73 0088 8768     		ldr	r7, [r0, #8]
  74 008a 06EA070E 		and	lr, r6, r7
  75 008e CF68     		ldr	r7, [r1, #12]
  76 0090 07FA0CF7 		lsl	r7, r7, ip
  77 0094 47EA0E07 		orr	r7, r7, lr
  78 0098 8760     		str	r7, [r0, #8]
  79 009a 4768     		ldr	r7, [r0, #4]
  80 009c 27EA0A0A 		bic	r10, r7, r10
  81 00a0 C5F30017 		ubfx	r7, r5, #4, #1
  82 00a4 9F40     		lsls	r7, r7, r3
  83 00a6 47EA0A07 		orr	r7, r7, r10
  84 00aa 4760     		str	r7, [r0, #4]
  85              	.L6:
  86 00ac C768     		ldr	r7, [r0, #12]
  87 00ae 3740     		ands	r7, r7, r6
  88 00b0 8E68     		ldr	r6, [r1, #8]
  89 00b2 06FA0CF6 		lsl	r6, r6, ip
  90 00b6 3E43     		orrs	r6, r6, r7
  91 00b8 C660     		str	r6, [r0, #12]
  92 00ba EE00     		lsls	r6, r5, #3
  93 00bc 4BD5     		bpl	.L4
  94 00be D8F81860 		ldr	r6, [r8, #24]
  95 00c2 46F00106 		orr	r6, r6, #1
  96 00c6 C8F81860 		str	r6, [r8, #24]
  97 00ca D8F81860 		ldr	r6, [r8, #24]
  98 00ce 23F00307 		bic	r7, r3, #3
  99 00d2 07F18047 		add	r7, r7, #1073741824
 100 00d6 06F00106 		and	r6, r6, #1
 101 00da 07F58037 		add	r7, r7, #65536
 102 00de 0196     		str	r6, [sp, #4]
 103 00e0 03F0030C 		and	ip, r3, #3
 104 00e4 019E     		ldr	r6, [sp, #4]
 105 00e6 BE68     		ldr	r6, [r7, #8]
 106 00e8 4FEA8C0C 		lsl	ip, ip, #2
 107 00ec 09FA0CFE 		lsl	lr, r9, ip
 108 00f0 B0F1904F 		cmp	r0, #1207959552
 109 00f4 26EA0E0E 		bic	lr, r6, lr
 110 00f8 2FD0     		beq	.L18
 111 00fa 1C4E     		ldr	r6, .L25+4
 112 00fc B042     		cmp	r0, r6
 113 00fe 2ED0     		beq	.L19
 114 0100 06F58066 		add	r6, r6, #1024
 115 0104 B042     		cmp	r0, r6
ARM GAS  C:\Users\q-bir\AppData\Local\Temp\cc0FtH0H.s 			page 3


 116 0106 2CD0     		beq	.L20
 117 0108 06F58066 		add	r6, r6, #1024
 118 010c B042     		cmp	r0, r6
 119 010e 0CBF     		ite	eq
 120 0110 0326     		moveq	r6, #3
 121 0112 0526     		movne	r6, #5
 122              	.L8:
 123 0114 06FA0CF6 		lsl	r6, r6, ip
 124 0118 46EA0E06 		orr	r6, r6, lr
 125 011c BE60     		str	r6, [r7, #8]
 126 011e 2668     		ldr	r6, [r4]
 127 0120 D743     		mvns	r7, r2
 128 0122 15F4803F 		tst	r5, #65536
 129 0126 0CBF     		ite	eq
 130 0128 3E40     		andeq	r6, r6, r7
 131 012a 1643     		orrne	r6, r6, r2
 132 012c 2660     		str	r6, [r4]
 133 012e 6668     		ldr	r6, [r4, #4]
 134 0130 15F4003F 		tst	r5, #131072
 135 0134 0CBF     		ite	eq
 136 0136 3E40     		andeq	r6, r6, r7
 137 0138 1643     		orrne	r6, r6, r2
 138 013a 6660     		str	r6, [r4, #4]
 139 013c A668     		ldr	r6, [r4, #8]
 140 013e 15F4801F 		tst	r5, #1048576
 141 0142 0CBF     		ite	eq
 142 0144 3E40     		andeq	r6, r6, r7
 143 0146 1643     		orrne	r6, r6, r2
 144 0148 A660     		str	r6, [r4, #8]
 145 014a E668     		ldr	r6, [r4, #12]
 146 014c AD02     		lsls	r5, r5, #10
 147 014e 54BF     		ite	pl
 148 0150 3E40     		andpl	r6, r6, r7
 149 0152 1643     		orrmi	r6, r6, r2
 150 0154 E660     		str	r6, [r4, #12]
 151              	.L4:
 152 0156 0133     		adds	r3, r3, #1
 153 0158 5AE7     		b	.L2
 154              	.L18:
 155 015a 0026     		movs	r6, #0
 156 015c DAE7     		b	.L8
 157              	.L19:
 158 015e 0126     		movs	r6, #1
 159 0160 D8E7     		b	.L8
 160              	.L20:
 161 0162 0226     		movs	r6, #2
 162 0164 D6E7     		b	.L8
 163              	.L26:
 164 0166 00BF     		.align	2
 165              	.L25:
 166 0168 00040140 		.word	1073808384
 167 016c 00040048 		.word	1207960576
 168 0170 00100240 		.word	1073876992
 170              		.section	.text.HAL_GPIO_DeInit,"ax",%progbits
 171              		.align	1
 172              		.global	HAL_GPIO_DeInit
 173              		.syntax unified
ARM GAS  C:\Users\q-bir\AppData\Local\Temp\cc0FtH0H.s 			page 4


 174              		.thumb
 175              		.thumb_func
 176              		.fpu fpv4-sp-d16
 178              	HAL_GPIO_DeInit:
 179              		@ args = 0, pretend = 0, frame = 0
 180              		@ frame_needed = 0, uses_anonymous_args = 0
 181 0000 2DE9F04F 		push	{r4, r5, r6, r7, r8, r9, r10, fp, lr}
 182 0004 374A     		ldr	r2, .L38
 183 0006 DFF8E490 		ldr	r9, .L38+8
 184 000a 0023     		movs	r3, #0
 185 000c 4FF0010E 		mov	lr, #1
 186 0010 4FF00308 		mov	r8, #3
 187 0014 4FF00F0C 		mov	ip, #15
 188              	.L28:
 189 0018 31FA03F4 		lsrs	r4, r1, r3
 190 001c 01D1     		bne	.L33
 191 001e BDE8F08F 		pop	{r4, r5, r6, r7, r8, r9, r10, fp, pc}
 192              	.L33:
 193 0022 0EFA03FA 		lsl	r10, lr, r3
 194 0026 1AEA0106 		ands	r6, r10, r1
 195 002a 52D0     		beq	.L30
 196 002c 0568     		ldr	r5, [r0]
 197 002e 5C00     		lsls	r4, r3, #1
 198 0030 08FA04F4 		lsl	r4, r8, r4
 199 0034 DF08     		lsrs	r7, r3, #3
 200 0036 25EA0405 		bic	r5, r5, r4
 201 003a 00EB8707 		add	r7, r0, r7, lsl #2
 202 003e 0560     		str	r5, [r0]
 203 0040 03F00705 		and	r5, r3, #7
 204 0044 D7F820B0 		ldr	fp, [r7, #32]
 205 0048 AD00     		lsls	r5, r5, #2
 206 004a 0CFA05F5 		lsl	r5, ip, r5
 207 004e 2BEA0505 		bic	r5, fp, r5
 208 0052 3D62     		str	r5, [r7, #32]
 209 0054 8568     		ldr	r5, [r0, #8]
 210 0056 25EA0405 		bic	r5, r5, r4
 211 005a 8560     		str	r5, [r0, #8]
 212 005c 4568     		ldr	r5, [r0, #4]
 213 005e 25EA0A05 		bic	r5, r5, r10
 214 0062 4560     		str	r5, [r0, #4]
 215 0064 C568     		ldr	r5, [r0, #12]
 216 0066 25EA0404 		bic	r4, r5, r4
 217 006a C460     		str	r4, [r0, #12]
 218 006c 23F00304 		bic	r4, r3, #3
 219 0070 04F18044 		add	r4, r4, #1073741824
 220 0074 04F58034 		add	r4, r4, #65536
 221 0078 03F00307 		and	r7, r3, #3
 222 007c A568     		ldr	r5, [r4, #8]
 223 007e BF00     		lsls	r7, r7, #2
 224 0080 0CFA07FB 		lsl	fp, ip, r7
 225 0084 B0F1904F 		cmp	r0, #1207959552
 226 0088 0BEA050A 		and	r10, fp, r5
 227 008c 23D0     		beq	.L34
 228 008e 164D     		ldr	r5, .L38+4
 229 0090 A842     		cmp	r0, r5
 230 0092 22D0     		beq	.L35
 231 0094 05F58065 		add	r5, r5, #1024
ARM GAS  C:\Users\q-bir\AppData\Local\Temp\cc0FtH0H.s 			page 5


 232 0098 A842     		cmp	r0, r5
 233 009a 20D0     		beq	.L36
 234 009c 4845     		cmp	r0, r9
 235 009e 0CBF     		ite	eq
 236 00a0 0325     		moveq	r5, #3
 237 00a2 0525     		movne	r5, #5
 238              	.L31:
 239 00a4 BD40     		lsls	r5, r5, r7
 240 00a6 5545     		cmp	r5, r10
 241 00a8 13D1     		bne	.L30
 242 00aa A568     		ldr	r5, [r4, #8]
 243 00ac 25EA0B05 		bic	r5, r5, fp
 244 00b0 A560     		str	r5, [r4, #8]
 245 00b2 1468     		ldr	r4, [r2]
 246 00b4 24EA0604 		bic	r4, r4, r6
 247 00b8 1460     		str	r4, [r2]
 248 00ba 5468     		ldr	r4, [r2, #4]
 249 00bc 24EA0604 		bic	r4, r4, r6
 250 00c0 5460     		str	r4, [r2, #4]
 251 00c2 9468     		ldr	r4, [r2, #8]
 252 00c4 24EA0604 		bic	r4, r4, r6
 253 00c8 9460     		str	r4, [r2, #8]
 254 00ca D468     		ldr	r4, [r2, #12]
 255 00cc 24EA0606 		bic	r6, r4, r6
 256 00d0 D660     		str	r6, [r2, #12]
 257              	.L30:
 258 00d2 0133     		adds	r3, r3, #1
 259 00d4 A0E7     		b	.L28
 260              	.L34:
 261 00d6 0025     		movs	r5, #0
 262 00d8 E4E7     		b	.L31
 263              	.L35:
 264 00da 0125     		movs	r5, #1
 265 00dc E2E7     		b	.L31
 266              	.L36:
 267 00de 0225     		movs	r5, #2
 268 00e0 E0E7     		b	.L31
 269              	.L39:
 270 00e2 00BF     		.align	2
 271              	.L38:
 272 00e4 00040140 		.word	1073808384
 273 00e8 00040048 		.word	1207960576
 274 00ec 000C0048 		.word	1207962624
 276              		.section	.text.HAL_GPIO_ReadPin,"ax",%progbits
 277              		.align	1
 278              		.global	HAL_GPIO_ReadPin
 279              		.syntax unified
 280              		.thumb
 281              		.thumb_func
 282              		.fpu fpv4-sp-d16
 284              	HAL_GPIO_ReadPin:
 285              		@ args = 0, pretend = 0, frame = 0
 286              		@ frame_needed = 0, uses_anonymous_args = 0
 287              		@ link register save eliminated.
 288 0000 0369     		ldr	r3, [r0, #16]
 289 0002 1942     		tst	r1, r3
 290 0004 14BF     		ite	ne
ARM GAS  C:\Users\q-bir\AppData\Local\Temp\cc0FtH0H.s 			page 6


 291 0006 0120     		movne	r0, #1
 292 0008 0020     		moveq	r0, #0
 293 000a 7047     		bx	lr
 295              		.section	.text.HAL_GPIO_WritePin,"ax",%progbits
 296              		.align	1
 297              		.global	HAL_GPIO_WritePin
 298              		.syntax unified
 299              		.thumb
 300              		.thumb_func
 301              		.fpu fpv4-sp-d16
 303              	HAL_GPIO_WritePin:
 304              		@ args = 0, pretend = 0, frame = 0
 305              		@ frame_needed = 0, uses_anonymous_args = 0
 306              		@ link register save eliminated.
 307 0000 0AB1     		cbz	r2, .L42
 308 0002 8161     		str	r1, [r0, #24]
 309 0004 7047     		bx	lr
 310              	.L42:
 311 0006 8162     		str	r1, [r0, #40]
 312 0008 7047     		bx	lr
 314              		.section	.text.HAL_GPIO_TogglePin,"ax",%progbits
 315              		.align	1
 316              		.global	HAL_GPIO_TogglePin
 317              		.syntax unified
 318              		.thumb
 319              		.thumb_func
 320              		.fpu fpv4-sp-d16
 322              	HAL_GPIO_TogglePin:
 323              		@ args = 0, pretend = 0, frame = 0
 324              		@ frame_needed = 0, uses_anonymous_args = 0
 325              		@ link register save eliminated.
 326 0000 4369     		ldr	r3, [r0, #20]
 327 0002 5940     		eors	r1, r1, r3
 328 0004 4161     		str	r1, [r0, #20]
 329 0006 7047     		bx	lr
 331              		.section	.text.HAL_GPIO_LockPin,"ax",%progbits
 332              		.align	1
 333              		.global	HAL_GPIO_LockPin
 334              		.syntax unified
 335              		.thumb
 336              		.thumb_func
 337              		.fpu fpv4-sp-d16
 339              	HAL_GPIO_LockPin:
 340              		@ args = 0, pretend = 0, frame = 8
 341              		@ frame_needed = 0, uses_anonymous_args = 0
 342              		@ link register save eliminated.
 343 0000 82B0     		sub	sp, sp, #8
 344 0002 4FF48033 		mov	r3, #65536
 345 0006 0193     		str	r3, [sp, #4]
 346 0008 019B     		ldr	r3, [sp, #4]
 347 000a 0B43     		orrs	r3, r3, r1
 348 000c 0193     		str	r3, [sp, #4]
 349 000e 019B     		ldr	r3, [sp, #4]
 350 0010 C361     		str	r3, [r0, #28]
 351 0012 C161     		str	r1, [r0, #28]
 352 0014 019B     		ldr	r3, [sp, #4]
 353 0016 C361     		str	r3, [r0, #28]
ARM GAS  C:\Users\q-bir\AppData\Local\Temp\cc0FtH0H.s 			page 7


 354 0018 C369     		ldr	r3, [r0, #28]
 355 001a 0193     		str	r3, [sp, #4]
 356 001c C069     		ldr	r0, [r0, #28]
 357 001e 80F48030 		eor	r0, r0, #65536
 358 0022 C0F30040 		ubfx	r0, r0, #16, #1
 359 0026 02B0     		add	sp, sp, #8
 360              		@ sp needed
 361 0028 7047     		bx	lr
 363              		.section	.text.HAL_GPIO_EXTI_Callback,"ax",%progbits
 364              		.align	1
 365              		.weak	HAL_GPIO_EXTI_Callback
 366              		.syntax unified
 367              		.thumb
 368              		.thumb_func
 369              		.fpu fpv4-sp-d16
 371              	HAL_GPIO_EXTI_Callback:
 372              		@ args = 0, pretend = 0, frame = 0
 373              		@ frame_needed = 0, uses_anonymous_args = 0
 374              		@ link register save eliminated.
 375 0000 7047     		bx	lr
 377              		.section	.text.HAL_GPIO_EXTI_IRQHandler,"ax",%progbits
 378              		.align	1
 379              		.global	HAL_GPIO_EXTI_IRQHandler
 380              		.syntax unified
 381              		.thumb
 382              		.thumb_func
 383              		.fpu fpv4-sp-d16
 385              	HAL_GPIO_EXTI_IRQHandler:
 386              		@ args = 0, pretend = 0, frame = 0
 387              		@ frame_needed = 0, uses_anonymous_args = 0
 388 0000 044A     		ldr	r2, .L52
 389 0002 5169     		ldr	r1, [r2, #20]
 390 0004 0142     		tst	r1, r0
 391 0006 08B5     		push	{r3, lr}
 392 0008 02D0     		beq	.L47
 393 000a 5061     		str	r0, [r2, #20]
 394 000c FFF7FEFF 		bl	HAL_GPIO_EXTI_Callback
 395              	.L47:
 396 0010 08BD     		pop	{r3, pc}
 397              	.L53:
 398 0012 00BF     		.align	2
 399              	.L52:
 400 0014 00040140 		.word	1073808384
 402              		.ident	"GCC: (GNU Arm Embedded Toolchain 9-2020-q2-update) 9.3.1 20200408 (release)"
ARM GAS  C:\Users\q-bir\AppData\Local\Temp\cc0FtH0H.s 			page 8

