ARM GAS  C:\Users\q-bir\AppData\Local\Temp\ccZMhye6.s 			page 1


   1              		.cpu cortex-m4
   2              		.eabi_attribute 27, 1
   3              		.eabi_attribute 28, 1
   4              		.eabi_attribute 20, 1
   5              		.eabi_attribute 21, 1
   6              		.eabi_attribute 23, 3
   7              		.eabi_attribute 24, 1
   8              		.eabi_attribute 25, 1
   9              		.eabi_attribute 26, 1
  10              		.eabi_attribute 30, 4
  11              		.eabi_attribute 34, 1
  12              		.eabi_attribute 18, 4
  13              		.file	"stm32f3xx_it.c"
  14              		.text
  15              		.section	.text.NMI_Handler,"ax",%progbits
  16              		.align	1
  17              		.global	NMI_Handler
  18              		.arch armv7e-m
  19              		.syntax unified
  20              		.thumb
  21              		.thumb_func
  22              		.fpu fpv4-sp-d16
  24              	NMI_Handler:
  25              		@ args = 0, pretend = 0, frame = 0
  26              		@ frame_needed = 0, uses_anonymous_args = 0
  27              		@ link register save eliminated.
  28 0000 7047     		bx	lr
  30              		.section	.text.HardFault_Handler,"ax",%progbits
  31              		.align	1
  32              		.global	HardFault_Handler
  33              		.syntax unified
  34              		.thumb
  35              		.thumb_func
  36              		.fpu fpv4-sp-d16
  38              	HardFault_Handler:
  39              		@ Volatile: function does not return.
  40              		@ args = 0, pretend = 0, frame = 0
  41              		@ frame_needed = 0, uses_anonymous_args = 0
  42              		@ link register save eliminated.
  43              	.L3:
  44 0000 FEE7     		b	.L3
  46              		.section	.text.MemManage_Handler,"ax",%progbits
  47              		.align	1
  48              		.global	MemManage_Handler
  49              		.syntax unified
  50              		.thumb
  51              		.thumb_func
  52              		.fpu fpv4-sp-d16
  54              	MemManage_Handler:
  55              		@ Volatile: function does not return.
  56              		@ args = 0, pretend = 0, frame = 0
  57              		@ frame_needed = 0, uses_anonymous_args = 0
  58              		@ link register save eliminated.
  59              	.L5:
  60 0000 FEE7     		b	.L5
  62              		.section	.text.BusFault_Handler,"ax",%progbits
  63              		.align	1
ARM GAS  C:\Users\q-bir\AppData\Local\Temp\ccZMhye6.s 			page 2


  64              		.global	BusFault_Handler
  65              		.syntax unified
  66              		.thumb
  67              		.thumb_func
  68              		.fpu fpv4-sp-d16
  70              	BusFault_Handler:
  71              		@ Volatile: function does not return.
  72              		@ args = 0, pretend = 0, frame = 0
  73              		@ frame_needed = 0, uses_anonymous_args = 0
  74              		@ link register save eliminated.
  75              	.L7:
  76 0000 FEE7     		b	.L7
  78              		.section	.text.UsageFault_Handler,"ax",%progbits
  79              		.align	1
  80              		.global	UsageFault_Handler
  81              		.syntax unified
  82              		.thumb
  83              		.thumb_func
  84              		.fpu fpv4-sp-d16
  86              	UsageFault_Handler:
  87              		@ Volatile: function does not return.
  88              		@ args = 0, pretend = 0, frame = 0
  89              		@ frame_needed = 0, uses_anonymous_args = 0
  90              		@ link register save eliminated.
  91              	.L9:
  92 0000 FEE7     		b	.L9
  94              		.section	.text.SVC_Handler,"ax",%progbits
  95              		.align	1
  96              		.global	SVC_Handler
  97              		.syntax unified
  98              		.thumb
  99              		.thumb_func
 100              		.fpu fpv4-sp-d16
 102              	SVC_Handler:
 103              		@ args = 0, pretend = 0, frame = 0
 104              		@ frame_needed = 0, uses_anonymous_args = 0
 105              		@ link register save eliminated.
 106 0000 7047     		bx	lr
 108              		.section	.text.DebugMon_Handler,"ax",%progbits
 109              		.align	1
 110              		.global	DebugMon_Handler
 111              		.syntax unified
 112              		.thumb
 113              		.thumb_func
 114              		.fpu fpv4-sp-d16
 116              	DebugMon_Handler:
 117              		@ args = 0, pretend = 0, frame = 0
 118              		@ frame_needed = 0, uses_anonymous_args = 0
 119              		@ link register save eliminated.
 120 0000 7047     		bx	lr
 122              		.section	.text.PendSV_Handler,"ax",%progbits
 123              		.align	1
 124              		.global	PendSV_Handler
 125              		.syntax unified
 126              		.thumb
 127              		.thumb_func
 128              		.fpu fpv4-sp-d16
ARM GAS  C:\Users\q-bir\AppData\Local\Temp\ccZMhye6.s 			page 3


 130              	PendSV_Handler:
 131              		@ args = 0, pretend = 0, frame = 0
 132              		@ frame_needed = 0, uses_anonymous_args = 0
 133              		@ link register save eliminated.
 134 0000 7047     		bx	lr
 136              		.section	.text.SysTick_Handler,"ax",%progbits
 137              		.align	1
 138              		.global	SysTick_Handler
 139              		.syntax unified
 140              		.thumb
 141              		.thumb_func
 142              		.fpu fpv4-sp-d16
 144              	SysTick_Handler:
 145              		@ args = 0, pretend = 0, frame = 0
 146              		@ frame_needed = 0, uses_anonymous_args = 0
 147 0000 70B5     		push	{r4, r5, r6, lr}
 148 0002 FFF7FEFF 		bl	HAL_GetTick
 149 0006 1424     		movs	r4, #20
 150 0008 B0FBF4F3 		udiv	r3, r0, r4
 151 000c 03FB1404 		mls	r4, r3, r4, r0
 152 0010 94B1     		cbz	r4, .L14
 153              	.L20:
 154 0012 FFF7FEFF 		bl	HAL_GetTick
 155 0016 4FF4FA73 		mov	r3, #500
 156 001a B0FBF3F2 		udiv	r2, r0, r3
 157 001e 02FB1303 		mls	r3, r2, r3, r0
 158 0022 2BB9     		cbnz	r3, .L16
 159 0024 4FF40041 		mov	r1, #32768
 160 0028 4FF09040 		mov	r0, #1207959552
 161 002c FFF7FEFF 		bl	HAL_GPIO_TogglePin
 162              	.L16:
 163 0030 BDE87040 		pop	{r4, r5, r6, lr}
 164 0034 FFF7FEBF 		b	HAL_IncTick
 165              	.L14:
 166 0038 FFF7FEFF 		bl	rotateSrv1
 167 003c 074D     		ldr	r5, .L21
 168 003e 0A26     		movs	r6, #10
 169              	.L17:
 170 0040 FFF7FEFF 		bl	USART1_RX_IsEmpty
 171 0044 0028     		cmp	r0, #0
 172 0046 E4D1     		bne	.L20
 173 0048 FFF7FEFF 		bl	USART1_RX_Read
 174 004c 2F28     		cmp	r0, #47
 175 004e A0F13000 		sub	r0, r0, #48
 176 0052 98BF     		it	ls
 177 0054 2C60     		strls	r4, [r5]
 178 0056 06FB0404 		mla	r4, r6, r4, r0
 179 005a F1E7     		b	.L17
 180              	.L22:
 181              		.align	2
 182              	.L21:
 183 005c 00000000 		.word	srv1
 185              		.section	.text.EXTI3_IRQHandler,"ax",%progbits
 186              		.align	1
 187              		.global	EXTI3_IRQHandler
 188              		.syntax unified
 189              		.thumb
ARM GAS  C:\Users\q-bir\AppData\Local\Temp\ccZMhye6.s 			page 4


 190              		.thumb_func
 191              		.fpu fpv4-sp-d16
 193              	EXTI3_IRQHandler:
 194              		@ args = 0, pretend = 0, frame = 0
 195              		@ frame_needed = 0, uses_anonymous_args = 0
 196              		@ link register save eliminated.
 197 0000 0820     		movs	r0, #8
 198 0002 FFF7FEBF 		b	HAL_GPIO_EXTI_IRQHandler
 200              		.section	.text.EXTI4_IRQHandler,"ax",%progbits
 201              		.align	1
 202              		.global	EXTI4_IRQHandler
 203              		.syntax unified
 204              		.thumb
 205              		.thumb_func
 206              		.fpu fpv4-sp-d16
 208              	EXTI4_IRQHandler:
 209              		@ args = 0, pretend = 0, frame = 0
 210              		@ frame_needed = 0, uses_anonymous_args = 0
 211              		@ link register save eliminated.
 212 0000 1020     		movs	r0, #16
 213 0002 FFF7FEBF 		b	HAL_GPIO_EXTI_IRQHandler
 215              		.section	.text.DMA1_Channel5_IRQHandler,"ax",%progbits
 216              		.align	1
 217              		.global	DMA1_Channel5_IRQHandler
 218              		.syntax unified
 219              		.thumb
 220              		.thumb_func
 221              		.fpu fpv4-sp-d16
 223              	DMA1_Channel5_IRQHandler:
 224              		@ args = 0, pretend = 0, frame = 0
 225              		@ frame_needed = 0, uses_anonymous_args = 0
 226              		@ link register save eliminated.
 227 0000 0148     		ldr	r0, .L26
 228 0002 FFF7FEBF 		b	HAL_DMA_IRQHandler
 229              	.L27:
 230 0006 00BF     		.align	2
 231              	.L26:
 232 0008 00000000 		.word	hdma_usart1_rx
 234              		.section	.text.EXTI9_5_IRQHandler,"ax",%progbits
 235              		.align	1
 236              		.global	EXTI9_5_IRQHandler
 237              		.syntax unified
 238              		.thumb
 239              		.thumb_func
 240              		.fpu fpv4-sp-d16
 242              	EXTI9_5_IRQHandler:
 243              		@ args = 0, pretend = 0, frame = 0
 244              		@ frame_needed = 0, uses_anonymous_args = 0
 245 0000 08B5     		push	{r3, lr}
 246 0002 2020     		movs	r0, #32
 247 0004 FFF7FEFF 		bl	HAL_GPIO_EXTI_IRQHandler
 248 0008 BDE80840 		pop	{r3, lr}
 249 000c 4020     		movs	r0, #64
 250 000e FFF7FEBF 		b	HAL_GPIO_EXTI_IRQHandler
 252              		.ident	"GCC: (GNU Arm Embedded Toolchain 9-2020-q2-update) 9.3.1 20200408 (release)"
ARM GAS  C:\Users\q-bir\AppData\Local\Temp\ccZMhye6.s 			page 5

