ARM GAS  C:\Users\gyoku\AppData\Local\Temp\ccpDhDV6.s 			page 1


   1              		.cpu cortex-m4
   2              		.eabi_attribute 27, 1
   3              		.eabi_attribute 28, 1
   4              		.eabi_attribute 20, 1
   5              		.eabi_attribute 21, 1
   6              		.eabi_attribute 23, 3
   7              		.eabi_attribute 24, 1
   8              		.eabi_attribute 25, 1
   9              		.eabi_attribute 26, 1
  10              		.eabi_attribute 30, 4
  11              		.eabi_attribute 34, 1
  12              		.eabi_attribute 18, 4
  13              		.file	"stm32f3xx_hal_tim.c"
  14              		.text
  15              		.section	.text.HAL_TIM_Base_MspInit,"ax",%progbits
  16              		.align	1
  17              		.weak	HAL_TIM_Base_MspInit
  18              		.arch armv7e-m
  19              		.syntax unified
  20              		.thumb
  21              		.thumb_func
  22              		.fpu fpv4-sp-d16
  24              	HAL_TIM_Base_MspInit:
  25              		@ args = 0, pretend = 0, frame = 0
  26              		@ frame_needed = 0, uses_anonymous_args = 0
  27              		@ link register save eliminated.
  28 0000 7047     		bx	lr
  30              		.section	.text.HAL_TIM_Base_MspDeInit,"ax",%progbits
  31              		.align	1
  32              		.weak	HAL_TIM_Base_MspDeInit
  33              		.syntax unified
  34              		.thumb
  35              		.thumb_func
  36              		.fpu fpv4-sp-d16
  38              	HAL_TIM_Base_MspDeInit:
  39              		@ args = 0, pretend = 0, frame = 0
  40              		@ frame_needed = 0, uses_anonymous_args = 0
  41              		@ link register save eliminated.
  42 0000 7047     		bx	lr
  44              		.section	.text.HAL_TIM_Base_DeInit,"ax",%progbits
  45              		.align	1
  46              		.global	HAL_TIM_Base_DeInit
  47              		.syntax unified
  48              		.thumb
  49              		.thumb_func
  50              		.fpu fpv4-sp-d16
  52              	HAL_TIM_Base_DeInit:
  53              		@ args = 0, pretend = 0, frame = 0
  54              		@ frame_needed = 0, uses_anonymous_args = 0
  55 0000 0223     		movs	r3, #2
  56 0002 10B5     		push	{r4, lr}
  57 0004 80F83D30 		strb	r3, [r0, #61]
  58 0008 0368     		ldr	r3, [r0]
  59 000a 196A     		ldr	r1, [r3, #32]
  60 000c 41F21112 		movw	r2, #4369
  61 0010 1142     		tst	r1, r2
  62 0012 0446     		mov	r4, r0
ARM GAS  C:\Users\gyoku\AppData\Local\Temp\ccpDhDV6.s 			page 2


  63 0014 08D1     		bne	.L4
  64 0016 196A     		ldr	r1, [r3, #32]
  65 0018 40F24442 		movw	r2, #1092
  66 001c 1142     		tst	r1, r2
  67 001e 02BF     		ittt	eq
  68 0020 1A68     		ldreq	r2, [r3]
  69 0022 22F00102 		biceq	r2, r2, #1
  70 0026 1A60     		streq	r2, [r3]
  71              	.L4:
  72 0028 2046     		mov	r0, r4
  73 002a FFF7FEFF 		bl	HAL_TIM_Base_MspDeInit
  74 002e 0020     		movs	r0, #0
  75 0030 84F83D00 		strb	r0, [r4, #61]
  76 0034 84F83C00 		strb	r0, [r4, #60]
  77 0038 10BD     		pop	{r4, pc}
  79              		.section	.text.HAL_TIM_Base_Start,"ax",%progbits
  80              		.align	1
  81              		.global	HAL_TIM_Base_Start
  82              		.syntax unified
  83              		.thumb
  84              		.thumb_func
  85              		.fpu fpv4-sp-d16
  87              	HAL_TIM_Base_Start:
  88              		@ args = 0, pretend = 0, frame = 0
  89              		@ frame_needed = 0, uses_anonymous_args = 0
  90              		@ link register save eliminated.
  91 0000 0268     		ldr	r2, [r0]
  92 0002 0223     		movs	r3, #2
  93 0004 80F83D30 		strb	r3, [r0, #61]
  94 0008 1368     		ldr	r3, [r2]
  95 000a 43F00103 		orr	r3, r3, #1
  96 000e 1360     		str	r3, [r2]
  97 0010 0123     		movs	r3, #1
  98 0012 80F83D30 		strb	r3, [r0, #61]
  99 0016 0020     		movs	r0, #0
 100 0018 7047     		bx	lr
 102              		.section	.text.HAL_TIM_Base_Stop,"ax",%progbits
 103              		.align	1
 104              		.global	HAL_TIM_Base_Stop
 105              		.syntax unified
 106              		.thumb
 107              		.thumb_func
 108              		.fpu fpv4-sp-d16
 110              	HAL_TIM_Base_Stop:
 111              		@ args = 0, pretend = 0, frame = 0
 112              		@ frame_needed = 0, uses_anonymous_args = 0
 113              		@ link register save eliminated.
 114 0000 0223     		movs	r3, #2
 115 0002 80F83D30 		strb	r3, [r0, #61]
 116 0006 0368     		ldr	r3, [r0]
 117 0008 196A     		ldr	r1, [r3, #32]
 118 000a 41F21112 		movw	r2, #4369
 119 000e 1142     		tst	r1, r2
 120 0010 08D1     		bne	.L7
 121 0012 196A     		ldr	r1, [r3, #32]
 122 0014 40F24442 		movw	r2, #1092
 123 0018 1142     		tst	r1, r2
ARM GAS  C:\Users\gyoku\AppData\Local\Temp\ccpDhDV6.s 			page 3


 124 001a 02BF     		ittt	eq
 125 001c 1A68     		ldreq	r2, [r3]
 126 001e 22F00102 		biceq	r2, r2, #1
 127 0022 1A60     		streq	r2, [r3]
 128              	.L7:
 129 0024 0123     		movs	r3, #1
 130 0026 80F83D30 		strb	r3, [r0, #61]
 131 002a 0020     		movs	r0, #0
 132 002c 7047     		bx	lr
 134              		.section	.text.HAL_TIM_Base_Start_IT,"ax",%progbits
 135              		.align	1
 136              		.global	HAL_TIM_Base_Start_IT
 137              		.syntax unified
 138              		.thumb
 139              		.thumb_func
 140              		.fpu fpv4-sp-d16
 142              	HAL_TIM_Base_Start_IT:
 143              		@ args = 0, pretend = 0, frame = 0
 144              		@ frame_needed = 0, uses_anonymous_args = 0
 145              		@ link register save eliminated.
 146 0000 0368     		ldr	r3, [r0]
 147 0002 DA68     		ldr	r2, [r3, #12]
 148 0004 42F00102 		orr	r2, r2, #1
 149 0008 DA60     		str	r2, [r3, #12]
 150 000a 1A68     		ldr	r2, [r3]
 151 000c 42F00102 		orr	r2, r2, #1
 152 0010 1A60     		str	r2, [r3]
 153 0012 0020     		movs	r0, #0
 154 0014 7047     		bx	lr
 156              		.section	.text.HAL_TIM_Base_Stop_IT,"ax",%progbits
 157              		.align	1
 158              		.global	HAL_TIM_Base_Stop_IT
 159              		.syntax unified
 160              		.thumb
 161              		.thumb_func
 162              		.fpu fpv4-sp-d16
 164              	HAL_TIM_Base_Stop_IT:
 165              		@ args = 0, pretend = 0, frame = 0
 166              		@ frame_needed = 0, uses_anonymous_args = 0
 167              		@ link register save eliminated.
 168 0000 0368     		ldr	r3, [r0]
 169 0002 DA68     		ldr	r2, [r3, #12]
 170 0004 22F00102 		bic	r2, r2, #1
 171 0008 DA60     		str	r2, [r3, #12]
 172 000a 196A     		ldr	r1, [r3, #32]
 173 000c 41F21112 		movw	r2, #4369
 174 0010 1142     		tst	r1, r2
 175 0012 08D1     		bne	.L10
 176 0014 196A     		ldr	r1, [r3, #32]
 177 0016 40F24442 		movw	r2, #1092
 178 001a 1142     		tst	r1, r2
 179 001c 02BF     		ittt	eq
 180 001e 1A68     		ldreq	r2, [r3]
 181 0020 22F00102 		biceq	r2, r2, #1
 182 0024 1A60     		streq	r2, [r3]
 183              	.L10:
 184 0026 0020     		movs	r0, #0
ARM GAS  C:\Users\gyoku\AppData\Local\Temp\ccpDhDV6.s 			page 4


 185 0028 7047     		bx	lr
 187              		.section	.text.HAL_TIM_Base_Start_DMA,"ax",%progbits
 188              		.align	1
 189              		.global	HAL_TIM_Base_Start_DMA
 190              		.syntax unified
 191              		.thumb
 192              		.thumb_func
 193              		.fpu fpv4-sp-d16
 195              	HAL_TIM_Base_Start_DMA:
 196              		@ args = 0, pretend = 0, frame = 0
 197              		@ frame_needed = 0, uses_anonymous_args = 0
 198 0000 10B5     		push	{r4, lr}
 199 0002 0446     		mov	r4, r0
 200 0004 90F83D00 		ldrb	r0, [r0, #61]	@ zero_extendqisi2
 201 0008 C0B2     		uxtb	r0, r0
 202 000a 0228     		cmp	r0, #2
 203 000c 1346     		mov	r3, r2
 204 000e 1CD0     		beq	.L12
 205 0010 94F83D00 		ldrb	r0, [r4, #61]	@ zero_extendqisi2
 206 0014 C0B2     		uxtb	r0, r0
 207 0016 0128     		cmp	r0, #1
 208 0018 04D1     		bne	.L13
 209 001a 01B9     		cbnz	r1, .L14
 210 001c AAB9     		cbnz	r2, .L12
 211              	.L14:
 212 001e 0222     		movs	r2, #2
 213 0020 84F83D20 		strb	r2, [r4, #61]
 214              	.L13:
 215 0024 206A     		ldr	r0, [r4, #32]
 216 0026 094A     		ldr	r2, .L17
 217 0028 8262     		str	r2, [r0, #40]
 218 002a 094A     		ldr	r2, .L17+4
 219 002c 0263     		str	r2, [r0, #48]
 220 002e 2268     		ldr	r2, [r4]
 221 0030 2C32     		adds	r2, r2, #44
 222 0032 FFF7FEFF 		bl	HAL_DMA_Start_IT
 223 0036 2368     		ldr	r3, [r4]
 224 0038 DA68     		ldr	r2, [r3, #12]
 225 003a 42F48072 		orr	r2, r2, #256
 226 003e DA60     		str	r2, [r3, #12]
 227 0040 1A68     		ldr	r2, [r3]
 228 0042 42F00102 		orr	r2, r2, #1
 229 0046 1A60     		str	r2, [r3]
 230 0048 0020     		movs	r0, #0
 231              	.L12:
 232 004a 10BD     		pop	{r4, pc}
 233              	.L18:
 234              		.align	2
 235              	.L17:
 236 004c 00000000 		.word	TIM_DMAPeriodElapsedCplt
 237 0050 00000000 		.word	TIM_DMAError
 239              		.section	.text.HAL_TIM_Base_Stop_DMA,"ax",%progbits
 240              		.align	1
 241              		.global	HAL_TIM_Base_Stop_DMA
 242              		.syntax unified
 243              		.thumb
 244              		.thumb_func
ARM GAS  C:\Users\gyoku\AppData\Local\Temp\ccpDhDV6.s 			page 5


 245              		.fpu fpv4-sp-d16
 247              	HAL_TIM_Base_Stop_DMA:
 248              		@ args = 0, pretend = 0, frame = 0
 249              		@ frame_needed = 0, uses_anonymous_args = 0
 250              		@ link register save eliminated.
 251 0000 0368     		ldr	r3, [r0]
 252 0002 DA68     		ldr	r2, [r3, #12]
 253 0004 22F48072 		bic	r2, r2, #256
 254 0008 DA60     		str	r2, [r3, #12]
 255 000a 196A     		ldr	r1, [r3, #32]
 256 000c 41F21112 		movw	r2, #4369
 257 0010 1142     		tst	r1, r2
 258 0012 08D1     		bne	.L20
 259 0014 196A     		ldr	r1, [r3, #32]
 260 0016 40F24442 		movw	r2, #1092
 261 001a 1142     		tst	r1, r2
 262 001c 02BF     		ittt	eq
 263 001e 1A68     		ldreq	r2, [r3]
 264 0020 22F00102 		biceq	r2, r2, #1
 265 0024 1A60     		streq	r2, [r3]
 266              	.L20:
 267 0026 0123     		movs	r3, #1
 268 0028 80F83D30 		strb	r3, [r0, #61]
 269 002c 0020     		movs	r0, #0
 270 002e 7047     		bx	lr
 272              		.section	.text.HAL_TIM_OC_MspInit,"ax",%progbits
 273              		.align	1
 274              		.weak	HAL_TIM_OC_MspInit
 275              		.syntax unified
 276              		.thumb
 277              		.thumb_func
 278              		.fpu fpv4-sp-d16
 280              	HAL_TIM_OC_MspInit:
 281              		@ args = 0, pretend = 0, frame = 0
 282              		@ frame_needed = 0, uses_anonymous_args = 0
 283              		@ link register save eliminated.
 284 0000 7047     		bx	lr
 286              		.section	.text.HAL_TIM_OC_MspDeInit,"ax",%progbits
 287              		.align	1
 288              		.weak	HAL_TIM_OC_MspDeInit
 289              		.syntax unified
 290              		.thumb
 291              		.thumb_func
 292              		.fpu fpv4-sp-d16
 294              	HAL_TIM_OC_MspDeInit:
 295              		@ args = 0, pretend = 0, frame = 0
 296              		@ frame_needed = 0, uses_anonymous_args = 0
 297              		@ link register save eliminated.
 298 0000 7047     		bx	lr
 300              		.section	.text.HAL_TIM_OC_DeInit,"ax",%progbits
 301              		.align	1
 302              		.global	HAL_TIM_OC_DeInit
 303              		.syntax unified
 304              		.thumb
 305              		.thumb_func
 306              		.fpu fpv4-sp-d16
 308              	HAL_TIM_OC_DeInit:
ARM GAS  C:\Users\gyoku\AppData\Local\Temp\ccpDhDV6.s 			page 6


 309              		@ args = 0, pretend = 0, frame = 0
 310              		@ frame_needed = 0, uses_anonymous_args = 0
 311 0000 0223     		movs	r3, #2
 312 0002 10B5     		push	{r4, lr}
 313 0004 80F83D30 		strb	r3, [r0, #61]
 314 0008 0368     		ldr	r3, [r0]
 315 000a 196A     		ldr	r1, [r3, #32]
 316 000c 41F21112 		movw	r2, #4369
 317 0010 1142     		tst	r1, r2
 318 0012 0446     		mov	r4, r0
 319 0014 08D1     		bne	.L24
 320 0016 196A     		ldr	r1, [r3, #32]
 321 0018 40F24442 		movw	r2, #1092
 322 001c 1142     		tst	r1, r2
 323 001e 02BF     		ittt	eq
 324 0020 1A68     		ldreq	r2, [r3]
 325 0022 22F00102 		biceq	r2, r2, #1
 326 0026 1A60     		streq	r2, [r3]
 327              	.L24:
 328 0028 2046     		mov	r0, r4
 329 002a FFF7FEFF 		bl	HAL_TIM_OC_MspDeInit
 330 002e 0020     		movs	r0, #0
 331 0030 84F83D00 		strb	r0, [r4, #61]
 332 0034 84F83C00 		strb	r0, [r4, #60]
 333 0038 10BD     		pop	{r4, pc}
 335              		.section	.text.HAL_TIM_PWM_MspInit,"ax",%progbits
 336              		.align	1
 337              		.weak	HAL_TIM_PWM_MspInit
 338              		.syntax unified
 339              		.thumb
 340              		.thumb_func
 341              		.fpu fpv4-sp-d16
 343              	HAL_TIM_PWM_MspInit:
 344              		@ args = 0, pretend = 0, frame = 0
 345              		@ frame_needed = 0, uses_anonymous_args = 0
 346              		@ link register save eliminated.
 347 0000 7047     		bx	lr
 349              		.section	.text.HAL_TIM_PWM_MspDeInit,"ax",%progbits
 350              		.align	1
 351              		.weak	HAL_TIM_PWM_MspDeInit
 352              		.syntax unified
 353              		.thumb
 354              		.thumb_func
 355              		.fpu fpv4-sp-d16
 357              	HAL_TIM_PWM_MspDeInit:
 358              		@ args = 0, pretend = 0, frame = 0
 359              		@ frame_needed = 0, uses_anonymous_args = 0
 360              		@ link register save eliminated.
 361 0000 7047     		bx	lr
 363              		.section	.text.HAL_TIM_PWM_DeInit,"ax",%progbits
 364              		.align	1
 365              		.global	HAL_TIM_PWM_DeInit
 366              		.syntax unified
 367              		.thumb
 368              		.thumb_func
 369              		.fpu fpv4-sp-d16
 371              	HAL_TIM_PWM_DeInit:
ARM GAS  C:\Users\gyoku\AppData\Local\Temp\ccpDhDV6.s 			page 7


 372              		@ args = 0, pretend = 0, frame = 0
 373              		@ frame_needed = 0, uses_anonymous_args = 0
 374 0000 0223     		movs	r3, #2
 375 0002 10B5     		push	{r4, lr}
 376 0004 80F83D30 		strb	r3, [r0, #61]
 377 0008 0368     		ldr	r3, [r0]
 378 000a 196A     		ldr	r1, [r3, #32]
 379 000c 41F21112 		movw	r2, #4369
 380 0010 1142     		tst	r1, r2
 381 0012 0446     		mov	r4, r0
 382 0014 08D1     		bne	.L28
 383 0016 196A     		ldr	r1, [r3, #32]
 384 0018 40F24442 		movw	r2, #1092
 385 001c 1142     		tst	r1, r2
 386 001e 02BF     		ittt	eq
 387 0020 1A68     		ldreq	r2, [r3]
 388 0022 22F00102 		biceq	r2, r2, #1
 389 0026 1A60     		streq	r2, [r3]
 390              	.L28:
 391 0028 2046     		mov	r0, r4
 392 002a FFF7FEFF 		bl	HAL_TIM_PWM_MspDeInit
 393 002e 0020     		movs	r0, #0
 394 0030 84F83D00 		strb	r0, [r4, #61]
 395 0034 84F83C00 		strb	r0, [r4, #60]
 396 0038 10BD     		pop	{r4, pc}
 398              		.section	.text.HAL_TIM_IC_MspInit,"ax",%progbits
 399              		.align	1
 400              		.weak	HAL_TIM_IC_MspInit
 401              		.syntax unified
 402              		.thumb
 403              		.thumb_func
 404              		.fpu fpv4-sp-d16
 406              	HAL_TIM_IC_MspInit:
 407              		@ args = 0, pretend = 0, frame = 0
 408              		@ frame_needed = 0, uses_anonymous_args = 0
 409              		@ link register save eliminated.
 410 0000 7047     		bx	lr
 412              		.section	.text.HAL_TIM_IC_MspDeInit,"ax",%progbits
 413              		.align	1
 414              		.weak	HAL_TIM_IC_MspDeInit
 415              		.syntax unified
 416              		.thumb
 417              		.thumb_func
 418              		.fpu fpv4-sp-d16
 420              	HAL_TIM_IC_MspDeInit:
 421              		@ args = 0, pretend = 0, frame = 0
 422              		@ frame_needed = 0, uses_anonymous_args = 0
 423              		@ link register save eliminated.
 424 0000 7047     		bx	lr
 426              		.section	.text.HAL_TIM_IC_DeInit,"ax",%progbits
 427              		.align	1
 428              		.global	HAL_TIM_IC_DeInit
 429              		.syntax unified
 430              		.thumb
 431              		.thumb_func
 432              		.fpu fpv4-sp-d16
 434              	HAL_TIM_IC_DeInit:
ARM GAS  C:\Users\gyoku\AppData\Local\Temp\ccpDhDV6.s 			page 8


 435              		@ args = 0, pretend = 0, frame = 0
 436              		@ frame_needed = 0, uses_anonymous_args = 0
 437 0000 0223     		movs	r3, #2
 438 0002 10B5     		push	{r4, lr}
 439 0004 80F83D30 		strb	r3, [r0, #61]
 440 0008 0368     		ldr	r3, [r0]
 441 000a 196A     		ldr	r1, [r3, #32]
 442 000c 41F21112 		movw	r2, #4369
 443 0010 1142     		tst	r1, r2
 444 0012 0446     		mov	r4, r0
 445 0014 08D1     		bne	.L32
 446 0016 196A     		ldr	r1, [r3, #32]
 447 0018 40F24442 		movw	r2, #1092
 448 001c 1142     		tst	r1, r2
 449 001e 02BF     		ittt	eq
 450 0020 1A68     		ldreq	r2, [r3]
 451 0022 22F00102 		biceq	r2, r2, #1
 452 0026 1A60     		streq	r2, [r3]
 453              	.L32:
 454 0028 2046     		mov	r0, r4
 455 002a FFF7FEFF 		bl	HAL_TIM_IC_MspDeInit
 456 002e 0020     		movs	r0, #0
 457 0030 84F83D00 		strb	r0, [r4, #61]
 458 0034 84F83C00 		strb	r0, [r4, #60]
 459 0038 10BD     		pop	{r4, pc}
 461              		.section	.text.HAL_TIM_OnePulse_MspInit,"ax",%progbits
 462              		.align	1
 463              		.weak	HAL_TIM_OnePulse_MspInit
 464              		.syntax unified
 465              		.thumb
 466              		.thumb_func
 467              		.fpu fpv4-sp-d16
 469              	HAL_TIM_OnePulse_MspInit:
 470              		@ args = 0, pretend = 0, frame = 0
 471              		@ frame_needed = 0, uses_anonymous_args = 0
 472              		@ link register save eliminated.
 473 0000 7047     		bx	lr
 475              		.section	.text.HAL_TIM_OnePulse_MspDeInit,"ax",%progbits
 476              		.align	1
 477              		.weak	HAL_TIM_OnePulse_MspDeInit
 478              		.syntax unified
 479              		.thumb
 480              		.thumb_func
 481              		.fpu fpv4-sp-d16
 483              	HAL_TIM_OnePulse_MspDeInit:
 484              		@ args = 0, pretend = 0, frame = 0
 485              		@ frame_needed = 0, uses_anonymous_args = 0
 486              		@ link register save eliminated.
 487 0000 7047     		bx	lr
 489              		.section	.text.HAL_TIM_OnePulse_DeInit,"ax",%progbits
 490              		.align	1
 491              		.global	HAL_TIM_OnePulse_DeInit
 492              		.syntax unified
 493              		.thumb
 494              		.thumb_func
 495              		.fpu fpv4-sp-d16
 497              	HAL_TIM_OnePulse_DeInit:
ARM GAS  C:\Users\gyoku\AppData\Local\Temp\ccpDhDV6.s 			page 9


 498              		@ args = 0, pretend = 0, frame = 0
 499              		@ frame_needed = 0, uses_anonymous_args = 0
 500 0000 0223     		movs	r3, #2
 501 0002 10B5     		push	{r4, lr}
 502 0004 80F83D30 		strb	r3, [r0, #61]
 503 0008 0368     		ldr	r3, [r0]
 504 000a 196A     		ldr	r1, [r3, #32]
 505 000c 41F21112 		movw	r2, #4369
 506 0010 1142     		tst	r1, r2
 507 0012 0446     		mov	r4, r0
 508 0014 08D1     		bne	.L36
 509 0016 196A     		ldr	r1, [r3, #32]
 510 0018 40F24442 		movw	r2, #1092
 511 001c 1142     		tst	r1, r2
 512 001e 02BF     		ittt	eq
 513 0020 1A68     		ldreq	r2, [r3]
 514 0022 22F00102 		biceq	r2, r2, #1
 515 0026 1A60     		streq	r2, [r3]
 516              	.L36:
 517 0028 2046     		mov	r0, r4
 518 002a FFF7FEFF 		bl	HAL_TIM_OnePulse_MspDeInit
 519 002e 0020     		movs	r0, #0
 520 0030 84F83D00 		strb	r0, [r4, #61]
 521 0034 84F83C00 		strb	r0, [r4, #60]
 522 0038 10BD     		pop	{r4, pc}
 524              		.section	.text.HAL_TIM_OnePulse_Start,"ax",%progbits
 525              		.align	1
 526              		.global	HAL_TIM_OnePulse_Start
 527              		.syntax unified
 528              		.thumb
 529              		.thumb_func
 530              		.fpu fpv4-sp-d16
 532              	HAL_TIM_OnePulse_Start:
 533              		@ args = 0, pretend = 0, frame = 0
 534              		@ frame_needed = 0, uses_anonymous_args = 0
 535              		@ link register save eliminated.
 536 0000 0368     		ldr	r3, [r0]
 537 0002 1A6A     		ldr	r2, [r3, #32]
 538 0004 22F00102 		bic	r2, r2, #1
 539 0008 1A62     		str	r2, [r3, #32]
 540 000a 1A6A     		ldr	r2, [r3, #32]
 541 000c 42F00102 		orr	r2, r2, #1
 542 0010 1A62     		str	r2, [r3, #32]
 543 0012 1A6A     		ldr	r2, [r3, #32]
 544 0014 22F01002 		bic	r2, r2, #16
 545 0018 1A62     		str	r2, [r3, #32]
 546 001a 1A6A     		ldr	r2, [r3, #32]
 547 001c 42F01002 		orr	r2, r2, #16
 548 0020 1A62     		str	r2, [r3, #32]
 549 0022 0A4A     		ldr	r2, .L40
 550 0024 9342     		cmp	r3, r2
 551 0026 0BD0     		beq	.L38
 552 0028 02F5A052 		add	r2, r2, #5120
 553 002c 9342     		cmp	r3, r2
 554 002e 07D0     		beq	.L38
 555 0030 02F58062 		add	r2, r2, #1024
 556 0034 9342     		cmp	r3, r2
ARM GAS  C:\Users\gyoku\AppData\Local\Temp\ccpDhDV6.s 			page 10


 557 0036 03D0     		beq	.L38
 558 0038 02F58062 		add	r2, r2, #1024
 559 003c 9342     		cmp	r3, r2
 560 003e 03D1     		bne	.L39
 561              	.L38:
 562 0040 5A6C     		ldr	r2, [r3, #68]
 563 0042 42F40042 		orr	r2, r2, #32768
 564 0046 5A64     		str	r2, [r3, #68]
 565              	.L39:
 566 0048 0020     		movs	r0, #0
 567 004a 7047     		bx	lr
 568              	.L41:
 569              		.align	2
 570              	.L40:
 571 004c 002C0140 		.word	1073818624
 573              		.section	.text.HAL_TIM_OnePulse_Stop,"ax",%progbits
 574              		.align	1
 575              		.global	HAL_TIM_OnePulse_Stop
 576              		.syntax unified
 577              		.thumb
 578              		.thumb_func
 579              		.fpu fpv4-sp-d16
 581              	HAL_TIM_OnePulse_Stop:
 582              		@ args = 0, pretend = 0, frame = 0
 583              		@ frame_needed = 0, uses_anonymous_args = 0
 584              		@ link register save eliminated.
 585 0000 0368     		ldr	r3, [r0]
 586 0002 1A6A     		ldr	r2, [r3, #32]
 587 0004 22F00102 		bic	r2, r2, #1
 588 0008 1A62     		str	r2, [r3, #32]
 589 000a 1A6A     		ldr	r2, [r3, #32]
 590 000c 1A62     		str	r2, [r3, #32]
 591 000e 1A6A     		ldr	r2, [r3, #32]
 592 0010 22F01002 		bic	r2, r2, #16
 593 0014 1A62     		str	r2, [r3, #32]
 594 0016 1A6A     		ldr	r2, [r3, #32]
 595 0018 1A62     		str	r2, [r3, #32]
 596 001a 164A     		ldr	r2, .L46
 597 001c 9342     		cmp	r3, r2
 598 001e 0BD0     		beq	.L43
 599 0020 02F5A052 		add	r2, r2, #5120
 600 0024 9342     		cmp	r3, r2
 601 0026 07D0     		beq	.L43
 602 0028 02F58062 		add	r2, r2, #1024
 603 002c 9342     		cmp	r3, r2
 604 002e 03D0     		beq	.L43
 605 0030 02F58062 		add	r2, r2, #1024
 606 0034 9342     		cmp	r3, r2
 607 0036 0DD1     		bne	.L44
 608              	.L43:
 609 0038 196A     		ldr	r1, [r3, #32]
 610 003a 41F21112 		movw	r2, #4369
 611 003e 1142     		tst	r1, r2
 612 0040 08D1     		bne	.L44
 613 0042 196A     		ldr	r1, [r3, #32]
 614 0044 40F24442 		movw	r2, #1092
 615 0048 1142     		tst	r1, r2
ARM GAS  C:\Users\gyoku\AppData\Local\Temp\ccpDhDV6.s 			page 11


 616 004a 02BF     		ittt	eq
 617 004c 5A6C     		ldreq	r2, [r3, #68]
 618 004e 22F40042 		biceq	r2, r2, #32768
 619 0052 5A64     		streq	r2, [r3, #68]
 620              	.L44:
 621 0054 196A     		ldr	r1, [r3, #32]
 622 0056 41F21112 		movw	r2, #4369
 623 005a 1142     		tst	r1, r2
 624 005c 08D1     		bne	.L45
 625 005e 196A     		ldr	r1, [r3, #32]
 626 0060 40F24442 		movw	r2, #1092
 627 0064 1142     		tst	r1, r2
 628 0066 02BF     		ittt	eq
 629 0068 1A68     		ldreq	r2, [r3]
 630 006a 22F00102 		biceq	r2, r2, #1
 631 006e 1A60     		streq	r2, [r3]
 632              	.L45:
 633 0070 0020     		movs	r0, #0
 634 0072 7047     		bx	lr
 635              	.L47:
 636              		.align	2
 637              	.L46:
 638 0074 002C0140 		.word	1073818624
 640              		.section	.text.HAL_TIM_OnePulse_Start_IT,"ax",%progbits
 641              		.align	1
 642              		.global	HAL_TIM_OnePulse_Start_IT
 643              		.syntax unified
 644              		.thumb
 645              		.thumb_func
 646              		.fpu fpv4-sp-d16
 648              	HAL_TIM_OnePulse_Start_IT:
 649              		@ args = 0, pretend = 0, frame = 0
 650              		@ frame_needed = 0, uses_anonymous_args = 0
 651              		@ link register save eliminated.
 652 0000 0368     		ldr	r3, [r0]
 653 0002 DA68     		ldr	r2, [r3, #12]
 654 0004 42F00202 		orr	r2, r2, #2
 655 0008 DA60     		str	r2, [r3, #12]
 656 000a DA68     		ldr	r2, [r3, #12]
 657 000c 42F00402 		orr	r2, r2, #4
 658 0010 DA60     		str	r2, [r3, #12]
 659 0012 1A6A     		ldr	r2, [r3, #32]
 660 0014 22F00102 		bic	r2, r2, #1
 661 0018 1A62     		str	r2, [r3, #32]
 662 001a 1A6A     		ldr	r2, [r3, #32]
 663 001c 42F00102 		orr	r2, r2, #1
 664 0020 1A62     		str	r2, [r3, #32]
 665 0022 1A6A     		ldr	r2, [r3, #32]
 666 0024 22F01002 		bic	r2, r2, #16
 667 0028 1A62     		str	r2, [r3, #32]
 668 002a 1A6A     		ldr	r2, [r3, #32]
 669 002c 42F01002 		orr	r2, r2, #16
 670 0030 1A62     		str	r2, [r3, #32]
 671 0032 0A4A     		ldr	r2, .L51
 672 0034 9342     		cmp	r3, r2
 673 0036 0BD0     		beq	.L49
 674 0038 02F5A052 		add	r2, r2, #5120
ARM GAS  C:\Users\gyoku\AppData\Local\Temp\ccpDhDV6.s 			page 12


 675 003c 9342     		cmp	r3, r2
 676 003e 07D0     		beq	.L49
 677 0040 02F58062 		add	r2, r2, #1024
 678 0044 9342     		cmp	r3, r2
 679 0046 03D0     		beq	.L49
 680 0048 02F58062 		add	r2, r2, #1024
 681 004c 9342     		cmp	r3, r2
 682 004e 03D1     		bne	.L50
 683              	.L49:
 684 0050 5A6C     		ldr	r2, [r3, #68]
 685 0052 42F40042 		orr	r2, r2, #32768
 686 0056 5A64     		str	r2, [r3, #68]
 687              	.L50:
 688 0058 0020     		movs	r0, #0
 689 005a 7047     		bx	lr
 690              	.L52:
 691              		.align	2
 692              	.L51:
 693 005c 002C0140 		.word	1073818624
 695              		.section	.text.HAL_TIM_OnePulse_Stop_IT,"ax",%progbits
 696              		.align	1
 697              		.global	HAL_TIM_OnePulse_Stop_IT
 698              		.syntax unified
 699              		.thumb
 700              		.thumb_func
 701              		.fpu fpv4-sp-d16
 703              	HAL_TIM_OnePulse_Stop_IT:
 704              		@ args = 0, pretend = 0, frame = 0
 705              		@ frame_needed = 0, uses_anonymous_args = 0
 706              		@ link register save eliminated.
 707 0000 0368     		ldr	r3, [r0]
 708 0002 DA68     		ldr	r2, [r3, #12]
 709 0004 22F00202 		bic	r2, r2, #2
 710 0008 DA60     		str	r2, [r3, #12]
 711 000a DA68     		ldr	r2, [r3, #12]
 712 000c 22F00402 		bic	r2, r2, #4
 713 0010 DA60     		str	r2, [r3, #12]
 714 0012 1A6A     		ldr	r2, [r3, #32]
 715 0014 22F00102 		bic	r2, r2, #1
 716 0018 1A62     		str	r2, [r3, #32]
 717 001a 1A6A     		ldr	r2, [r3, #32]
 718 001c 1A62     		str	r2, [r3, #32]
 719 001e 1A6A     		ldr	r2, [r3, #32]
 720 0020 22F01002 		bic	r2, r2, #16
 721 0024 1A62     		str	r2, [r3, #32]
 722 0026 1A6A     		ldr	r2, [r3, #32]
 723 0028 1A62     		str	r2, [r3, #32]
 724 002a 164A     		ldr	r2, .L57
 725 002c 9342     		cmp	r3, r2
 726 002e 0BD0     		beq	.L54
 727 0030 02F5A052 		add	r2, r2, #5120
 728 0034 9342     		cmp	r3, r2
 729 0036 07D0     		beq	.L54
 730 0038 02F58062 		add	r2, r2, #1024
 731 003c 9342     		cmp	r3, r2
 732 003e 03D0     		beq	.L54
 733 0040 02F58062 		add	r2, r2, #1024
ARM GAS  C:\Users\gyoku\AppData\Local\Temp\ccpDhDV6.s 			page 13


 734 0044 9342     		cmp	r3, r2
 735 0046 0DD1     		bne	.L55
 736              	.L54:
 737 0048 196A     		ldr	r1, [r3, #32]
 738 004a 41F21112 		movw	r2, #4369
 739 004e 1142     		tst	r1, r2
 740 0050 08D1     		bne	.L55
 741 0052 196A     		ldr	r1, [r3, #32]
 742 0054 40F24442 		movw	r2, #1092
 743 0058 1142     		tst	r1, r2
 744 005a 02BF     		ittt	eq
 745 005c 5A6C     		ldreq	r2, [r3, #68]
 746 005e 22F40042 		biceq	r2, r2, #32768
 747 0062 5A64     		streq	r2, [r3, #68]
 748              	.L55:
 749 0064 196A     		ldr	r1, [r3, #32]
 750 0066 41F21112 		movw	r2, #4369
 751 006a 1142     		tst	r1, r2
 752 006c 08D1     		bne	.L56
 753 006e 196A     		ldr	r1, [r3, #32]
 754 0070 40F24442 		movw	r2, #1092
 755 0074 1142     		tst	r1, r2
 756 0076 02BF     		ittt	eq
 757 0078 1A68     		ldreq	r2, [r3]
 758 007a 22F00102 		biceq	r2, r2, #1
 759 007e 1A60     		streq	r2, [r3]
 760              	.L56:
 761 0080 0020     		movs	r0, #0
 762 0082 7047     		bx	lr
 763              	.L58:
 764              		.align	2
 765              	.L57:
 766 0084 002C0140 		.word	1073818624
 768              		.section	.text.HAL_TIM_Encoder_MspInit,"ax",%progbits
 769              		.align	1
 770              		.weak	HAL_TIM_Encoder_MspInit
 771              		.syntax unified
 772              		.thumb
 773              		.thumb_func
 774              		.fpu fpv4-sp-d16
 776              	HAL_TIM_Encoder_MspInit:
 777              		@ args = 0, pretend = 0, frame = 0
 778              		@ frame_needed = 0, uses_anonymous_args = 0
 779              		@ link register save eliminated.
 780 0000 7047     		bx	lr
 782              		.section	.text.HAL_TIM_Encoder_MspDeInit,"ax",%progbits
 783              		.align	1
 784              		.weak	HAL_TIM_Encoder_MspDeInit
 785              		.syntax unified
 786              		.thumb
 787              		.thumb_func
 788              		.fpu fpv4-sp-d16
 790              	HAL_TIM_Encoder_MspDeInit:
 791              		@ args = 0, pretend = 0, frame = 0
 792              		@ frame_needed = 0, uses_anonymous_args = 0
 793              		@ link register save eliminated.
 794 0000 7047     		bx	lr
ARM GAS  C:\Users\gyoku\AppData\Local\Temp\ccpDhDV6.s 			page 14


 796              		.section	.text.HAL_TIM_Encoder_DeInit,"ax",%progbits
 797              		.align	1
 798              		.global	HAL_TIM_Encoder_DeInit
 799              		.syntax unified
 800              		.thumb
 801              		.thumb_func
 802              		.fpu fpv4-sp-d16
 804              	HAL_TIM_Encoder_DeInit:
 805              		@ args = 0, pretend = 0, frame = 0
 806              		@ frame_needed = 0, uses_anonymous_args = 0
 807 0000 0223     		movs	r3, #2
 808 0002 10B5     		push	{r4, lr}
 809 0004 80F83D30 		strb	r3, [r0, #61]
 810 0008 0368     		ldr	r3, [r0]
 811 000a 196A     		ldr	r1, [r3, #32]
 812 000c 41F21112 		movw	r2, #4369
 813 0010 1142     		tst	r1, r2
 814 0012 0446     		mov	r4, r0
 815 0014 08D1     		bne	.L62
 816 0016 196A     		ldr	r1, [r3, #32]
 817 0018 40F24442 		movw	r2, #1092
 818 001c 1142     		tst	r1, r2
 819 001e 02BF     		ittt	eq
 820 0020 1A68     		ldreq	r2, [r3]
 821 0022 22F00102 		biceq	r2, r2, #1
 822 0026 1A60     		streq	r2, [r3]
 823              	.L62:
 824 0028 2046     		mov	r0, r4
 825 002a FFF7FEFF 		bl	HAL_TIM_Encoder_MspDeInit
 826 002e 0020     		movs	r0, #0
 827 0030 84F83D00 		strb	r0, [r4, #61]
 828 0034 84F83C00 		strb	r0, [r4, #60]
 829 0038 10BD     		pop	{r4, pc}
 831              		.section	.text.HAL_TIM_Encoder_Start,"ax",%progbits
 832              		.align	1
 833              		.global	HAL_TIM_Encoder_Start
 834              		.syntax unified
 835              		.thumb
 836              		.thumb_func
 837              		.fpu fpv4-sp-d16
 839              	HAL_TIM_Encoder_Start:
 840              		@ args = 0, pretend = 0, frame = 0
 841              		@ frame_needed = 0, uses_anonymous_args = 0
 842              		@ link register save eliminated.
 843 0000 0368     		ldr	r3, [r0]
 844 0002 89B1     		cbz	r1, .L64
 845 0004 0429     		cmp	r1, #4
 846 0006 07D0     		beq	.L70
 847 0008 1A6A     		ldr	r2, [r3, #32]
 848 000a 22F00102 		bic	r2, r2, #1
 849 000e 1A62     		str	r2, [r3, #32]
 850 0010 1A6A     		ldr	r2, [r3, #32]
 851 0012 42F00102 		orr	r2, r2, #1
 852 0016 1A62     		str	r2, [r3, #32]
 853              	.L70:
 854 0018 1A6A     		ldr	r2, [r3, #32]
 855 001a 22F01002 		bic	r2, r2, #16
ARM GAS  C:\Users\gyoku\AppData\Local\Temp\ccpDhDV6.s 			page 15


 856 001e 1A62     		str	r2, [r3, #32]
 857 0020 1A6A     		ldr	r2, [r3, #32]
 858 0022 42F01002 		orr	r2, r2, #16
 859 0026 06E0     		b	.L69
 860              	.L64:
 861 0028 1A6A     		ldr	r2, [r3, #32]
 862 002a 22F00102 		bic	r2, r2, #1
 863 002e 1A62     		str	r2, [r3, #32]
 864 0030 1A6A     		ldr	r2, [r3, #32]
 865 0032 42F00102 		orr	r2, r2, #1
 866              	.L69:
 867 0036 1A62     		str	r2, [r3, #32]
 868 0038 1A68     		ldr	r2, [r3]
 869 003a 42F00102 		orr	r2, r2, #1
 870 003e 1A60     		str	r2, [r3]
 871 0040 0020     		movs	r0, #0
 872 0042 7047     		bx	lr
 874              		.section	.text.HAL_TIM_Encoder_Stop,"ax",%progbits
 875              		.align	1
 876              		.global	HAL_TIM_Encoder_Stop
 877              		.syntax unified
 878              		.thumb
 879              		.thumb_func
 880              		.fpu fpv4-sp-d16
 882              	HAL_TIM_Encoder_Stop:
 883              		@ args = 0, pretend = 0, frame = 0
 884              		@ frame_needed = 0, uses_anonymous_args = 0
 885              		@ link register save eliminated.
 886 0000 0368     		ldr	r3, [r0]
 887 0002 59B1     		cbz	r1, .L72
 888 0004 0429     		cmp	r1, #4
 889 0006 05D0     		beq	.L79
 890 0008 1A6A     		ldr	r2, [r3, #32]
 891 000a 22F00102 		bic	r2, r2, #1
 892 000e 1A62     		str	r2, [r3, #32]
 893 0010 1A6A     		ldr	r2, [r3, #32]
 894 0012 1A62     		str	r2, [r3, #32]
 895              	.L79:
 896 0014 1A6A     		ldr	r2, [r3, #32]
 897 0016 22F01002 		bic	r2, r2, #16
 898 001a 02E0     		b	.L78
 899              	.L72:
 900 001c 1A6A     		ldr	r2, [r3, #32]
 901 001e 22F00102 		bic	r2, r2, #1
 902              	.L78:
 903 0022 1A62     		str	r2, [r3, #32]
 904 0024 1A6A     		ldr	r2, [r3, #32]
 905 0026 1A62     		str	r2, [r3, #32]
 906 0028 196A     		ldr	r1, [r3, #32]
 907 002a 41F21112 		movw	r2, #4369
 908 002e 1142     		tst	r1, r2
 909 0030 08D1     		bne	.L76
 910 0032 196A     		ldr	r1, [r3, #32]
 911 0034 40F24442 		movw	r2, #1092
 912 0038 1142     		tst	r1, r2
 913 003a 02BF     		ittt	eq
 914 003c 1A68     		ldreq	r2, [r3]
ARM GAS  C:\Users\gyoku\AppData\Local\Temp\ccpDhDV6.s 			page 16


 915 003e 22F00102 		biceq	r2, r2, #1
 916 0042 1A60     		streq	r2, [r3]
 917              	.L76:
 918 0044 0020     		movs	r0, #0
 919 0046 7047     		bx	lr
 921              		.section	.text.HAL_TIM_Encoder_Start_IT,"ax",%progbits
 922              		.align	1
 923              		.global	HAL_TIM_Encoder_Start_IT
 924              		.syntax unified
 925              		.thumb
 926              		.thumb_func
 927              		.fpu fpv4-sp-d16
 929              	HAL_TIM_Encoder_Start_IT:
 930              		@ args = 0, pretend = 0, frame = 0
 931              		@ frame_needed = 0, uses_anonymous_args = 0
 932              		@ link register save eliminated.
 933 0000 0368     		ldr	r3, [r0]
 934 0002 B1B1     		cbz	r1, .L81
 935 0004 0429     		cmp	r1, #4
 936 0006 26D0     		beq	.L82
 937 0008 1A6A     		ldr	r2, [r3, #32]
 938 000a 22F00102 		bic	r2, r2, #1
 939 000e 1A62     		str	r2, [r3, #32]
 940 0010 1A6A     		ldr	r2, [r3, #32]
 941 0012 42F00102 		orr	r2, r2, #1
 942 0016 1A62     		str	r2, [r3, #32]
 943 0018 1A6A     		ldr	r2, [r3, #32]
 944 001a 22F01002 		bic	r2, r2, #16
 945 001e 1A62     		str	r2, [r3, #32]
 946 0020 1A6A     		ldr	r2, [r3, #32]
 947 0022 42F01002 		orr	r2, r2, #16
 948 0026 1A62     		str	r2, [r3, #32]
 949 0028 DA68     		ldr	r2, [r3, #12]
 950 002a 42F00202 		orr	r2, r2, #2
 951 002e DA60     		str	r2, [r3, #12]
 952 0030 19E0     		b	.L87
 953              	.L81:
 954 0032 1A6A     		ldr	r2, [r3, #32]
 955 0034 22F00102 		bic	r2, r2, #1
 956 0038 1A62     		str	r2, [r3, #32]
 957 003a 1A6A     		ldr	r2, [r3, #32]
 958 003c 42F00102 		orr	r2, r2, #1
 959 0040 1A62     		str	r2, [r3, #32]
 960 0042 DA68     		ldr	r2, [r3, #12]
 961 0044 42F00202 		orr	r2, r2, #2
 962              	.L86:
 963 0048 DA60     		str	r2, [r3, #12]
 964 004a 1A68     		ldr	r2, [r3]
 965 004c 42F00102 		orr	r2, r2, #1
 966 0050 1A60     		str	r2, [r3]
 967 0052 0020     		movs	r0, #0
 968 0054 7047     		bx	lr
 969              	.L82:
 970 0056 1A6A     		ldr	r2, [r3, #32]
 971 0058 22F01002 		bic	r2, r2, #16
 972 005c 1A62     		str	r2, [r3, #32]
 973 005e 1A6A     		ldr	r2, [r3, #32]
ARM GAS  C:\Users\gyoku\AppData\Local\Temp\ccpDhDV6.s 			page 17


 974 0060 42F01002 		orr	r2, r2, #16
 975 0064 1A62     		str	r2, [r3, #32]
 976              	.L87:
 977 0066 DA68     		ldr	r2, [r3, #12]
 978 0068 42F00402 		orr	r2, r2, #4
 979 006c ECE7     		b	.L86
 981              		.section	.text.HAL_TIM_Encoder_Stop_IT,"ax",%progbits
 982              		.align	1
 983              		.global	HAL_TIM_Encoder_Stop_IT
 984              		.syntax unified
 985              		.thumb
 986              		.thumb_func
 987              		.fpu fpv4-sp-d16
 989              	HAL_TIM_Encoder_Stop_IT:
 990              		@ args = 0, pretend = 0, frame = 0
 991              		@ frame_needed = 0, uses_anonymous_args = 0
 992              		@ link register save eliminated.
 993 0000 0368     		ldr	r3, [r0]
 994 0002 1A6A     		ldr	r2, [r3, #32]
 995 0004 D9B9     		cbnz	r1, .L89
 996 0006 22F00102 		bic	r2, r2, #1
 997 000a 1A62     		str	r2, [r3, #32]
 998 000c 1A6A     		ldr	r2, [r3, #32]
 999 000e 1A62     		str	r2, [r3, #32]
 1000 0010 DA68     		ldr	r2, [r3, #12]
 1001 0012 22F00202 		bic	r2, r2, #2
 1002              	.L93:
 1003 0016 DA60     		str	r2, [r3, #12]
 1004 0018 196A     		ldr	r1, [r3, #32]
 1005 001a 41F21112 		movw	r2, #4369
 1006 001e 1142     		tst	r1, r2
 1007 0020 08D1     		bne	.L92
 1008 0022 196A     		ldr	r1, [r3, #32]
 1009 0024 40F24442 		movw	r2, #1092
 1010 0028 1142     		tst	r1, r2
 1011 002a 02BF     		ittt	eq
 1012 002c 1A68     		ldreq	r2, [r3]
 1013 002e 22F00102 		biceq	r2, r2, #1
 1014 0032 1A60     		streq	r2, [r3]
 1015              	.L92:
 1016 0034 0123     		movs	r3, #1
 1017 0036 80F83D30 		strb	r3, [r0, #61]
 1018 003a 0020     		movs	r0, #0
 1019 003c 7047     		bx	lr
 1020              	.L89:
 1021 003e 0429     		cmp	r1, #4
 1022 0040 08D1     		bne	.L91
 1023 0042 22F01002 		bic	r2, r2, #16
 1024 0046 1A62     		str	r2, [r3, #32]
 1025 0048 1A6A     		ldr	r2, [r3, #32]
 1026 004a 1A62     		str	r2, [r3, #32]
 1027              	.L94:
 1028 004c DA68     		ldr	r2, [r3, #12]
 1029 004e 22F00402 		bic	r2, r2, #4
 1030 0052 E0E7     		b	.L93
 1031              	.L91:
 1032 0054 22F00102 		bic	r2, r2, #1
ARM GAS  C:\Users\gyoku\AppData\Local\Temp\ccpDhDV6.s 			page 18


 1033 0058 1A62     		str	r2, [r3, #32]
 1034 005a 1A6A     		ldr	r2, [r3, #32]
 1035 005c 1A62     		str	r2, [r3, #32]
 1036 005e 1A6A     		ldr	r2, [r3, #32]
 1037 0060 22F01002 		bic	r2, r2, #16
 1038 0064 1A62     		str	r2, [r3, #32]
 1039 0066 1A6A     		ldr	r2, [r3, #32]
 1040 0068 1A62     		str	r2, [r3, #32]
 1041 006a DA68     		ldr	r2, [r3, #12]
 1042 006c 22F00202 		bic	r2, r2, #2
 1043 0070 DA60     		str	r2, [r3, #12]
 1044 0072 EBE7     		b	.L94
 1046              		.section	.text.HAL_TIM_Encoder_Start_DMA,"ax",%progbits
 1047              		.align	1
 1048              		.global	HAL_TIM_Encoder_Start_DMA
 1049              		.syntax unified
 1050              		.thumb
 1051              		.thumb_func
 1052              		.fpu fpv4-sp-d16
 1054              	HAL_TIM_Encoder_Start_DMA:
 1055              		@ args = 4, pretend = 0, frame = 0
 1056              		@ frame_needed = 0, uses_anonymous_args = 0
 1057 0000 2DE9F041 		push	{r4, r5, r6, r7, r8, lr}
 1058 0004 0446     		mov	r4, r0
 1059 0006 90F83D00 		ldrb	r0, [r0, #61]	@ zero_extendqisi2
 1060 000a BDF81850 		ldrh	r5, [sp, #24]
 1061 000e C0B2     		uxtb	r0, r0
 1062 0010 0228     		cmp	r0, #2
 1063 0012 0E46     		mov	r6, r1
 1064 0014 1F46     		mov	r7, r3
 1065 0016 7DD0     		beq	.L96
 1066 0018 94F83D30 		ldrb	r3, [r4, #61]	@ zero_extendqisi2
 1067 001c 012B     		cmp	r3, #1
 1068 001e 06D1     		bne	.L97
 1069 0020 02B1     		cbz	r2, .L98
 1070 0022 0FB9     		cbnz	r7, .L99
 1071              	.L98:
 1072 0024 002D     		cmp	r5, #0
 1073 0026 74D1     		bne	.L103
 1074              	.L99:
 1075 0028 0223     		movs	r3, #2
 1076 002a 84F83D30 		strb	r3, [r4, #61]
 1077              	.L97:
 1078 002e 042E     		cmp	r6, #4
 1079 0030 1FD0     		beq	.L100
 1080 0032 3C2E     		cmp	r6, #60
 1081 0034 39D0     		beq	.L101
 1082 0036 D6B9     		cbnz	r6, .L104
 1083 0038 606A     		ldr	r0, [r4, #36]
 1084 003a 374B     		ldr	r3, .L109
 1085 003c 2168     		ldr	r1, [r4]
 1086 003e 8362     		str	r3, [r0, #40]
 1087 0040 364B     		ldr	r3, .L109+4
 1088 0042 0363     		str	r3, [r0, #48]
 1089 0044 3431     		adds	r1, r1, #52
 1090 0046 2B46     		mov	r3, r5
 1091 0048 FFF7FEFF 		bl	HAL_DMA_Start_IT
ARM GAS  C:\Users\gyoku\AppData\Local\Temp\ccpDhDV6.s 			page 19


 1092 004c 2368     		ldr	r3, [r4]
 1093 004e DA68     		ldr	r2, [r3, #12]
 1094 0050 42F40072 		orr	r2, r2, #512
 1095 0054 DA60     		str	r2, [r3, #12]
 1096 0056 1A68     		ldr	r2, [r3]
 1097 0058 42F00102 		orr	r2, r2, #1
 1098 005c 1A60     		str	r2, [r3]
 1099 005e 1A6A     		ldr	r2, [r3, #32]
 1100 0060 22F00102 		bic	r2, r2, #1
 1101 0064 1A62     		str	r2, [r3, #32]
 1102 0066 1A6A     		ldr	r2, [r3, #32]
 1103 0068 42F00102 		orr	r2, r2, #1
 1104              	.L108:
 1105 006c 1A62     		str	r2, [r3, #32]
 1106              	.L104:
 1107 006e 0020     		movs	r0, #0
 1108 0070 50E0     		b	.L96
 1109              	.L100:
 1110 0072 A06A     		ldr	r0, [r4, #40]
 1111 0074 284B     		ldr	r3, .L109
 1112 0076 2168     		ldr	r1, [r4]
 1113 0078 8362     		str	r3, [r0, #40]
 1114 007a 284B     		ldr	r3, .L109+4
 1115 007c 0363     		str	r3, [r0, #48]
 1116 007e 3A46     		mov	r2, r7
 1117 0080 2B46     		mov	r3, r5
 1118 0082 3831     		adds	r1, r1, #56
 1119 0084 FFF7FEFF 		bl	HAL_DMA_Start_IT
 1120 0088 2368     		ldr	r3, [r4]
 1121 008a DA68     		ldr	r2, [r3, #12]
 1122 008c 42F48062 		orr	r2, r2, #1024
 1123 0090 DA60     		str	r2, [r3, #12]
 1124 0092 1A68     		ldr	r2, [r3]
 1125 0094 42F00102 		orr	r2, r2, #1
 1126 0098 1A60     		str	r2, [r3]
 1127 009a 1A6A     		ldr	r2, [r3, #32]
 1128 009c 22F01002 		bic	r2, r2, #16
 1129 00a0 1A62     		str	r2, [r3, #32]
 1130 00a2 1A6A     		ldr	r2, [r3, #32]
 1131 00a4 42F01002 		orr	r2, r2, #16
 1132 00a8 E0E7     		b	.L108
 1133              	.L101:
 1134 00aa 606A     		ldr	r0, [r4, #36]
 1135 00ac 2168     		ldr	r1, [r4]
 1136 00ae DFF86880 		ldr	r8, .L109
 1137 00b2 1A4E     		ldr	r6, .L109+4
 1138 00b4 C0F82880 		str	r8, [r0, #40]
 1139 00b8 2B46     		mov	r3, r5
 1140 00ba 3431     		adds	r1, r1, #52
 1141 00bc 0663     		str	r6, [r0, #48]
 1142 00be FFF7FEFF 		bl	HAL_DMA_Start_IT
 1143 00c2 A06A     		ldr	r0, [r4, #40]
 1144 00c4 2168     		ldr	r1, [r4]
 1145 00c6 C0F82880 		str	r8, [r0, #40]
 1146 00ca 2B46     		mov	r3, r5
 1147 00cc 3A46     		mov	r2, r7
 1148 00ce 0663     		str	r6, [r0, #48]
ARM GAS  C:\Users\gyoku\AppData\Local\Temp\ccpDhDV6.s 			page 20


 1149 00d0 3831     		adds	r1, r1, #56
 1150 00d2 FFF7FEFF 		bl	HAL_DMA_Start_IT
 1151 00d6 2368     		ldr	r3, [r4]
 1152 00d8 1A68     		ldr	r2, [r3]
 1153 00da 42F00102 		orr	r2, r2, #1
 1154 00de 1A60     		str	r2, [r3]
 1155 00e0 1A6A     		ldr	r2, [r3, #32]
 1156 00e2 22F00102 		bic	r2, r2, #1
 1157 00e6 1A62     		str	r2, [r3, #32]
 1158 00e8 1A6A     		ldr	r2, [r3, #32]
 1159 00ea 42F00102 		orr	r2, r2, #1
 1160 00ee 1A62     		str	r2, [r3, #32]
 1161 00f0 1A6A     		ldr	r2, [r3, #32]
 1162 00f2 22F01002 		bic	r2, r2, #16
 1163 00f6 1A62     		str	r2, [r3, #32]
 1164 00f8 1A6A     		ldr	r2, [r3, #32]
 1165 00fa 42F01002 		orr	r2, r2, #16
 1166 00fe 1A62     		str	r2, [r3, #32]
 1167 0100 DA68     		ldr	r2, [r3, #12]
 1168 0102 42F40072 		orr	r2, r2, #512
 1169 0106 DA60     		str	r2, [r3, #12]
 1170 0108 DA68     		ldr	r2, [r3, #12]
 1171 010a 42F48062 		orr	r2, r2, #1024
 1172 010e DA60     		str	r2, [r3, #12]
 1173 0110 ADE7     		b	.L104
 1174              	.L103:
 1175 0112 0120     		movs	r0, #1
 1176              	.L96:
 1177 0114 BDE8F081 		pop	{r4, r5, r6, r7, r8, pc}
 1178              	.L110:
 1179              		.align	2
 1180              	.L109:
 1181 0118 00000000 		.word	TIM_DMACaptureCplt
 1182 011c 00000000 		.word	TIM_DMAError
 1184              		.section	.text.HAL_TIM_Encoder_Stop_DMA,"ax",%progbits
 1185              		.align	1
 1186              		.global	HAL_TIM_Encoder_Stop_DMA
 1187              		.syntax unified
 1188              		.thumb
 1189              		.thumb_func
 1190              		.fpu fpv4-sp-d16
 1192              	HAL_TIM_Encoder_Stop_DMA:
 1193              		@ args = 0, pretend = 0, frame = 0
 1194              		@ frame_needed = 0, uses_anonymous_args = 0
 1195              		@ link register save eliminated.
 1196 0000 0368     		ldr	r3, [r0]
 1197 0002 1A6A     		ldr	r2, [r3, #32]
 1198 0004 D9B9     		cbnz	r1, .L112
 1199 0006 22F00102 		bic	r2, r2, #1
 1200 000a 1A62     		str	r2, [r3, #32]
 1201 000c 1A6A     		ldr	r2, [r3, #32]
 1202 000e 1A62     		str	r2, [r3, #32]
 1203 0010 DA68     		ldr	r2, [r3, #12]
 1204 0012 22F40072 		bic	r2, r2, #512
 1205              	.L116:
 1206 0016 DA60     		str	r2, [r3, #12]
 1207 0018 196A     		ldr	r1, [r3, #32]
ARM GAS  C:\Users\gyoku\AppData\Local\Temp\ccpDhDV6.s 			page 21


 1208 001a 41F21112 		movw	r2, #4369
 1209 001e 1142     		tst	r1, r2
 1210 0020 08D1     		bne	.L115
 1211 0022 196A     		ldr	r1, [r3, #32]
 1212 0024 40F24442 		movw	r2, #1092
 1213 0028 1142     		tst	r1, r2
 1214 002a 02BF     		ittt	eq
 1215 002c 1A68     		ldreq	r2, [r3]
 1216 002e 22F00102 		biceq	r2, r2, #1
 1217 0032 1A60     		streq	r2, [r3]
 1218              	.L115:
 1219 0034 0123     		movs	r3, #1
 1220 0036 80F83D30 		strb	r3, [r0, #61]
 1221 003a 0020     		movs	r0, #0
 1222 003c 7047     		bx	lr
 1223              	.L112:
 1224 003e 0429     		cmp	r1, #4
 1225 0040 08D1     		bne	.L114
 1226 0042 22F01002 		bic	r2, r2, #16
 1227 0046 1A62     		str	r2, [r3, #32]
 1228 0048 1A6A     		ldr	r2, [r3, #32]
 1229 004a 1A62     		str	r2, [r3, #32]
 1230              	.L117:
 1231 004c DA68     		ldr	r2, [r3, #12]
 1232 004e 22F48062 		bic	r2, r2, #1024
 1233 0052 E0E7     		b	.L116
 1234              	.L114:
 1235 0054 22F00102 		bic	r2, r2, #1
 1236 0058 1A62     		str	r2, [r3, #32]
 1237 005a 1A6A     		ldr	r2, [r3, #32]
 1238 005c 1A62     		str	r2, [r3, #32]
 1239 005e 1A6A     		ldr	r2, [r3, #32]
 1240 0060 22F01002 		bic	r2, r2, #16
 1241 0064 1A62     		str	r2, [r3, #32]
 1242 0066 1A6A     		ldr	r2, [r3, #32]
 1243 0068 1A62     		str	r2, [r3, #32]
 1244 006a DA68     		ldr	r2, [r3, #12]
 1245 006c 22F40072 		bic	r2, r2, #512
 1246 0070 DA60     		str	r2, [r3, #12]
 1247 0072 EBE7     		b	.L117
 1249              		.section	.text.HAL_TIM_DMABurst_MultiWriteStart,"ax",%progbits
 1250              		.align	1
 1251              		.global	HAL_TIM_DMABurst_MultiWriteStart
 1252              		.syntax unified
 1253              		.thumb
 1254              		.thumb_func
 1255              		.fpu fpv4-sp-d16
 1257              	HAL_TIM_DMABurst_MultiWriteStart:
 1258              		@ args = 8, pretend = 0, frame = 0
 1259              		@ frame_needed = 0, uses_anonymous_args = 0
 1260 0000 F8B5     		push	{r3, r4, r5, r6, r7, lr}
 1261 0002 0446     		mov	r4, r0
 1262 0004 90F83D00 		ldrb	r0, [r0, #61]	@ zero_extendqisi2
 1263 0008 069E     		ldr	r6, [sp, #24]
 1264 000a C0B2     		uxtb	r0, r0
 1265 000c 0228     		cmp	r0, #2
 1266 000e 0F46     		mov	r7, r1
ARM GAS  C:\Users\gyoku\AppData\Local\Temp\ccpDhDV6.s 			page 22


 1267 0010 1546     		mov	r5, r2
 1268 0012 1946     		mov	r1, r3
 1269 0014 2AD0     		beq	.L119
 1270 0016 94F83D00 		ldrb	r0, [r4, #61]	@ zero_extendqisi2
 1271 001a C0B2     		uxtb	r0, r0
 1272 001c 0128     		cmp	r0, #1
 1273 001e 04D1     		bne	.L120
 1274 0020 03B9     		cbnz	r3, .L121
 1275 0022 1EBB     		cbnz	r6, .L119
 1276              	.L121:
 1277 0024 0223     		movs	r3, #2
 1278 0026 84F83D30 		strb	r3, [r4, #61]
 1279              	.L120:
 1280 002a B5F5006F 		cmp	r5, #2048
 1281 002e 2268     		ldr	r2, [r4]
 1282 0030 2DD0     		beq	.L122
 1283 0032 1CD8     		bhi	.L123
 1284 0034 B5F5007F 		cmp	r5, #512
 1285 0038 24D0     		beq	.L124
 1286 003a B5F5806F 		cmp	r5, #1024
 1287 003e 24D0     		beq	.L125
 1288 0040 B5F5807F 		cmp	r5, #256
 1289 0044 08D1     		bne	.L127
 1290 0046 206A     		ldr	r0, [r4, #32]
 1291 0048 154B     		ldr	r3, .L135
 1292              	.L133:
 1293 004a 8362     		str	r3, [r0, #40]
 1294 004c 154B     		ldr	r3, .L135+4
 1295 004e 0363     		str	r3, [r0, #48]
 1296 0050 4C32     		adds	r2, r2, #76
 1297 0052 079B     		ldr	r3, [sp, #28]
 1298 0054 FFF7FEFF 		bl	HAL_DMA_Start_IT
 1299              	.L127:
 1300 0058 2368     		ldr	r3, [r4]
 1301 005a 3E43     		orrs	r6, r6, r7
 1302 005c 9E64     		str	r6, [r3, #72]
 1303 005e DA68     		ldr	r2, [r3, #12]
 1304 0060 1543     		orrs	r5, r5, r2
 1305 0062 DD60     		str	r5, [r3, #12]
 1306 0064 0123     		movs	r3, #1
 1307 0066 84F83D30 		strb	r3, [r4, #61]
 1308 006a 0020     		movs	r0, #0
 1309              	.L119:
 1310 006c F8BD     		pop	{r3, r4, r5, r6, r7, pc}
 1311              	.L123:
 1312 006e B5F5005F 		cmp	r5, #8192
 1313 0072 0ED0     		beq	.L128
 1314 0074 B5F5804F 		cmp	r5, #16384
 1315 0078 0ED0     		beq	.L129
 1316 007a B5F5805F 		cmp	r5, #4096
 1317 007e EBD1     		bne	.L127
 1318 0080 206B     		ldr	r0, [r4, #48]
 1319 0082 00E0     		b	.L134
 1320              	.L124:
 1321 0084 606A     		ldr	r0, [r4, #36]
 1322              	.L134:
 1323 0086 084B     		ldr	r3, .L135+8
ARM GAS  C:\Users\gyoku\AppData\Local\Temp\ccpDhDV6.s 			page 23


 1324 0088 DFE7     		b	.L133
 1325              	.L125:
 1326 008a A06A     		ldr	r0, [r4, #40]
 1327 008c FBE7     		b	.L134
 1328              	.L122:
 1329 008e E06A     		ldr	r0, [r4, #44]
 1330 0090 F9E7     		b	.L134
 1331              	.L128:
 1332 0092 606B     		ldr	r0, [r4, #52]
 1333 0094 054B     		ldr	r3, .L135+12
 1334 0096 D8E7     		b	.L133
 1335              	.L129:
 1336 0098 A06B     		ldr	r0, [r4, #56]
 1337 009a 054B     		ldr	r3, .L135+16
 1338 009c D5E7     		b	.L133
 1339              	.L136:
 1340 009e 00BF     		.align	2
 1341              	.L135:
 1342 00a0 00000000 		.word	TIM_DMAPeriodElapsedCplt
 1343 00a4 00000000 		.word	TIM_DMAError
 1344 00a8 00000000 		.word	TIM_DMADelayPulseCplt
 1345 00ac 00000000 		.word	TIMEx_DMACommutationCplt
 1346 00b0 00000000 		.word	TIM_DMATriggerCplt
 1348              		.section	.text.HAL_TIM_DMABurst_WriteStart,"ax",%progbits
 1349              		.align	1
 1350              		.global	HAL_TIM_DMABurst_WriteStart
 1351              		.syntax unified
 1352              		.thumb
 1353              		.thumb_func
 1354              		.fpu fpv4-sp-d16
 1356              	HAL_TIM_DMABurst_WriteStart:
 1357              		@ args = 4, pretend = 0, frame = 0
 1358              		@ frame_needed = 0, uses_anonymous_args = 0
 1359 0000 37B5     		push	{r0, r1, r2, r4, r5, lr}
 1360 0002 069D     		ldr	r5, [sp, #24]
 1361 0004 2C0A     		lsrs	r4, r5, #8
 1362 0006 0134     		adds	r4, r4, #1
 1363 0008 CDE90054 		strd	r5, r4, [sp]
 1364 000c FFF7FEFF 		bl	HAL_TIM_DMABurst_MultiWriteStart
 1365 0010 03B0     		add	sp, sp, #12
 1366              		@ sp needed
 1367 0012 30BD     		pop	{r4, r5, pc}
 1369              		.section	.text.HAL_TIM_DMABurst_WriteStop,"ax",%progbits
 1370              		.align	1
 1371              		.global	HAL_TIM_DMABurst_WriteStop
 1372              		.syntax unified
 1373              		.thumb
 1374              		.thumb_func
 1375              		.fpu fpv4-sp-d16
 1377              	HAL_TIM_DMABurst_WriteStop:
 1378              		@ args = 0, pretend = 0, frame = 0
 1379              		@ frame_needed = 0, uses_anonymous_args = 0
 1380 0000 B1F5006F 		cmp	r1, #2048
 1381 0004 38B5     		push	{r3, r4, r5, lr}
 1382 0006 0546     		mov	r5, r0
 1383 0008 0C46     		mov	r4, r1
 1384 000a 22D0     		beq	.L139
ARM GAS  C:\Users\gyoku\AppData\Local\Temp\ccpDhDV6.s 			page 24


 1385 000c 12D8     		bhi	.L140
 1386 000e B1F5007F 		cmp	r1, #512
 1387 0012 1AD0     		beq	.L141
 1388 0014 B1F5806F 		cmp	r1, #1024
 1389 0018 19D0     		beq	.L142
 1390 001a B1F5807F 		cmp	r1, #256
 1391 001e 02D1     		bne	.L144
 1392 0020 006A     		ldr	r0, [r0, #32]
 1393              	.L148:
 1394 0022 FFF7FEFF 		bl	HAL_DMA_Abort
 1395              	.L144:
 1396 0026 2A68     		ldr	r2, [r5]
 1397 0028 D368     		ldr	r3, [r2, #12]
 1398 002a 23EA0404 		bic	r4, r3, r4
 1399 002e D460     		str	r4, [r2, #12]
 1400 0030 0020     		movs	r0, #0
 1401 0032 38BD     		pop	{r3, r4, r5, pc}
 1402              	.L140:
 1403 0034 B1F5005F 		cmp	r1, #8192
 1404 0038 0DD0     		beq	.L145
 1405 003a B1F5804F 		cmp	r1, #16384
 1406 003e 0CD0     		beq	.L146
 1407 0040 B1F5805F 		cmp	r1, #4096
 1408 0044 EFD1     		bne	.L144
 1409 0046 006B     		ldr	r0, [r0, #48]
 1410 0048 EBE7     		b	.L148
 1411              	.L141:
 1412 004a 406A     		ldr	r0, [r0, #36]
 1413 004c E9E7     		b	.L148
 1414              	.L142:
 1415 004e 806A     		ldr	r0, [r0, #40]
 1416 0050 E7E7     		b	.L148
 1417              	.L139:
 1418 0052 C06A     		ldr	r0, [r0, #44]
 1419 0054 E5E7     		b	.L148
 1420              	.L145:
 1421 0056 406B     		ldr	r0, [r0, #52]
 1422 0058 E3E7     		b	.L148
 1423              	.L146:
 1424 005a 806B     		ldr	r0, [r0, #56]
 1425 005c E1E7     		b	.L148
 1427              		.section	.text.HAL_TIM_DMABurst_MultiReadStart,"ax",%progbits
 1428              		.align	1
 1429              		.global	HAL_TIM_DMABurst_MultiReadStart
 1430              		.syntax unified
 1431              		.thumb
 1432              		.thumb_func
 1433              		.fpu fpv4-sp-d16
 1435              	HAL_TIM_DMABurst_MultiReadStart:
 1436              		@ args = 8, pretend = 0, frame = 0
 1437              		@ frame_needed = 0, uses_anonymous_args = 0
 1438 0000 F8B5     		push	{r3, r4, r5, r6, r7, lr}
 1439 0002 0446     		mov	r4, r0
 1440 0004 90F83D00 		ldrb	r0, [r0, #61]	@ zero_extendqisi2
 1441 0008 069E     		ldr	r6, [sp, #24]
 1442 000a C0B2     		uxtb	r0, r0
 1443 000c 0228     		cmp	r0, #2
ARM GAS  C:\Users\gyoku\AppData\Local\Temp\ccpDhDV6.s 			page 25


 1444 000e 1546     		mov	r5, r2
 1445 0010 0F46     		mov	r7, r1
 1446 0012 1A46     		mov	r2, r3
 1447 0014 2AD0     		beq	.L150
 1448 0016 94F83D00 		ldrb	r0, [r4, #61]	@ zero_extendqisi2
 1449 001a C0B2     		uxtb	r0, r0
 1450 001c 0128     		cmp	r0, #1
 1451 001e 04D1     		bne	.L151
 1452 0020 03B9     		cbnz	r3, .L152
 1453 0022 1EBB     		cbnz	r6, .L150
 1454              	.L152:
 1455 0024 0223     		movs	r3, #2
 1456 0026 84F83D30 		strb	r3, [r4, #61]
 1457              	.L151:
 1458 002a B5F5006F 		cmp	r5, #2048
 1459 002e 2168     		ldr	r1, [r4]
 1460 0030 2DD0     		beq	.L153
 1461 0032 1CD8     		bhi	.L154
 1462 0034 B5F5007F 		cmp	r5, #512
 1463 0038 24D0     		beq	.L155
 1464 003a B5F5806F 		cmp	r5, #1024
 1465 003e 24D0     		beq	.L156
 1466 0040 B5F5807F 		cmp	r5, #256
 1467 0044 08D1     		bne	.L158
 1468 0046 206A     		ldr	r0, [r4, #32]
 1469 0048 154B     		ldr	r3, .L166
 1470              	.L164:
 1471 004a 8362     		str	r3, [r0, #40]
 1472 004c 154B     		ldr	r3, .L166+4
 1473 004e 0363     		str	r3, [r0, #48]
 1474 0050 4C31     		adds	r1, r1, #76
 1475 0052 079B     		ldr	r3, [sp, #28]
 1476 0054 FFF7FEFF 		bl	HAL_DMA_Start_IT
 1477              	.L158:
 1478 0058 2368     		ldr	r3, [r4]
 1479 005a 3E43     		orrs	r6, r6, r7
 1480 005c 9E64     		str	r6, [r3, #72]
 1481 005e DA68     		ldr	r2, [r3, #12]
 1482 0060 1543     		orrs	r5, r5, r2
 1483 0062 DD60     		str	r5, [r3, #12]
 1484 0064 0123     		movs	r3, #1
 1485 0066 84F83D30 		strb	r3, [r4, #61]
 1486 006a 0020     		movs	r0, #0
 1487              	.L150:
 1488 006c F8BD     		pop	{r3, r4, r5, r6, r7, pc}
 1489              	.L154:
 1490 006e B5F5005F 		cmp	r5, #8192
 1491 0072 0ED0     		beq	.L159
 1492 0074 B5F5804F 		cmp	r5, #16384
 1493 0078 0ED0     		beq	.L160
 1494 007a B5F5805F 		cmp	r5, #4096
 1495 007e EBD1     		bne	.L158
 1496 0080 206B     		ldr	r0, [r4, #48]
 1497 0082 00E0     		b	.L165
 1498              	.L155:
 1499 0084 606A     		ldr	r0, [r4, #36]
 1500              	.L165:
ARM GAS  C:\Users\gyoku\AppData\Local\Temp\ccpDhDV6.s 			page 26


 1501 0086 084B     		ldr	r3, .L166+8
 1502 0088 DFE7     		b	.L164
 1503              	.L156:
 1504 008a A06A     		ldr	r0, [r4, #40]
 1505 008c FBE7     		b	.L165
 1506              	.L153:
 1507 008e E06A     		ldr	r0, [r4, #44]
 1508 0090 F9E7     		b	.L165
 1509              	.L159:
 1510 0092 606B     		ldr	r0, [r4, #52]
 1511 0094 054B     		ldr	r3, .L166+12
 1512 0096 D8E7     		b	.L164
 1513              	.L160:
 1514 0098 A06B     		ldr	r0, [r4, #56]
 1515 009a 054B     		ldr	r3, .L166+16
 1516 009c D5E7     		b	.L164
 1517              	.L167:
 1518 009e 00BF     		.align	2
 1519              	.L166:
 1520 00a0 00000000 		.word	TIM_DMAPeriodElapsedCplt
 1521 00a4 00000000 		.word	TIM_DMAError
 1522 00a8 00000000 		.word	TIM_DMACaptureCplt
 1523 00ac 00000000 		.word	TIMEx_DMACommutationCplt
 1524 00b0 00000000 		.word	TIM_DMATriggerCplt
 1526              		.section	.text.HAL_TIM_DMABurst_ReadStart,"ax",%progbits
 1527              		.align	1
 1528              		.global	HAL_TIM_DMABurst_ReadStart
 1529              		.syntax unified
 1530              		.thumb
 1531              		.thumb_func
 1532              		.fpu fpv4-sp-d16
 1534              	HAL_TIM_DMABurst_ReadStart:
 1535              		@ args = 4, pretend = 0, frame = 0
 1536              		@ frame_needed = 0, uses_anonymous_args = 0
 1537 0000 37B5     		push	{r0, r1, r2, r4, r5, lr}
 1538 0002 069D     		ldr	r5, [sp, #24]
 1539 0004 2C0A     		lsrs	r4, r5, #8
 1540 0006 0134     		adds	r4, r4, #1
 1541 0008 CDE90054 		strd	r5, r4, [sp]
 1542 000c FFF7FEFF 		bl	HAL_TIM_DMABurst_MultiReadStart
 1543 0010 03B0     		add	sp, sp, #12
 1544              		@ sp needed
 1545 0012 30BD     		pop	{r4, r5, pc}
 1547              		.section	.text.HAL_TIM_DMABurst_ReadStop,"ax",%progbits
 1548              		.align	1
 1549              		.global	HAL_TIM_DMABurst_ReadStop
 1550              		.syntax unified
 1551              		.thumb
 1552              		.thumb_func
 1553              		.fpu fpv4-sp-d16
 1555              	HAL_TIM_DMABurst_ReadStop:
 1556              		@ args = 0, pretend = 0, frame = 0
 1557              		@ frame_needed = 0, uses_anonymous_args = 0
 1558              		@ link register save eliminated.
 1559 0000 FFF7FEBF 		b	HAL_TIM_DMABurst_WriteStop
 1561              		.section	.text.HAL_TIM_GenerateEvent,"ax",%progbits
 1562              		.align	1
ARM GAS  C:\Users\gyoku\AppData\Local\Temp\ccpDhDV6.s 			page 27


 1563              		.global	HAL_TIM_GenerateEvent
 1564              		.syntax unified
 1565              		.thumb
 1566              		.thumb_func
 1567              		.fpu fpv4-sp-d16
 1569              	HAL_TIM_GenerateEvent:
 1570              		@ args = 0, pretend = 0, frame = 0
 1571              		@ frame_needed = 0, uses_anonymous_args = 0
 1572              		@ link register save eliminated.
 1573 0000 90F83C30 		ldrb	r3, [r0, #60]	@ zero_extendqisi2
 1574 0004 012B     		cmp	r3, #1
 1575 0006 4FF00203 		mov	r3, #2
 1576 000a 09D0     		beq	.L172
 1577 000c 80F83D30 		strb	r3, [r0, #61]
 1578 0010 0368     		ldr	r3, [r0]
 1579 0012 5961     		str	r1, [r3, #20]
 1580 0014 0123     		movs	r3, #1
 1581 0016 80F83D30 		strb	r3, [r0, #61]
 1582 001a 0023     		movs	r3, #0
 1583 001c 80F83C30 		strb	r3, [r0, #60]
 1584              	.L172:
 1585 0020 1846     		mov	r0, r3
 1586 0022 7047     		bx	lr
 1588              		.section	.text.HAL_TIM_ConfigTI1Input,"ax",%progbits
 1589              		.align	1
 1590              		.global	HAL_TIM_ConfigTI1Input
 1591              		.syntax unified
 1592              		.thumb
 1593              		.thumb_func
 1594              		.fpu fpv4-sp-d16
 1596              	HAL_TIM_ConfigTI1Input:
 1597              		@ args = 0, pretend = 0, frame = 0
 1598              		@ frame_needed = 0, uses_anonymous_args = 0
 1599              		@ link register save eliminated.
 1600 0000 0268     		ldr	r2, [r0]
 1601 0002 5368     		ldr	r3, [r2, #4]
 1602 0004 23F08003 		bic	r3, r3, #128
 1603 0008 1943     		orrs	r1, r1, r3
 1604 000a 5160     		str	r1, [r2, #4]
 1605 000c 0020     		movs	r0, #0
 1606 000e 7047     		bx	lr
 1608              		.section	.text.HAL_TIM_ReadCapturedValue,"ax",%progbits
 1609              		.align	1
 1610              		.global	HAL_TIM_ReadCapturedValue
 1611              		.syntax unified
 1612              		.thumb
 1613              		.thumb_func
 1614              		.fpu fpv4-sp-d16
 1616              	HAL_TIM_ReadCapturedValue:
 1617              		@ args = 0, pretend = 0, frame = 0
 1618              		@ frame_needed = 0, uses_anonymous_args = 0
 1619              		@ link register save eliminated.
 1620 0000 90F83C30 		ldrb	r3, [r0, #60]	@ zero_extendqisi2
 1621 0004 012B     		cmp	r3, #1
 1622 0006 1CD0     		beq	.L182
 1623 0008 0C29     		cmp	r1, #12
 1624 000a 18D8     		bhi	.L183
ARM GAS  C:\Users\gyoku\AppData\Local\Temp\ccpDhDV6.s 			page 28


 1625 000c DFE801F0 		tbb	[pc, r1]
 1626              	.L178:
 1627 0010 07       		.byte	(.L181-.L178)/2
 1628 0011 17       		.byte	(.L183-.L178)/2
 1629 0012 17       		.byte	(.L183-.L178)/2
 1630 0013 17       		.byte	(.L183-.L178)/2
 1631 0014 0E       		.byte	(.L180-.L178)/2
 1632 0015 17       		.byte	(.L183-.L178)/2
 1633 0016 17       		.byte	(.L183-.L178)/2
 1634 0017 17       		.byte	(.L183-.L178)/2
 1635 0018 11       		.byte	(.L179-.L178)/2
 1636 0019 17       		.byte	(.L183-.L178)/2
 1637 001a 17       		.byte	(.L183-.L178)/2
 1638 001b 17       		.byte	(.L183-.L178)/2
 1639 001c 14       		.byte	(.L177-.L178)/2
 1640 001d 00       		.p2align 1
 1641              	.L181:
 1642 001e 0368     		ldr	r3, [r0]
 1643 0020 5B6B     		ldr	r3, [r3, #52]
 1644              	.L176:
 1645 0022 0022     		movs	r2, #0
 1646 0024 80F83C20 		strb	r2, [r0, #60]
 1647              	.L174:
 1648 0028 1846     		mov	r0, r3
 1649 002a 7047     		bx	lr
 1650              	.L180:
 1651 002c 0368     		ldr	r3, [r0]
 1652 002e 9B6B     		ldr	r3, [r3, #56]
 1653 0030 F7E7     		b	.L176
 1654              	.L179:
 1655 0032 0368     		ldr	r3, [r0]
 1656 0034 DB6B     		ldr	r3, [r3, #60]
 1657 0036 F4E7     		b	.L176
 1658              	.L177:
 1659 0038 0368     		ldr	r3, [r0]
 1660 003a 1B6C     		ldr	r3, [r3, #64]
 1661 003c F1E7     		b	.L176
 1662              	.L183:
 1663 003e 0023     		movs	r3, #0
 1664 0040 EFE7     		b	.L176
 1665              	.L182:
 1666 0042 0223     		movs	r3, #2
 1667 0044 F0E7     		b	.L174
 1669              		.section	.text.HAL_TIM_PeriodElapsedCallback,"ax",%progbits
 1670              		.align	1
 1671              		.weak	HAL_TIM_PeriodElapsedCallback
 1672              		.syntax unified
 1673              		.thumb
 1674              		.thumb_func
 1675              		.fpu fpv4-sp-d16
 1677              	HAL_TIM_PeriodElapsedCallback:
 1678              		@ args = 0, pretend = 0, frame = 0
 1679              		@ frame_needed = 0, uses_anonymous_args = 0
 1680              		@ link register save eliminated.
 1681 0000 7047     		bx	lr
 1683              		.section	.text.TIM_DMAPeriodElapsedCplt,"ax",%progbits
 1684              		.align	1
ARM GAS  C:\Users\gyoku\AppData\Local\Temp\ccpDhDV6.s 			page 29


 1685              		.syntax unified
 1686              		.thumb
 1687              		.thumb_func
 1688              		.fpu fpv4-sp-d16
 1690              	TIM_DMAPeriodElapsedCplt:
 1691              		@ args = 0, pretend = 0, frame = 0
 1692              		@ frame_needed = 0, uses_anonymous_args = 0
 1693 0000 08B5     		push	{r3, lr}
 1694 0002 406A     		ldr	r0, [r0, #36]
 1695 0004 0123     		movs	r3, #1
 1696 0006 80F83D30 		strb	r3, [r0, #61]
 1697 000a FFF7FEFF 		bl	HAL_TIM_PeriodElapsedCallback
 1698 000e 08BD     		pop	{r3, pc}
 1700              		.section	.text.HAL_TIM_OC_DelayElapsedCallback,"ax",%progbits
 1701              		.align	1
 1702              		.weak	HAL_TIM_OC_DelayElapsedCallback
 1703              		.syntax unified
 1704              		.thumb
 1705              		.thumb_func
 1706              		.fpu fpv4-sp-d16
 1708              	HAL_TIM_OC_DelayElapsedCallback:
 1709              		@ args = 0, pretend = 0, frame = 0
 1710              		@ frame_needed = 0, uses_anonymous_args = 0
 1711              		@ link register save eliminated.
 1712 0000 7047     		bx	lr
 1714              		.section	.text.HAL_TIM_IC_CaptureCallback,"ax",%progbits
 1715              		.align	1
 1716              		.weak	HAL_TIM_IC_CaptureCallback
 1717              		.syntax unified
 1718              		.thumb
 1719              		.thumb_func
 1720              		.fpu fpv4-sp-d16
 1722              	HAL_TIM_IC_CaptureCallback:
 1723              		@ args = 0, pretend = 0, frame = 0
 1724              		@ frame_needed = 0, uses_anonymous_args = 0
 1725              		@ link register save eliminated.
 1726 0000 7047     		bx	lr
 1728              		.section	.text.TIM_DMACaptureCplt,"ax",%progbits
 1729              		.align	1
 1730              		.global	TIM_DMACaptureCplt
 1731              		.syntax unified
 1732              		.thumb
 1733              		.thumb_func
 1734              		.fpu fpv4-sp-d16
 1736              	TIM_DMACaptureCplt:
 1737              		@ args = 0, pretend = 0, frame = 0
 1738              		@ frame_needed = 0, uses_anonymous_args = 0
 1739 0000 10B5     		push	{r4, lr}
 1740 0002 446A     		ldr	r4, [r0, #36]
 1741 0004 626A     		ldr	r2, [r4, #36]
 1742 0006 0123     		movs	r3, #1
 1743 0008 8242     		cmp	r2, r0
 1744 000a 84F83D30 		strb	r3, [r4, #61]
 1745 000e 06D1     		bne	.L189
 1746              	.L193:
 1747 0010 2377     		strb	r3, [r4, #28]
 1748              	.L190:
ARM GAS  C:\Users\gyoku\AppData\Local\Temp\ccpDhDV6.s 			page 30


 1749 0012 2046     		mov	r0, r4
 1750 0014 FFF7FEFF 		bl	HAL_TIM_IC_CaptureCallback
 1751 0018 0023     		movs	r3, #0
 1752 001a 2377     		strb	r3, [r4, #28]
 1753 001c 10BD     		pop	{r4, pc}
 1754              	.L189:
 1755 001e A36A     		ldr	r3, [r4, #40]
 1756 0020 8342     		cmp	r3, r0
 1757 0022 01D1     		bne	.L191
 1758 0024 0223     		movs	r3, #2
 1759 0026 F3E7     		b	.L193
 1760              	.L191:
 1761 0028 E36A     		ldr	r3, [r4, #44]
 1762 002a 8342     		cmp	r3, r0
 1763 002c 01D1     		bne	.L192
 1764 002e 0423     		movs	r3, #4
 1765 0030 EEE7     		b	.L193
 1766              	.L192:
 1767 0032 236B     		ldr	r3, [r4, #48]
 1768 0034 8342     		cmp	r3, r0
 1769 0036 ECD1     		bne	.L190
 1770 0038 0823     		movs	r3, #8
 1771 003a E9E7     		b	.L193
 1773              		.section	.text.HAL_TIM_PWM_PulseFinishedCallback,"ax",%progbits
 1774              		.align	1
 1775              		.weak	HAL_TIM_PWM_PulseFinishedCallback
 1776              		.syntax unified
 1777              		.thumb
 1778              		.thumb_func
 1779              		.fpu fpv4-sp-d16
 1781              	HAL_TIM_PWM_PulseFinishedCallback:
 1782              		@ args = 0, pretend = 0, frame = 0
 1783              		@ frame_needed = 0, uses_anonymous_args = 0
 1784              		@ link register save eliminated.
 1785 0000 7047     		bx	lr
 1787              		.section	.text.TIM_DMADelayPulseCplt,"ax",%progbits
 1788              		.align	1
 1789              		.global	TIM_DMADelayPulseCplt
 1790              		.syntax unified
 1791              		.thumb
 1792              		.thumb_func
 1793              		.fpu fpv4-sp-d16
 1795              	TIM_DMADelayPulseCplt:
 1796              		@ args = 0, pretend = 0, frame = 0
 1797              		@ frame_needed = 0, uses_anonymous_args = 0
 1798 0000 10B5     		push	{r4, lr}
 1799 0002 446A     		ldr	r4, [r0, #36]
 1800 0004 626A     		ldr	r2, [r4, #36]
 1801 0006 0123     		movs	r3, #1
 1802 0008 8242     		cmp	r2, r0
 1803 000a 84F83D30 		strb	r3, [r4, #61]
 1804 000e 06D1     		bne	.L196
 1805              	.L200:
 1806 0010 2377     		strb	r3, [r4, #28]
 1807              	.L197:
 1808 0012 2046     		mov	r0, r4
 1809 0014 FFF7FEFF 		bl	HAL_TIM_PWM_PulseFinishedCallback
ARM GAS  C:\Users\gyoku\AppData\Local\Temp\ccpDhDV6.s 			page 31


 1810 0018 0023     		movs	r3, #0
 1811 001a 2377     		strb	r3, [r4, #28]
 1812 001c 10BD     		pop	{r4, pc}
 1813              	.L196:
 1814 001e A36A     		ldr	r3, [r4, #40]
 1815 0020 8342     		cmp	r3, r0
 1816 0022 01D1     		bne	.L198
 1817 0024 0223     		movs	r3, #2
 1818 0026 F3E7     		b	.L200
 1819              	.L198:
 1820 0028 E36A     		ldr	r3, [r4, #44]
 1821 002a 8342     		cmp	r3, r0
 1822 002c 01D1     		bne	.L199
 1823 002e 0423     		movs	r3, #4
 1824 0030 EEE7     		b	.L200
 1825              	.L199:
 1826 0032 236B     		ldr	r3, [r4, #48]
 1827 0034 8342     		cmp	r3, r0
 1828 0036 ECD1     		bne	.L197
 1829 0038 0823     		movs	r3, #8
 1830 003a E9E7     		b	.L200
 1832              		.section	.text.HAL_TIM_TriggerCallback,"ax",%progbits
 1833              		.align	1
 1834              		.weak	HAL_TIM_TriggerCallback
 1835              		.syntax unified
 1836              		.thumb
 1837              		.thumb_func
 1838              		.fpu fpv4-sp-d16
 1840              	HAL_TIM_TriggerCallback:
 1841              		@ args = 0, pretend = 0, frame = 0
 1842              		@ frame_needed = 0, uses_anonymous_args = 0
 1843              		@ link register save eliminated.
 1844 0000 7047     		bx	lr
 1846              		.section	.text.HAL_TIM_IRQHandler,"ax",%progbits
 1847              		.align	1
 1848              		.global	HAL_TIM_IRQHandler
 1849              		.syntax unified
 1850              		.thumb
 1851              		.thumb_func
 1852              		.fpu fpv4-sp-d16
 1854              	HAL_TIM_IRQHandler:
 1855              		@ args = 0, pretend = 0, frame = 0
 1856              		@ frame_needed = 0, uses_anonymous_args = 0
 1857 0000 0368     		ldr	r3, [r0]
 1858 0002 1A69     		ldr	r2, [r3, #16]
 1859 0004 9107     		lsls	r1, r2, #30
 1860 0006 10B5     		push	{r4, lr}
 1861 0008 0446     		mov	r4, r0
 1862 000a 0FD5     		bpl	.L203
 1863 000c DA68     		ldr	r2, [r3, #12]
 1864 000e 9207     		lsls	r2, r2, #30
 1865 0010 0CD5     		bpl	.L203
 1866 0012 6FF00202 		mvn	r2, #2
 1867 0016 1A61     		str	r2, [r3, #16]
 1868 0018 9B69     		ldr	r3, [r3, #24]
 1869 001a 0122     		movs	r2, #1
 1870 001c 9907     		lsls	r1, r3, #30
ARM GAS  C:\Users\gyoku\AppData\Local\Temp\ccpDhDV6.s 			page 32


 1871 001e 0277     		strb	r2, [r0, #28]
 1872 0020 00F08580 		beq	.L204
 1873 0024 FFF7FEFF 		bl	HAL_TIM_IC_CaptureCallback
 1874              	.L205:
 1875 0028 0023     		movs	r3, #0
 1876 002a 2377     		strb	r3, [r4, #28]
 1877              	.L203:
 1878 002c 2368     		ldr	r3, [r4]
 1879 002e 1A69     		ldr	r2, [r3, #16]
 1880 0030 5207     		lsls	r2, r2, #29
 1881 0032 10D5     		bpl	.L206
 1882 0034 DA68     		ldr	r2, [r3, #12]
 1883 0036 5007     		lsls	r0, r2, #29
 1884 0038 0DD5     		bpl	.L206
 1885 003a 6FF00402 		mvn	r2, #4
 1886 003e 1A61     		str	r2, [r3, #16]
 1887 0040 9B69     		ldr	r3, [r3, #24]
 1888 0042 0222     		movs	r2, #2
 1889 0044 13F4407F 		tst	r3, #768
 1890 0048 2277     		strb	r2, [r4, #28]
 1891 004a 2046     		mov	r0, r4
 1892 004c 75D0     		beq	.L207
 1893 004e FFF7FEFF 		bl	HAL_TIM_IC_CaptureCallback
 1894              	.L208:
 1895 0052 0023     		movs	r3, #0
 1896 0054 2377     		strb	r3, [r4, #28]
 1897              	.L206:
 1898 0056 2368     		ldr	r3, [r4]
 1899 0058 1A69     		ldr	r2, [r3, #16]
 1900 005a 1107     		lsls	r1, r2, #28
 1901 005c 0FD5     		bpl	.L209
 1902 005e DA68     		ldr	r2, [r3, #12]
 1903 0060 1207     		lsls	r2, r2, #28
 1904 0062 0CD5     		bpl	.L209
 1905 0064 6FF00802 		mvn	r2, #8
 1906 0068 1A61     		str	r2, [r3, #16]
 1907 006a DB69     		ldr	r3, [r3, #28]
 1908 006c 0422     		movs	r2, #4
 1909 006e 9B07     		lsls	r3, r3, #30
 1910 0070 2277     		strb	r2, [r4, #28]
 1911 0072 2046     		mov	r0, r4
 1912 0074 67D0     		beq	.L210
 1913 0076 FFF7FEFF 		bl	HAL_TIM_IC_CaptureCallback
 1914              	.L211:
 1915 007a 0023     		movs	r3, #0
 1916 007c 2377     		strb	r3, [r4, #28]
 1917              	.L209:
 1918 007e 2368     		ldr	r3, [r4]
 1919 0080 1A69     		ldr	r2, [r3, #16]
 1920 0082 D006     		lsls	r0, r2, #27
 1921 0084 10D5     		bpl	.L212
 1922 0086 DA68     		ldr	r2, [r3, #12]
 1923 0088 D106     		lsls	r1, r2, #27
 1924 008a 0DD5     		bpl	.L212
 1925 008c 6FF01002 		mvn	r2, #16
 1926 0090 1A61     		str	r2, [r3, #16]
 1927 0092 DB69     		ldr	r3, [r3, #28]
ARM GAS  C:\Users\gyoku\AppData\Local\Temp\ccpDhDV6.s 			page 33


 1928 0094 0822     		movs	r2, #8
 1929 0096 13F4407F 		tst	r3, #768
 1930 009a 2277     		strb	r2, [r4, #28]
 1931 009c 2046     		mov	r0, r4
 1932 009e 58D0     		beq	.L213
 1933 00a0 FFF7FEFF 		bl	HAL_TIM_IC_CaptureCallback
 1934              	.L214:
 1935 00a4 0023     		movs	r3, #0
 1936 00a6 2377     		strb	r3, [r4, #28]
 1937              	.L212:
 1938 00a8 2368     		ldr	r3, [r4]
 1939 00aa 1A69     		ldr	r2, [r3, #16]
 1940 00ac D207     		lsls	r2, r2, #31
 1941 00ae 08D5     		bpl	.L215
 1942 00b0 DA68     		ldr	r2, [r3, #12]
 1943 00b2 D007     		lsls	r0, r2, #31
 1944 00b4 05D5     		bpl	.L215
 1945 00b6 6FF00102 		mvn	r2, #1
 1946 00ba 1A61     		str	r2, [r3, #16]
 1947 00bc 2046     		mov	r0, r4
 1948 00be FFF7FEFF 		bl	HAL_TIM_PeriodElapsedCallback
 1949              	.L215:
 1950 00c2 2368     		ldr	r3, [r4]
 1951 00c4 1A69     		ldr	r2, [r3, #16]
 1952 00c6 1106     		lsls	r1, r2, #24
 1953 00c8 08D5     		bpl	.L216
 1954 00ca DA68     		ldr	r2, [r3, #12]
 1955 00cc 1206     		lsls	r2, r2, #24
 1956 00ce 05D5     		bpl	.L216
 1957 00d0 6FF08002 		mvn	r2, #128
 1958 00d4 1A61     		str	r2, [r3, #16]
 1959 00d6 2046     		mov	r0, r4
 1960 00d8 FFF7FEFF 		bl	HAL_TIMEx_BreakCallback
 1961              	.L216:
 1962 00dc 2368     		ldr	r3, [r4]
 1963 00de 1A69     		ldr	r2, [r3, #16]
 1964 00e0 D005     		lsls	r0, r2, #23
 1965 00e2 08D5     		bpl	.L217
 1966 00e4 DA68     		ldr	r2, [r3, #12]
 1967 00e6 1106     		lsls	r1, r2, #24
 1968 00e8 05D5     		bpl	.L217
 1969 00ea 6FF48072 		mvn	r2, #256
 1970 00ee 1A61     		str	r2, [r3, #16]
 1971 00f0 2046     		mov	r0, r4
 1972 00f2 FFF7FEFF 		bl	HAL_TIMEx_Break2Callback
 1973              	.L217:
 1974 00f6 2368     		ldr	r3, [r4]
 1975 00f8 1A69     		ldr	r2, [r3, #16]
 1976 00fa 5206     		lsls	r2, r2, #25
 1977 00fc 08D5     		bpl	.L218
 1978 00fe DA68     		ldr	r2, [r3, #12]
 1979 0100 5006     		lsls	r0, r2, #25
 1980 0102 05D5     		bpl	.L218
 1981 0104 6FF04002 		mvn	r2, #64
 1982 0108 1A61     		str	r2, [r3, #16]
 1983 010a 2046     		mov	r0, r4
 1984 010c FFF7FEFF 		bl	HAL_TIM_TriggerCallback
ARM GAS  C:\Users\gyoku\AppData\Local\Temp\ccpDhDV6.s 			page 34


 1985              	.L218:
 1986 0110 2368     		ldr	r3, [r4]
 1987 0112 1A69     		ldr	r2, [r3, #16]
 1988 0114 9106     		lsls	r1, r2, #26
 1989 0116 22D5     		bpl	.L202
 1990 0118 DA68     		ldr	r2, [r3, #12]
 1991 011a 9206     		lsls	r2, r2, #26
 1992 011c 1FD5     		bpl	.L202
 1993 011e 6FF02002 		mvn	r2, #32
 1994 0122 2046     		mov	r0, r4
 1995 0124 1A61     		str	r2, [r3, #16]
 1996 0126 BDE81040 		pop	{r4, lr}
 1997 012a FFF7FEBF 		b	HAL_TIMEx_CommutationCallback
 1998              	.L204:
 1999 012e FFF7FEFF 		bl	HAL_TIM_OC_DelayElapsedCallback
 2000 0132 2046     		mov	r0, r4
 2001 0134 FFF7FEFF 		bl	HAL_TIM_PWM_PulseFinishedCallback
 2002 0138 76E7     		b	.L205
 2003              	.L207:
 2004 013a FFF7FEFF 		bl	HAL_TIM_OC_DelayElapsedCallback
 2005 013e 2046     		mov	r0, r4
 2006 0140 FFF7FEFF 		bl	HAL_TIM_PWM_PulseFinishedCallback
 2007 0144 85E7     		b	.L208
 2008              	.L210:
 2009 0146 FFF7FEFF 		bl	HAL_TIM_OC_DelayElapsedCallback
 2010 014a 2046     		mov	r0, r4
 2011 014c FFF7FEFF 		bl	HAL_TIM_PWM_PulseFinishedCallback
 2012 0150 93E7     		b	.L211
 2013              	.L213:
 2014 0152 FFF7FEFF 		bl	HAL_TIM_OC_DelayElapsedCallback
 2015 0156 2046     		mov	r0, r4
 2016 0158 FFF7FEFF 		bl	HAL_TIM_PWM_PulseFinishedCallback
 2017 015c A2E7     		b	.L214
 2018              	.L202:
 2019 015e 10BD     		pop	{r4, pc}
 2021              		.section	.text.TIM_DMATriggerCplt,"ax",%progbits
 2022              		.align	1
 2023              		.syntax unified
 2024              		.thumb
 2025              		.thumb_func
 2026              		.fpu fpv4-sp-d16
 2028              	TIM_DMATriggerCplt:
 2029              		@ args = 0, pretend = 0, frame = 0
 2030              		@ frame_needed = 0, uses_anonymous_args = 0
 2031 0000 08B5     		push	{r3, lr}
 2032 0002 406A     		ldr	r0, [r0, #36]
 2033 0004 0123     		movs	r3, #1
 2034 0006 80F83D30 		strb	r3, [r0, #61]
 2035 000a FFF7FEFF 		bl	HAL_TIM_TriggerCallback
 2036 000e 08BD     		pop	{r3, pc}
 2038              		.section	.text.HAL_TIM_ErrorCallback,"ax",%progbits
 2039              		.align	1
 2040              		.weak	HAL_TIM_ErrorCallback
 2041              		.syntax unified
 2042              		.thumb
 2043              		.thumb_func
 2044              		.fpu fpv4-sp-d16
ARM GAS  C:\Users\gyoku\AppData\Local\Temp\ccpDhDV6.s 			page 35


 2046              	HAL_TIM_ErrorCallback:
 2047              		@ args = 0, pretend = 0, frame = 0
 2048              		@ frame_needed = 0, uses_anonymous_args = 0
 2049              		@ link register save eliminated.
 2050 0000 7047     		bx	lr
 2052              		.section	.text.TIM_DMAError,"ax",%progbits
 2053              		.align	1
 2054              		.global	TIM_DMAError
 2055              		.syntax unified
 2056              		.thumb
 2057              		.thumb_func
 2058              		.fpu fpv4-sp-d16
 2060              	TIM_DMAError:
 2061              		@ args = 0, pretend = 0, frame = 0
 2062              		@ frame_needed = 0, uses_anonymous_args = 0
 2063 0000 08B5     		push	{r3, lr}
 2064 0002 406A     		ldr	r0, [r0, #36]
 2065 0004 0123     		movs	r3, #1
 2066 0006 80F83D30 		strb	r3, [r0, #61]
 2067 000a FFF7FEFF 		bl	HAL_TIM_ErrorCallback
 2068 000e 08BD     		pop	{r3, pc}
 2070              		.section	.text.HAL_TIM_Base_GetState,"ax",%progbits
 2071              		.align	1
 2072              		.global	HAL_TIM_Base_GetState
 2073              		.syntax unified
 2074              		.thumb
 2075              		.thumb_func
 2076              		.fpu fpv4-sp-d16
 2078              	HAL_TIM_Base_GetState:
 2079              		@ args = 0, pretend = 0, frame = 0
 2080              		@ frame_needed = 0, uses_anonymous_args = 0
 2081              		@ link register save eliminated.
 2082 0000 90F83D00 		ldrb	r0, [r0, #61]	@ zero_extendqisi2
 2083 0004 7047     		bx	lr
 2085              		.section	.text.HAL_TIM_OC_GetState,"ax",%progbits
 2086              		.align	1
 2087              		.global	HAL_TIM_OC_GetState
 2088              		.syntax unified
 2089              		.thumb
 2090              		.thumb_func
 2091              		.fpu fpv4-sp-d16
 2093              	HAL_TIM_OC_GetState:
 2094              		@ args = 0, pretend = 0, frame = 0
 2095              		@ frame_needed = 0, uses_anonymous_args = 0
 2096              		@ link register save eliminated.
 2097 0000 90F83D00 		ldrb	r0, [r0, #61]	@ zero_extendqisi2
 2098 0004 7047     		bx	lr
 2100              		.section	.text.HAL_TIM_PWM_GetState,"ax",%progbits
 2101              		.align	1
 2102              		.global	HAL_TIM_PWM_GetState
 2103              		.syntax unified
 2104              		.thumb
 2105              		.thumb_func
 2106              		.fpu fpv4-sp-d16
 2108              	HAL_TIM_PWM_GetState:
 2109              		@ args = 0, pretend = 0, frame = 0
 2110              		@ frame_needed = 0, uses_anonymous_args = 0
ARM GAS  C:\Users\gyoku\AppData\Local\Temp\ccpDhDV6.s 			page 36


 2111              		@ link register save eliminated.
 2112 0000 90F83D00 		ldrb	r0, [r0, #61]	@ zero_extendqisi2
 2113 0004 7047     		bx	lr
 2115              		.section	.text.HAL_TIM_IC_GetState,"ax",%progbits
 2116              		.align	1
 2117              		.global	HAL_TIM_IC_GetState
 2118              		.syntax unified
 2119              		.thumb
 2120              		.thumb_func
 2121              		.fpu fpv4-sp-d16
 2123              	HAL_TIM_IC_GetState:
 2124              		@ args = 0, pretend = 0, frame = 0
 2125              		@ frame_needed = 0, uses_anonymous_args = 0
 2126              		@ link register save eliminated.
 2127 0000 90F83D00 		ldrb	r0, [r0, #61]	@ zero_extendqisi2
 2128 0004 7047     		bx	lr
 2130              		.section	.text.HAL_TIM_OnePulse_GetState,"ax",%progbits
 2131              		.align	1
 2132              		.global	HAL_TIM_OnePulse_GetState
 2133              		.syntax unified
 2134              		.thumb
 2135              		.thumb_func
 2136              		.fpu fpv4-sp-d16
 2138              	HAL_TIM_OnePulse_GetState:
 2139              		@ args = 0, pretend = 0, frame = 0
 2140              		@ frame_needed = 0, uses_anonymous_args = 0
 2141              		@ link register save eliminated.
 2142 0000 90F83D00 		ldrb	r0, [r0, #61]	@ zero_extendqisi2
 2143 0004 7047     		bx	lr
 2145              		.section	.text.HAL_TIM_Encoder_GetState,"ax",%progbits
 2146              		.align	1
 2147              		.global	HAL_TIM_Encoder_GetState
 2148              		.syntax unified
 2149              		.thumb
 2150              		.thumb_func
 2151              		.fpu fpv4-sp-d16
 2153              	HAL_TIM_Encoder_GetState:
 2154              		@ args = 0, pretend = 0, frame = 0
 2155              		@ frame_needed = 0, uses_anonymous_args = 0
 2156              		@ link register save eliminated.
 2157 0000 90F83D00 		ldrb	r0, [r0, #61]	@ zero_extendqisi2
 2158 0004 7047     		bx	lr
 2160              		.section	.text.TIM_Base_SetConfig,"ax",%progbits
 2161              		.align	1
 2162              		.global	TIM_Base_SetConfig
 2163              		.syntax unified
 2164              		.thumb
 2165              		.thumb_func
 2166              		.fpu fpv4-sp-d16
 2168              	TIM_Base_SetConfig:
 2169              		@ args = 0, pretend = 0, frame = 0
 2170              		@ frame_needed = 0, uses_anonymous_args = 0
 2171 0000 214A     		ldr	r2, .L296
 2172 0002 0368     		ldr	r3, [r0]
 2173 0004 9042     		cmp	r0, r2
 2174 0006 10B5     		push	{r4, lr}
 2175 0008 05D0     		beq	.L284
ARM GAS  C:\Users\gyoku\AppData\Local\Temp\ccpDhDV6.s 			page 37


 2176 000a B0F1804F 		cmp	r0, #1073741824
 2177 000e 02D0     		beq	.L284
 2178 0010 1E4C     		ldr	r4, .L296+4
 2179 0012 A042     		cmp	r0, r4
 2180 0014 0CD1     		bne	.L285
 2181              	.L284:
 2182 0016 4C68     		ldr	r4, [r1, #4]
 2183 0018 23F07003 		bic	r3, r3, #112
 2184 001c 9042     		cmp	r0, r2
 2185 001e 43EA0403 		orr	r3, r3, r4
 2186 0022 10D0     		beq	.L286
 2187 0024 B0F1804F 		cmp	r0, #1073741824
 2188 0028 0DD0     		beq	.L286
 2189 002a 184A     		ldr	r2, .L296+4
 2190 002c 9042     		cmp	r0, r2
 2191 002e 0AD0     		beq	.L286
 2192              	.L285:
 2193 0030 174A     		ldr	r2, .L296+8
 2194 0032 9042     		cmp	r0, r2
 2195 0034 07D0     		beq	.L286
 2196 0036 02F58062 		add	r2, r2, #1024
 2197 003a 9042     		cmp	r0, r2
 2198 003c 03D0     		beq	.L286
 2199 003e 02F58062 		add	r2, r2, #1024
 2200 0042 9042     		cmp	r0, r2
 2201 0044 03D1     		bne	.L287
 2202              	.L286:
 2203 0046 CA68     		ldr	r2, [r1, #12]
 2204 0048 23F44073 		bic	r3, r3, #768
 2205 004c 1343     		orrs	r3, r3, r2
 2206              	.L287:
 2207 004e 4A69     		ldr	r2, [r1, #20]
 2208 0050 23F08003 		bic	r3, r3, #128
 2209 0054 1343     		orrs	r3, r3, r2
 2210 0056 0360     		str	r3, [r0]
 2211 0058 8B68     		ldr	r3, [r1, #8]
 2212 005a C362     		str	r3, [r0, #44]
 2213 005c 0B68     		ldr	r3, [r1]
 2214 005e 8362     		str	r3, [r0, #40]
 2215 0060 094B     		ldr	r3, .L296
 2216 0062 9842     		cmp	r0, r3
 2217 0064 0BD0     		beq	.L288
 2218 0066 03F5A053 		add	r3, r3, #5120
 2219 006a 9842     		cmp	r0, r3
 2220 006c 07D0     		beq	.L288
 2221 006e 03F58063 		add	r3, r3, #1024
 2222 0072 9842     		cmp	r0, r3
 2223 0074 03D0     		beq	.L288
 2224 0076 03F58063 		add	r3, r3, #1024
 2225 007a 9842     		cmp	r0, r3
 2226 007c 01D1     		bne	.L289
 2227              	.L288:
 2228 007e 0B69     		ldr	r3, [r1, #16]
 2229 0080 0363     		str	r3, [r0, #48]
 2230              	.L289:
 2231 0082 0123     		movs	r3, #1
 2232 0084 4361     		str	r3, [r0, #20]
ARM GAS  C:\Users\gyoku\AppData\Local\Temp\ccpDhDV6.s 			page 38


 2233 0086 10BD     		pop	{r4, pc}
 2234              	.L297:
 2235              		.align	2
 2236              	.L296:
 2237 0088 002C0140 		.word	1073818624
 2238 008c 00040040 		.word	1073742848
 2239 0090 00400140 		.word	1073823744
 2241              		.section	.text.HAL_TIM_Base_Init,"ax",%progbits
 2242              		.align	1
 2243              		.global	HAL_TIM_Base_Init
 2244              		.syntax unified
 2245              		.thumb
 2246              		.thumb_func
 2247              		.fpu fpv4-sp-d16
 2249              	HAL_TIM_Base_Init:
 2250              		@ args = 0, pretend = 0, frame = 0
 2251              		@ frame_needed = 0, uses_anonymous_args = 0
 2252 0000 10B5     		push	{r4, lr}
 2253 0002 0446     		mov	r4, r0
 2254 0004 A0B1     		cbz	r0, .L301
 2255 0006 90F83D30 		ldrb	r3, [r0, #61]	@ zero_extendqisi2
 2256 000a 03F0FF02 		and	r2, r3, #255
 2257 000e 1BB9     		cbnz	r3, .L300
 2258 0010 80F83C20 		strb	r2, [r0, #60]
 2259 0014 FFF7FEFF 		bl	HAL_TIM_Base_MspInit
 2260              	.L300:
 2261 0018 0223     		movs	r3, #2
 2262 001a 84F83D30 		strb	r3, [r4, #61]
 2263 001e 2068     		ldr	r0, [r4]
 2264 0020 211D     		adds	r1, r4, #4
 2265 0022 FFF7FEFF 		bl	TIM_Base_SetConfig
 2266 0026 0123     		movs	r3, #1
 2267 0028 84F83D30 		strb	r3, [r4, #61]
 2268 002c 0020     		movs	r0, #0
 2269              	.L299:
 2270 002e 10BD     		pop	{r4, pc}
 2271              	.L301:
 2272 0030 0120     		movs	r0, #1
 2273 0032 FCE7     		b	.L299
 2275              		.section	.text.HAL_TIM_OC_Init,"ax",%progbits
 2276              		.align	1
 2277              		.global	HAL_TIM_OC_Init
 2278              		.syntax unified
 2279              		.thumb
 2280              		.thumb_func
 2281              		.fpu fpv4-sp-d16
 2283              	HAL_TIM_OC_Init:
 2284              		@ args = 0, pretend = 0, frame = 0
 2285              		@ frame_needed = 0, uses_anonymous_args = 0
 2286 0000 10B5     		push	{r4, lr}
 2287 0002 0446     		mov	r4, r0
 2288 0004 A0B1     		cbz	r0, .L305
 2289 0006 90F83D30 		ldrb	r3, [r0, #61]	@ zero_extendqisi2
 2290 000a 03F0FF02 		and	r2, r3, #255
 2291 000e 1BB9     		cbnz	r3, .L304
 2292 0010 80F83C20 		strb	r2, [r0, #60]
 2293 0014 FFF7FEFF 		bl	HAL_TIM_OC_MspInit
ARM GAS  C:\Users\gyoku\AppData\Local\Temp\ccpDhDV6.s 			page 39


 2294              	.L304:
 2295 0018 0223     		movs	r3, #2
 2296 001a 84F83D30 		strb	r3, [r4, #61]
 2297 001e 2068     		ldr	r0, [r4]
 2298 0020 211D     		adds	r1, r4, #4
 2299 0022 FFF7FEFF 		bl	TIM_Base_SetConfig
 2300 0026 0123     		movs	r3, #1
 2301 0028 84F83D30 		strb	r3, [r4, #61]
 2302 002c 0020     		movs	r0, #0
 2303              	.L303:
 2304 002e 10BD     		pop	{r4, pc}
 2305              	.L305:
 2306 0030 0120     		movs	r0, #1
 2307 0032 FCE7     		b	.L303
 2309              		.section	.text.HAL_TIM_PWM_Init,"ax",%progbits
 2310              		.align	1
 2311              		.global	HAL_TIM_PWM_Init
 2312              		.syntax unified
 2313              		.thumb
 2314              		.thumb_func
 2315              		.fpu fpv4-sp-d16
 2317              	HAL_TIM_PWM_Init:
 2318              		@ args = 0, pretend = 0, frame = 0
 2319              		@ frame_needed = 0, uses_anonymous_args = 0
 2320 0000 10B5     		push	{r4, lr}
 2321 0002 0446     		mov	r4, r0
 2322 0004 A0B1     		cbz	r0, .L309
 2323 0006 90F83D30 		ldrb	r3, [r0, #61]	@ zero_extendqisi2
 2324 000a 03F0FF02 		and	r2, r3, #255
 2325 000e 1BB9     		cbnz	r3, .L308
 2326 0010 80F83C20 		strb	r2, [r0, #60]
 2327 0014 FFF7FEFF 		bl	HAL_TIM_PWM_MspInit
 2328              	.L308:
 2329 0018 0223     		movs	r3, #2
 2330 001a 84F83D30 		strb	r3, [r4, #61]
 2331 001e 2068     		ldr	r0, [r4]
 2332 0020 211D     		adds	r1, r4, #4
 2333 0022 FFF7FEFF 		bl	TIM_Base_SetConfig
 2334 0026 0123     		movs	r3, #1
 2335 0028 84F83D30 		strb	r3, [r4, #61]
 2336 002c 0020     		movs	r0, #0
 2337              	.L307:
 2338 002e 10BD     		pop	{r4, pc}
 2339              	.L309:
 2340 0030 0120     		movs	r0, #1
 2341 0032 FCE7     		b	.L307
 2343              		.section	.text.HAL_TIM_IC_Init,"ax",%progbits
 2344              		.align	1
 2345              		.global	HAL_TIM_IC_Init
 2346              		.syntax unified
 2347              		.thumb
 2348              		.thumb_func
 2349              		.fpu fpv4-sp-d16
 2351              	HAL_TIM_IC_Init:
 2352              		@ args = 0, pretend = 0, frame = 0
 2353              		@ frame_needed = 0, uses_anonymous_args = 0
 2354 0000 10B5     		push	{r4, lr}
ARM GAS  C:\Users\gyoku\AppData\Local\Temp\ccpDhDV6.s 			page 40


 2355 0002 0446     		mov	r4, r0
 2356 0004 A0B1     		cbz	r0, .L313
 2357 0006 90F83D30 		ldrb	r3, [r0, #61]	@ zero_extendqisi2
 2358 000a 03F0FF02 		and	r2, r3, #255
 2359 000e 1BB9     		cbnz	r3, .L312
 2360 0010 80F83C20 		strb	r2, [r0, #60]
 2361 0014 FFF7FEFF 		bl	HAL_TIM_IC_MspInit
 2362              	.L312:
 2363 0018 0223     		movs	r3, #2
 2364 001a 84F83D30 		strb	r3, [r4, #61]
 2365 001e 2068     		ldr	r0, [r4]
 2366 0020 211D     		adds	r1, r4, #4
 2367 0022 FFF7FEFF 		bl	TIM_Base_SetConfig
 2368 0026 0123     		movs	r3, #1
 2369 0028 84F83D30 		strb	r3, [r4, #61]
 2370 002c 0020     		movs	r0, #0
 2371              	.L311:
 2372 002e 10BD     		pop	{r4, pc}
 2373              	.L313:
 2374 0030 0120     		movs	r0, #1
 2375 0032 FCE7     		b	.L311
 2377              		.section	.text.HAL_TIM_OnePulse_Init,"ax",%progbits
 2378              		.align	1
 2379              		.global	HAL_TIM_OnePulse_Init
 2380              		.syntax unified
 2381              		.thumb
 2382              		.thumb_func
 2383              		.fpu fpv4-sp-d16
 2385              	HAL_TIM_OnePulse_Init:
 2386              		@ args = 0, pretend = 0, frame = 0
 2387              		@ frame_needed = 0, uses_anonymous_args = 0
 2388 0000 38B5     		push	{r3, r4, r5, lr}
 2389 0002 0D46     		mov	r5, r1
 2390 0004 0446     		mov	r4, r0
 2391 0006 E0B1     		cbz	r0, .L317
 2392 0008 90F83D30 		ldrb	r3, [r0, #61]	@ zero_extendqisi2
 2393 000c 03F0FF02 		and	r2, r3, #255
 2394 0010 1BB9     		cbnz	r3, .L316
 2395 0012 80F83C20 		strb	r2, [r0, #60]
 2396 0016 FFF7FEFF 		bl	HAL_TIM_OnePulse_MspInit
 2397              	.L316:
 2398 001a 0223     		movs	r3, #2
 2399 001c 84F83D30 		strb	r3, [r4, #61]
 2400 0020 211D     		adds	r1, r4, #4
 2401 0022 2068     		ldr	r0, [r4]
 2402 0024 FFF7FEFF 		bl	TIM_Base_SetConfig
 2403 0028 2368     		ldr	r3, [r4]
 2404 002a 1A68     		ldr	r2, [r3]
 2405 002c 22F00802 		bic	r2, r2, #8
 2406 0030 1A60     		str	r2, [r3]
 2407 0032 1968     		ldr	r1, [r3]
 2408 0034 2943     		orrs	r1, r1, r5
 2409 0036 1960     		str	r1, [r3]
 2410 0038 0123     		movs	r3, #1
 2411 003a 84F83D30 		strb	r3, [r4, #61]
 2412 003e 0020     		movs	r0, #0
 2413              	.L315:
ARM GAS  C:\Users\gyoku\AppData\Local\Temp\ccpDhDV6.s 			page 41


 2414 0040 38BD     		pop	{r3, r4, r5, pc}
 2415              	.L317:
 2416 0042 0120     		movs	r0, #1
 2417 0044 FCE7     		b	.L315
 2419              		.section	.text.HAL_TIM_Encoder_Init,"ax",%progbits
 2420              		.align	1
 2421              		.global	HAL_TIM_Encoder_Init
 2422              		.syntax unified
 2423              		.thumb
 2424              		.thumb_func
 2425              		.fpu fpv4-sp-d16
 2427              	HAL_TIM_Encoder_Init:
 2428              		@ args = 0, pretend = 0, frame = 0
 2429              		@ frame_needed = 0, uses_anonymous_args = 0
 2430 0000 F8B5     		push	{r3, r4, r5, r6, r7, lr}
 2431 0002 0C46     		mov	r4, r1
 2432 0004 0546     		mov	r5, r0
 2433 0006 0028     		cmp	r0, #0
 2434 0008 43D0     		beq	.L321
 2435 000a 90F83D30 		ldrb	r3, [r0, #61]	@ zero_extendqisi2
 2436 000e 03F0FF02 		and	r2, r3, #255
 2437 0012 1BB9     		cbnz	r3, .L320
 2438 0014 80F83C20 		strb	r2, [r0, #60]
 2439 0018 FFF7FEFF 		bl	HAL_TIM_Encoder_MspInit
 2440              	.L320:
 2441 001c 2946     		mov	r1, r5
 2442 001e 0223     		movs	r3, #2
 2443 0020 51F8040B 		ldr	r0, [r1], #4
 2444 0024 85F83D30 		strb	r3, [r5, #61]
 2445 0028 8368     		ldr	r3, [r0, #8]
 2446 002a 23F48033 		bic	r3, r3, #65536
 2447 002e 23F00703 		bic	r3, r3, #7
 2448 0032 8360     		str	r3, [r0, #8]
 2449 0034 FFF7FEFF 		bl	TIM_Base_SetConfig
 2450 0038 2868     		ldr	r0, [r5]
 2451 003a 2368     		ldr	r3, [r4]
 2452 003c 8668     		ldr	r6, [r0, #8]
 2453 003e 8269     		ldr	r2, [r0, #24]
 2454 0040 A168     		ldr	r1, [r4, #8]
 2455 0042 076A     		ldr	r7, [r0, #32]
 2456 0044 1E43     		orrs	r6, r6, r3
 2457 0046 A369     		ldr	r3, [r4, #24]
 2458 0048 22F44072 		bic	r2, r2, #768
 2459 004c 22F00302 		bic	r2, r2, #3
 2460 0050 41EA0323 		orr	r3, r1, r3, lsl #8
 2461 0054 1343     		orrs	r3, r3, r2
 2462 0056 23F47C42 		bic	r2, r3, #64512
 2463 005a 2369     		ldr	r3, [r4, #16]
 2464 005c E169     		ldr	r1, [r4, #28]
 2465 005e 1B01     		lsls	r3, r3, #4
 2466 0060 43EA0123 		orr	r3, r3, r1, lsl #8
 2467 0064 E168     		ldr	r1, [r4, #12]
 2468 0066 0B43     		orrs	r3, r3, r1
 2469 0068 216A     		ldr	r1, [r4, #32]
 2470 006a 22F0FC02 		bic	r2, r2, #252
 2471 006e 43EA0133 		orr	r3, r3, r1, lsl #12
 2472 0072 1343     		orrs	r3, r3, r2
ARM GAS  C:\Users\gyoku\AppData\Local\Temp\ccpDhDV6.s 			page 42


 2473 0074 6169     		ldr	r1, [r4, #20]
 2474 0076 27F0AA02 		bic	r2, r7, #170
 2475 007a 6768     		ldr	r7, [r4, #4]
 2476 007c 8660     		str	r6, [r0, #8]
 2477 007e 47EA0117 		orr	r7, r7, r1, lsl #4
 2478 0082 8361     		str	r3, [r0, #24]
 2479 0084 1743     		orrs	r7, r7, r2
 2480 0086 0123     		movs	r3, #1
 2481 0088 0762     		str	r7, [r0, #32]
 2482 008a 85F83D30 		strb	r3, [r5, #61]
 2483 008e 0020     		movs	r0, #0
 2484              	.L319:
 2485 0090 F8BD     		pop	{r3, r4, r5, r6, r7, pc}
 2486              	.L321:
 2487 0092 0120     		movs	r0, #1
 2488 0094 FCE7     		b	.L319
 2490              		.section	.text.TIM_OC1_SetConfig,"ax",%progbits
 2491              		.align	1
 2492              		.global	TIM_OC1_SetConfig
 2493              		.syntax unified
 2494              		.thumb
 2495              		.thumb_func
 2496              		.fpu fpv4-sp-d16
 2498              	TIM_OC1_SetConfig:
 2499              		@ args = 0, pretend = 0, frame = 0
 2500              		@ frame_needed = 0, uses_anonymous_args = 0
 2501 0000 036A     		ldr	r3, [r0, #32]
 2502 0002 23F00103 		bic	r3, r3, #1
 2503 0006 0362     		str	r3, [r0, #32]
 2504 0008 036A     		ldr	r3, [r0, #32]
 2505 000a 70B5     		push	{r4, r5, r6, lr}
 2506 000c 4468     		ldr	r4, [r0, #4]
 2507 000e 8269     		ldr	r2, [r0, #24]
 2508 0010 0D68     		ldr	r5, [r1]
 2509 0012 22F48032 		bic	r2, r2, #65536
 2510 0016 22F07302 		bic	r2, r2, #115
 2511 001a 2A43     		orrs	r2, r2, r5
 2512 001c 8D68     		ldr	r5, [r1, #8]
 2513 001e 23F00203 		bic	r3, r3, #2
 2514 0022 2B43     		orrs	r3, r3, r5
 2515 0024 174D     		ldr	r5, .L326
 2516 0026 A842     		cmp	r0, r5
 2517 0028 0BD0     		beq	.L323
 2518 002a 05F5A055 		add	r5, r5, #5120
 2519 002e A842     		cmp	r0, r5
 2520 0030 07D0     		beq	.L323
 2521 0032 05F58065 		add	r5, r5, #1024
 2522 0036 A842     		cmp	r0, r5
 2523 0038 03D0     		beq	.L323
 2524 003a 05F58065 		add	r5, r5, #1024
 2525 003e A842     		cmp	r0, r5
 2526 0040 1AD1     		bne	.L324
 2527              	.L323:
 2528 0042 CD68     		ldr	r5, [r1, #12]
 2529 0044 23F00803 		bic	r3, r3, #8
 2530 0048 2B43     		orrs	r3, r3, r5
 2531 004a 0E4D     		ldr	r5, .L326
ARM GAS  C:\Users\gyoku\AppData\Local\Temp\ccpDhDV6.s 			page 43


 2532 004c A842     		cmp	r0, r5
 2533 004e 23F00403 		bic	r3, r3, #4
 2534 0052 0BD0     		beq	.L325
 2535 0054 05F5A055 		add	r5, r5, #5120
 2536 0058 A842     		cmp	r0, r5
 2537 005a 07D0     		beq	.L325
 2538 005c 05F58065 		add	r5, r5, #1024
 2539 0060 A842     		cmp	r0, r5
 2540 0062 03D0     		beq	.L325
 2541 0064 05F58065 		add	r5, r5, #1024
 2542 0068 A842     		cmp	r0, r5
 2543 006a 05D1     		bne	.L324
 2544              	.L325:
 2545 006c 24F44075 		bic	r5, r4, #768
 2546 0070 D1E90546 		ldrd	r4, r6, [r1, #20]
 2547 0074 3443     		orrs	r4, r4, r6
 2548 0076 2C43     		orrs	r4, r4, r5
 2549              	.L324:
 2550 0078 4460     		str	r4, [r0, #4]
 2551 007a 8261     		str	r2, [r0, #24]
 2552 007c 4A68     		ldr	r2, [r1, #4]
 2553 007e 4263     		str	r2, [r0, #52]
 2554 0080 0362     		str	r3, [r0, #32]
 2555 0082 70BD     		pop	{r4, r5, r6, pc}
 2556              	.L327:
 2557              		.align	2
 2558              	.L326:
 2559 0084 002C0140 		.word	1073818624
 2561              		.section	.text.TIM_OC2_SetConfig,"ax",%progbits
 2562              		.align	1
 2563              		.global	TIM_OC2_SetConfig
 2564              		.syntax unified
 2565              		.thumb
 2566              		.thumb_func
 2567              		.fpu fpv4-sp-d16
 2569              	TIM_OC2_SetConfig:
 2570              		@ args = 0, pretend = 0, frame = 0
 2571              		@ frame_needed = 0, uses_anonymous_args = 0
 2572 0000 036A     		ldr	r3, [r0, #32]
 2573 0002 23F01003 		bic	r3, r3, #16
 2574 0006 0362     		str	r3, [r0, #32]
 2575 0008 036A     		ldr	r3, [r0, #32]
 2576 000a 4268     		ldr	r2, [r0, #4]
 2577 000c 70B5     		push	{r4, r5, r6, lr}
 2578 000e 8469     		ldr	r4, [r0, #24]
 2579 0010 0D68     		ldr	r5, [r1]
 2580 0012 24F08074 		bic	r4, r4, #16777216
 2581 0016 24F4E644 		bic	r4, r4, #29440
 2582 001a 44EA0524 		orr	r4, r4, r5, lsl #8
 2583 001e 8D68     		ldr	r5, [r1, #8]
 2584 0020 23F02003 		bic	r3, r3, #32
 2585 0024 43EA0513 		orr	r3, r3, r5, lsl #4
 2586 0028 104D     		ldr	r5, .L335
 2587 002a A842     		cmp	r0, r5
 2588 002c 0ED1     		bne	.L329
 2589 002e CD68     		ldr	r5, [r1, #12]
 2590 0030 23F08003 		bic	r3, r3, #128
ARM GAS  C:\Users\gyoku\AppData\Local\Temp\ccpDhDV6.s 			page 44


 2591 0034 43EA0513 		orr	r3, r3, r5, lsl #4
 2592 0038 23F04003 		bic	r3, r3, #64
 2593              	.L330:
 2594 003c D1E90556 		ldrd	r5, r6, [r1, #20]
 2595 0040 22F44062 		bic	r2, r2, #3072
 2596 0044 3543     		orrs	r5, r5, r6
 2597 0046 42EA8502 		orr	r2, r2, r5, lsl #2
 2598 004a 09E0     		b	.L331
 2599              	.L329:
 2600 004c 084D     		ldr	r5, .L335+4
 2601 004e A842     		cmp	r0, r5
 2602 0050 F4D0     		beq	.L330
 2603 0052 084D     		ldr	r5, .L335+8
 2604 0054 A842     		cmp	r0, r5
 2605 0056 F1D0     		beq	.L330
 2606 0058 05F58065 		add	r5, r5, #1024
 2607 005c A842     		cmp	r0, r5
 2608 005e EDD0     		beq	.L330
 2609              	.L331:
 2610 0060 4260     		str	r2, [r0, #4]
 2611 0062 4A68     		ldr	r2, [r1, #4]
 2612 0064 8461     		str	r4, [r0, #24]
 2613 0066 8263     		str	r2, [r0, #56]
 2614 0068 0362     		str	r3, [r0, #32]
 2615 006a 70BD     		pop	{r4, r5, r6, pc}
 2616              	.L336:
 2617              		.align	2
 2618              	.L335:
 2619 006c 002C0140 		.word	1073818624
 2620 0070 00400140 		.word	1073823744
 2621 0074 00440140 		.word	1073824768
 2623              		.section	.text.TIM_OC3_SetConfig,"ax",%progbits
 2624              		.align	1
 2625              		.global	TIM_OC3_SetConfig
 2626              		.syntax unified
 2627              		.thumb
 2628              		.thumb_func
 2629              		.fpu fpv4-sp-d16
 2631              	TIM_OC3_SetConfig:
 2632              		@ args = 0, pretend = 0, frame = 0
 2633              		@ frame_needed = 0, uses_anonymous_args = 0
 2634 0000 036A     		ldr	r3, [r0, #32]
 2635 0002 23F48073 		bic	r3, r3, #256
 2636 0006 0362     		str	r3, [r0, #32]
 2637 0008 036A     		ldr	r3, [r0, #32]
 2638 000a 4268     		ldr	r2, [r0, #4]
 2639 000c 70B5     		push	{r4, r5, r6, lr}
 2640 000e C469     		ldr	r4, [r0, #28]
 2641 0010 0D68     		ldr	r5, [r1]
 2642 0012 24F48034 		bic	r4, r4, #65536
 2643 0016 24F07304 		bic	r4, r4, #115
 2644 001a 2C43     		orrs	r4, r4, r5
 2645 001c 8D68     		ldr	r5, [r1, #8]
 2646 001e 23F40073 		bic	r3, r3, #512
 2647 0022 43EA0523 		orr	r3, r3, r5, lsl #8
 2648 0026 114D     		ldr	r5, .L344
 2649 0028 A842     		cmp	r0, r5
ARM GAS  C:\Users\gyoku\AppData\Local\Temp\ccpDhDV6.s 			page 45


 2650 002a 0ED1     		bne	.L338
 2651 002c CD68     		ldr	r5, [r1, #12]
 2652 002e 23F40063 		bic	r3, r3, #2048
 2653 0032 43EA0523 		orr	r3, r3, r5, lsl #8
 2654 0036 23F48063 		bic	r3, r3, #1024
 2655              	.L339:
 2656 003a D1E90556 		ldrd	r5, r6, [r1, #20]
 2657 003e 22F44052 		bic	r2, r2, #12288
 2658 0042 3543     		orrs	r5, r5, r6
 2659 0044 42EA0512 		orr	r2, r2, r5, lsl #4
 2660 0048 09E0     		b	.L340
 2661              	.L338:
 2662 004a 094D     		ldr	r5, .L344+4
 2663 004c A842     		cmp	r0, r5
 2664 004e F4D0     		beq	.L339
 2665 0050 084D     		ldr	r5, .L344+8
 2666 0052 A842     		cmp	r0, r5
 2667 0054 F1D0     		beq	.L339
 2668 0056 05F58065 		add	r5, r5, #1024
 2669 005a A842     		cmp	r0, r5
 2670 005c EDD0     		beq	.L339
 2671              	.L340:
 2672 005e 4260     		str	r2, [r0, #4]
 2673 0060 4A68     		ldr	r2, [r1, #4]
 2674 0062 C461     		str	r4, [r0, #28]
 2675 0064 C263     		str	r2, [r0, #60]
 2676 0066 0362     		str	r3, [r0, #32]
 2677 0068 70BD     		pop	{r4, r5, r6, pc}
 2678              	.L345:
 2679 006a 00BF     		.align	2
 2680              	.L344:
 2681 006c 002C0140 		.word	1073818624
 2682 0070 00400140 		.word	1073823744
 2683 0074 00440140 		.word	1073824768
 2685              		.section	.text.TIM_OC4_SetConfig,"ax",%progbits
 2686              		.align	1
 2687              		.global	TIM_OC4_SetConfig
 2688              		.syntax unified
 2689              		.thumb
 2690              		.thumb_func
 2691              		.fpu fpv4-sp-d16
 2693              	TIM_OC4_SetConfig:
 2694              		@ args = 0, pretend = 0, frame = 0
 2695              		@ frame_needed = 0, uses_anonymous_args = 0
 2696 0000 036A     		ldr	r3, [r0, #32]
 2697 0002 23F48053 		bic	r3, r3, #4096
 2698 0006 0362     		str	r3, [r0, #32]
 2699 0008 026A     		ldr	r2, [r0, #32]
 2700 000a 30B5     		push	{r4, r5, lr}
 2701 000c 4468     		ldr	r4, [r0, #4]
 2702 000e C369     		ldr	r3, [r0, #28]
 2703 0010 0D68     		ldr	r5, [r1]
 2704 0012 23F08073 		bic	r3, r3, #16777216
 2705 0016 23F4E643 		bic	r3, r3, #29440
 2706 001a 43EA0523 		orr	r3, r3, r5, lsl #8
 2707 001e 8D68     		ldr	r5, [r1, #8]
 2708 0020 22F40052 		bic	r2, r2, #8192
ARM GAS  C:\Users\gyoku\AppData\Local\Temp\ccpDhDV6.s 			page 46


 2709 0024 42EA0532 		orr	r2, r2, r5, lsl #12
 2710 0028 0C4D     		ldr	r5, .L349
 2711 002a A842     		cmp	r0, r5
 2712 002c 0BD0     		beq	.L347
 2713 002e 05F5A055 		add	r5, r5, #5120
 2714 0032 A842     		cmp	r0, r5
 2715 0034 07D0     		beq	.L347
 2716 0036 05F58065 		add	r5, r5, #1024
 2717 003a A842     		cmp	r0, r5
 2718 003c 03D0     		beq	.L347
 2719 003e 05F58065 		add	r5, r5, #1024
 2720 0042 A842     		cmp	r0, r5
 2721 0044 04D1     		bne	.L348
 2722              	.L347:
 2723 0046 4D69     		ldr	r5, [r1, #20]
 2724 0048 24F48044 		bic	r4, r4, #16384
 2725 004c 44EA8514 		orr	r4, r4, r5, lsl #6
 2726              	.L348:
 2727 0050 4460     		str	r4, [r0, #4]
 2728 0052 C361     		str	r3, [r0, #28]
 2729 0054 4B68     		ldr	r3, [r1, #4]
 2730 0056 0364     		str	r3, [r0, #64]
 2731 0058 0262     		str	r2, [r0, #32]
 2732 005a 30BD     		pop	{r4, r5, pc}
 2733              	.L350:
 2734              		.align	2
 2735              	.L349:
 2736 005c 002C0140 		.word	1073818624
 2738              		.section	.text.HAL_TIM_OC_ConfigChannel,"ax",%progbits
 2739              		.align	1
 2740              		.weak	HAL_TIM_OC_ConfigChannel
 2741              		.syntax unified
 2742              		.thumb
 2743              		.thumb_func
 2744              		.fpu fpv4-sp-d16
 2746              	HAL_TIM_OC_ConfigChannel:
 2747              		@ args = 0, pretend = 0, frame = 0
 2748              		@ frame_needed = 0, uses_anonymous_args = 0
 2749 0000 38B5     		push	{r3, r4, r5, lr}
 2750 0002 90F83C30 		ldrb	r3, [r0, #60]	@ zero_extendqisi2
 2751 0006 012B     		cmp	r3, #1
 2752 0008 0446     		mov	r4, r0
 2753 000a 4FF00200 		mov	r0, #2
 2754 000e 18D0     		beq	.L352
 2755 0010 0123     		movs	r3, #1
 2756 0012 84F83C30 		strb	r3, [r4, #60]
 2757 0016 84F83D00 		strb	r0, [r4, #61]
 2758 001a 1D46     		mov	r5, r3
 2759 001c 0C2A     		cmp	r2, #12
 2760 001e 0BD8     		bhi	.L353
 2761 0020 DFE802F0 		tbb	[pc, r2]
 2762              	.L355:
 2763 0024 07       		.byte	(.L358-.L355)/2
 2764 0025 0A       		.byte	(.L353-.L355)/2
 2765 0026 0A       		.byte	(.L353-.L355)/2
 2766 0027 0A       		.byte	(.L353-.L355)/2
 2767 0028 10       		.byte	(.L357-.L355)/2
ARM GAS  C:\Users\gyoku\AppData\Local\Temp\ccpDhDV6.s 			page 47


 2768 0029 0A       		.byte	(.L353-.L355)/2
 2769 002a 0A       		.byte	(.L353-.L355)/2
 2770 002b 0A       		.byte	(.L353-.L355)/2
 2771 002c 14       		.byte	(.L356-.L355)/2
 2772 002d 0A       		.byte	(.L353-.L355)/2
 2773 002e 0A       		.byte	(.L353-.L355)/2
 2774 002f 0A       		.byte	(.L353-.L355)/2
 2775 0030 18       		.byte	(.L354-.L355)/2
 2776 0031 00       		.p2align 1
 2777              	.L358:
 2778 0032 2068     		ldr	r0, [r4]
 2779 0034 FFF7FEFF 		bl	TIM_OC1_SetConfig
 2780              	.L353:
 2781 0038 0020     		movs	r0, #0
 2782 003a 84F83D50 		strb	r5, [r4, #61]
 2783 003e 84F83C00 		strb	r0, [r4, #60]
 2784              	.L352:
 2785 0042 38BD     		pop	{r3, r4, r5, pc}
 2786              	.L357:
 2787 0044 2068     		ldr	r0, [r4]
 2788 0046 FFF7FEFF 		bl	TIM_OC2_SetConfig
 2789 004a F5E7     		b	.L353
 2790              	.L356:
 2791 004c 2068     		ldr	r0, [r4]
 2792 004e FFF7FEFF 		bl	TIM_OC3_SetConfig
 2793 0052 F1E7     		b	.L353
 2794              	.L354:
 2795 0054 2068     		ldr	r0, [r4]
 2796 0056 FFF7FEFF 		bl	TIM_OC4_SetConfig
 2797 005a EDE7     		b	.L353
 2799              		.section	.text.HAL_TIM_PWM_ConfigChannel,"ax",%progbits
 2800              		.align	1
 2801              		.weak	HAL_TIM_PWM_ConfigChannel
 2802              		.syntax unified
 2803              		.thumb
 2804              		.thumb_func
 2805              		.fpu fpv4-sp-d16
 2807              	HAL_TIM_PWM_ConfigChannel:
 2808              		@ args = 0, pretend = 0, frame = 0
 2809              		@ frame_needed = 0, uses_anonymous_args = 0
 2810 0000 38B5     		push	{r3, r4, r5, lr}
 2811 0002 90F83C30 		ldrb	r3, [r0, #60]	@ zero_extendqisi2
 2812 0006 012B     		cmp	r3, #1
 2813 0008 0446     		mov	r4, r0
 2814 000a 4FF00200 		mov	r0, #2
 2815 000e 25D0     		beq	.L361
 2816 0010 0123     		movs	r3, #1
 2817 0012 84F83C30 		strb	r3, [r4, #60]
 2818 0016 84F83D00 		strb	r0, [r4, #61]
 2819 001a 0C2A     		cmp	r2, #12
 2820 001c 18D8     		bhi	.L362
 2821 001e DFE802F0 		tbb	[pc, r2]
 2822              	.L364:
 2823 0022 07       		.byte	(.L367-.L364)/2
 2824 0023 17       		.byte	(.L362-.L364)/2
 2825 0024 17       		.byte	(.L362-.L364)/2
 2826 0025 17       		.byte	(.L362-.L364)/2
ARM GAS  C:\Users\gyoku\AppData\Local\Temp\ccpDhDV6.s 			page 48


 2827 0026 1E       		.byte	(.L366-.L364)/2
 2828 0027 17       		.byte	(.L362-.L364)/2
 2829 0028 17       		.byte	(.L362-.L364)/2
 2830 0029 17       		.byte	(.L362-.L364)/2
 2831 002a 2F       		.byte	(.L365-.L364)/2
 2832 002b 17       		.byte	(.L362-.L364)/2
 2833 002c 17       		.byte	(.L362-.L364)/2
 2834 002d 17       		.byte	(.L362-.L364)/2
 2835 002e 40       		.byte	(.L363-.L364)/2
 2836 002f 00       		.p2align 1
 2837              	.L367:
 2838 0030 2068     		ldr	r0, [r4]
 2839 0032 FFF7FEFF 		bl	TIM_OC1_SetConfig
 2840 0036 2368     		ldr	r3, [r4]
 2841 0038 0969     		ldr	r1, [r1, #16]
 2842 003a 9A69     		ldr	r2, [r3, #24]
 2843 003c 42F00802 		orr	r2, r2, #8
 2844 0040 9A61     		str	r2, [r3, #24]
 2845 0042 9A69     		ldr	r2, [r3, #24]
 2846 0044 22F00402 		bic	r2, r2, #4
 2847 0048 9A61     		str	r2, [r3, #24]
 2848 004a 9A69     		ldr	r2, [r3, #24]
 2849 004c 0A43     		orrs	r2, r2, r1
 2850              	.L369:
 2851 004e 9A61     		str	r2, [r3, #24]
 2852              	.L362:
 2853 0050 0123     		movs	r3, #1
 2854 0052 0020     		movs	r0, #0
 2855 0054 84F83D30 		strb	r3, [r4, #61]
 2856 0058 84F83C00 		strb	r0, [r4, #60]
 2857              	.L361:
 2858 005c 38BD     		pop	{r3, r4, r5, pc}
 2859              	.L366:
 2860 005e 2068     		ldr	r0, [r4]
 2861 0060 FFF7FEFF 		bl	TIM_OC2_SetConfig
 2862 0064 2368     		ldr	r3, [r4]
 2863 0066 0969     		ldr	r1, [r1, #16]
 2864 0068 9A69     		ldr	r2, [r3, #24]
 2865 006a 42F40062 		orr	r2, r2, #2048
 2866 006e 9A61     		str	r2, [r3, #24]
 2867 0070 9A69     		ldr	r2, [r3, #24]
 2868 0072 22F48062 		bic	r2, r2, #1024
 2869 0076 9A61     		str	r2, [r3, #24]
 2870 0078 9A69     		ldr	r2, [r3, #24]
 2871 007a 42EA0122 		orr	r2, r2, r1, lsl #8
 2872 007e E6E7     		b	.L369
 2873              	.L365:
 2874 0080 2068     		ldr	r0, [r4]
 2875 0082 FFF7FEFF 		bl	TIM_OC3_SetConfig
 2876 0086 2368     		ldr	r3, [r4]
 2877 0088 0969     		ldr	r1, [r1, #16]
 2878 008a DA69     		ldr	r2, [r3, #28]
 2879 008c 42F00802 		orr	r2, r2, #8
 2880 0090 DA61     		str	r2, [r3, #28]
 2881 0092 DA69     		ldr	r2, [r3, #28]
 2882 0094 22F00402 		bic	r2, r2, #4
 2883 0098 DA61     		str	r2, [r3, #28]
ARM GAS  C:\Users\gyoku\AppData\Local\Temp\ccpDhDV6.s 			page 49


 2884 009a DA69     		ldr	r2, [r3, #28]
 2885 009c 0A43     		orrs	r2, r2, r1
 2886              	.L370:
 2887 009e DA61     		str	r2, [r3, #28]
 2888 00a0 D6E7     		b	.L362
 2889              	.L363:
 2890 00a2 2068     		ldr	r0, [r4]
 2891 00a4 FFF7FEFF 		bl	TIM_OC4_SetConfig
 2892 00a8 2368     		ldr	r3, [r4]
 2893 00aa 0969     		ldr	r1, [r1, #16]
 2894 00ac DA69     		ldr	r2, [r3, #28]
 2895 00ae 42F40062 		orr	r2, r2, #2048
 2896 00b2 DA61     		str	r2, [r3, #28]
 2897 00b4 DA69     		ldr	r2, [r3, #28]
 2898 00b6 22F48062 		bic	r2, r2, #1024
 2899 00ba DA61     		str	r2, [r3, #28]
 2900 00bc DA69     		ldr	r2, [r3, #28]
 2901 00be 42EA0122 		orr	r2, r2, r1, lsl #8
 2902 00c2 ECE7     		b	.L370
 2904              		.section	.text.TIM_TI1_SetConfig,"ax",%progbits
 2905              		.align	1
 2906              		.global	TIM_TI1_SetConfig
 2907              		.syntax unified
 2908              		.thumb
 2909              		.thumb_func
 2910              		.fpu fpv4-sp-d16
 2912              	TIM_TI1_SetConfig:
 2913              		@ args = 0, pretend = 0, frame = 0
 2914              		@ frame_needed = 0, uses_anonymous_args = 0
 2915 0000 70B5     		push	{r4, r5, r6, lr}
 2916 0002 056A     		ldr	r5, [r0, #32]
 2917 0004 124E     		ldr	r6, .L377
 2918 0006 25F00105 		bic	r5, r5, #1
 2919 000a 0562     		str	r5, [r0, #32]
 2920 000c B042     		cmp	r0, r6
 2921 000e 8469     		ldr	r4, [r0, #24]
 2922 0010 056A     		ldr	r5, [r0, #32]
 2923 0012 19D0     		beq	.L372
 2924 0014 B0F1804F 		cmp	r0, #1073741824
 2925 0018 16D0     		beq	.L372
 2926 001a A6F59436 		sub	r6, r6, #75776
 2927 001e B042     		cmp	r0, r6
 2928 0020 12D0     		beq	.L372
 2929 0022 06F59E36 		add	r6, r6, #80896
 2930 0026 B042     		cmp	r0, r6
 2931 0028 0ED0     		beq	.L372
 2932 002a 44F00104 		orr	r4, r4, #1
 2933              	.L373:
 2934 002e 1B01     		lsls	r3, r3, #4
 2935 0030 24F0F004 		bic	r4, r4, #240
 2936 0034 DBB2     		uxtb	r3, r3
 2937 0036 25F00A05 		bic	r5, r5, #10
 2938 003a 01F00A01 		and	r1, r1, #10
 2939 003e 1C43     		orrs	r4, r4, r3
 2940 0040 2943     		orrs	r1, r1, r5
 2941 0042 8461     		str	r4, [r0, #24]
 2942 0044 0162     		str	r1, [r0, #32]
ARM GAS  C:\Users\gyoku\AppData\Local\Temp\ccpDhDV6.s 			page 50


 2943 0046 70BD     		pop	{r4, r5, r6, pc}
 2944              	.L372:
 2945 0048 24F00304 		bic	r4, r4, #3
 2946 004c 1443     		orrs	r4, r4, r2
 2947 004e EEE7     		b	.L373
 2948              	.L378:
 2949              		.align	2
 2950              	.L377:
 2951 0050 002C0140 		.word	1073818624
 2953              		.section	.text.HAL_TIM_IC_ConfigChannel,"ax",%progbits
 2954              		.align	1
 2955              		.global	HAL_TIM_IC_ConfigChannel
 2956              		.syntax unified
 2957              		.thumb
 2958              		.thumb_func
 2959              		.fpu fpv4-sp-d16
 2961              	HAL_TIM_IC_ConfigChannel:
 2962              		@ args = 0, pretend = 0, frame = 0
 2963              		@ frame_needed = 0, uses_anonymous_args = 0
 2964 0000 F8B5     		push	{r3, r4, r5, r6, r7, lr}
 2965 0002 90F83C30 		ldrb	r3, [r0, #60]	@ zero_extendqisi2
 2966 0006 012B     		cmp	r3, #1
 2967 0008 0446     		mov	r4, r0
 2968 000a 0E46     		mov	r6, r1
 2969 000c 1546     		mov	r5, r2
 2970 000e 4FF00200 		mov	r0, #2
 2971 0012 1AD0     		beq	.L380
 2972 0014 0123     		movs	r3, #1
 2973 0016 84F83C30 		strb	r3, [r4, #60]
 2974 001a 84F83D00 		strb	r0, [r4, #61]
 2975 001e D1E90012 		ldrd	r1, r2, [r1]
 2976 0022 2068     		ldr	r0, [r4]
 2977 0024 F368     		ldr	r3, [r6, #12]
 2978 0026 8DB9     		cbnz	r5, .L381
 2979 0028 FFF7FEFF 		bl	TIM_TI1_SetConfig
 2980 002c 2368     		ldr	r3, [r4]
 2981 002e B168     		ldr	r1, [r6, #8]
 2982 0030 9A69     		ldr	r2, [r3, #24]
 2983 0032 22F00C02 		bic	r2, r2, #12
 2984 0036 9A61     		str	r2, [r3, #24]
 2985 0038 9A69     		ldr	r2, [r3, #24]
 2986 003a 0A43     		orrs	r2, r2, r1
 2987 003c 9A61     		str	r2, [r3, #24]
 2988              	.L382:
 2989 003e 0123     		movs	r3, #1
 2990 0040 0020     		movs	r0, #0
 2991 0042 84F83D30 		strb	r3, [r4, #61]
 2992 0046 84F83C00 		strb	r0, [r4, #60]
 2993              	.L380:
 2994 004a F8BD     		pop	{r3, r4, r5, r6, r7, pc}
 2995              	.L381:
 2996 004c 042D     		cmp	r5, #4
 2997 004e B668     		ldr	r6, [r6, #8]
 2998 0050 22D1     		bne	.L383
 2999 0052 056A     		ldr	r5, [r0, #32]
 3000 0054 25F01005 		bic	r5, r5, #16
 3001 0058 0562     		str	r5, [r0, #32]
ARM GAS  C:\Users\gyoku\AppData\Local\Temp\ccpDhDV6.s 			page 51


 3002 005a 8769     		ldr	r7, [r0, #24]
 3003 005c D0F820E0 		ldr	lr, [r0, #32]
 3004 0060 27F4407C 		bic	ip, r7, #768
 3005 0064 1D03     		lsls	r5, r3, #12
 3006 0066 4CEA022C 		orr	ip, ip, r2, lsl #8
 3007 006a 0901     		lsls	r1, r1, #4
 3008 006c 2CF4704C 		bic	ip, ip, #61440
 3009 0070 ADB2     		uxth	r5, r5
 3010 0072 2EF0A00E 		bic	lr, lr, #160
 3011 0076 01F0A001 		and	r1, r1, #160
 3012 007a 45EA0C05 		orr	r5, r5, ip
 3013 007e 41EA0E01 		orr	r1, r1, lr
 3014 0082 8561     		str	r5, [r0, #24]
 3015 0084 0162     		str	r1, [r0, #32]
 3016 0086 8369     		ldr	r3, [r0, #24]
 3017 0088 23F44063 		bic	r3, r3, #3072
 3018 008c 8361     		str	r3, [r0, #24]
 3019 008e 8369     		ldr	r3, [r0, #24]
 3020 0090 43EA0626 		orr	r6, r3, r6, lsl #8
 3021 0094 8661     		str	r6, [r0, #24]
 3022 0096 D2E7     		b	.L382
 3023              	.L383:
 3024 0098 082D     		cmp	r5, #8
 3025 009a 056A     		ldr	r5, [r0, #32]
 3026 009c 1CD1     		bne	.L384
 3027 009e 25F48075 		bic	r5, r5, #256
 3028 00a2 0562     		str	r5, [r0, #32]
 3029 00a4 C769     		ldr	r7, [r0, #28]
 3030 00a6 056A     		ldr	r5, [r0, #32]
 3031 00a8 27F00307 		bic	r7, r7, #3
 3032 00ac 1743     		orrs	r7, r7, r2
 3033 00ae 1B01     		lsls	r3, r3, #4
 3034 00b0 0902     		lsls	r1, r1, #8
 3035 00b2 DBB2     		uxtb	r3, r3
 3036 00b4 27F0F007 		bic	r7, r7, #240
 3037 00b8 25F42065 		bic	r5, r5, #2560
 3038 00bc 01F42061 		and	r1, r1, #2560
 3039 00c0 1F43     		orrs	r7, r7, r3
 3040 00c2 2943     		orrs	r1, r1, r5
 3041 00c4 C761     		str	r7, [r0, #28]
 3042 00c6 0162     		str	r1, [r0, #32]
 3043 00c8 C369     		ldr	r3, [r0, #28]
 3044 00ca 23F00C03 		bic	r3, r3, #12
 3045 00ce C361     		str	r3, [r0, #28]
 3046 00d0 C369     		ldr	r3, [r0, #28]
 3047 00d2 1E43     		orrs	r6, r6, r3
 3048              	.L386:
 3049 00d4 C661     		str	r6, [r0, #28]
 3050 00d6 B2E7     		b	.L382
 3051              	.L384:
 3052 00d8 25F48055 		bic	r5, r5, #4096
 3053 00dc 0562     		str	r5, [r0, #32]
 3054 00de C569     		ldr	r5, [r0, #28]
 3055 00e0 076A     		ldr	r7, [r0, #32]
 3056 00e2 25F44075 		bic	r5, r5, #768
 3057 00e6 45EA0225 		orr	r5, r5, r2, lsl #8
 3058 00ea 1B03     		lsls	r3, r3, #12
ARM GAS  C:\Users\gyoku\AppData\Local\Temp\ccpDhDV6.s 			page 52


 3059 00ec 0903     		lsls	r1, r1, #12
 3060 00ee 25F47045 		bic	r5, r5, #61440
 3061 00f2 9BB2     		uxth	r3, r3
 3062 00f4 27F42047 		bic	r7, r7, #40960
 3063 00f8 01F42041 		and	r1, r1, #40960
 3064 00fc 2B43     		orrs	r3, r3, r5
 3065 00fe 3943     		orrs	r1, r1, r7
 3066 0100 C361     		str	r3, [r0, #28]
 3067 0102 0162     		str	r1, [r0, #32]
 3068 0104 C369     		ldr	r3, [r0, #28]
 3069 0106 23F44063 		bic	r3, r3, #3072
 3070 010a C361     		str	r3, [r0, #28]
 3071 010c C369     		ldr	r3, [r0, #28]
 3072 010e 43EA0626 		orr	r6, r3, r6, lsl #8
 3073 0112 DFE7     		b	.L386
 3075              		.section	.text.HAL_TIM_OnePulse_ConfigChannel,"ax",%progbits
 3076              		.align	1
 3077              		.global	HAL_TIM_OnePulse_ConfigChannel
 3078              		.syntax unified
 3079              		.thumb
 3080              		.thumb_func
 3081              		.fpu fpv4-sp-d16
 3083              	HAL_TIM_OnePulse_ConfigChannel:
 3084              		@ args = 0, pretend = 0, frame = 32
 3085              		@ frame_needed = 0, uses_anonymous_args = 0
 3086 0000 70B5     		push	{r4, r5, r6, lr}
 3087 0002 9A42     		cmp	r2, r3
 3088 0004 88B0     		sub	sp, sp, #32
 3089 0006 0546     		mov	r5, r0
 3090 0008 0C46     		mov	r4, r1
 3091 000a 1E46     		mov	r6, r3
 3092 000c 73D0     		beq	.L395
 3093 000e 90F83C30 		ldrb	r3, [r0, #60]	@ zero_extendqisi2
 3094 0012 012B     		cmp	r3, #1
 3095 0014 4FF00200 		mov	r0, #2
 3096 0018 1CD0     		beq	.L388
 3097 001a 0123     		movs	r3, #1
 3098 001c 85F83C30 		strb	r3, [r5, #60]
 3099 0020 0B68     		ldr	r3, [r1]
 3100 0022 0193     		str	r3, [sp, #4]
 3101 0024 4B68     		ldr	r3, [r1, #4]
 3102 0026 0293     		str	r3, [sp, #8]
 3103 0028 8B68     		ldr	r3, [r1, #8]
 3104 002a 0393     		str	r3, [sp, #12]
 3105 002c CB68     		ldr	r3, [r1, #12]
 3106 002e 0493     		str	r3, [sp, #16]
 3107 0030 0B69     		ldr	r3, [r1, #16]
 3108 0032 0693     		str	r3, [sp, #24]
 3109 0034 4B69     		ldr	r3, [r1, #20]
 3110 0036 85F83D00 		strb	r0, [r5, #61]
 3111 003a 0793     		str	r3, [sp, #28]
 3112 003c 62B1     		cbz	r2, .L389
 3113 003e 042A     		cmp	r2, #4
 3114 0040 0FD0     		beq	.L390
 3115              	.L391:
 3116 0042 9EB1     		cbz	r6, .L392
 3117 0044 042E     		cmp	r6, #4
ARM GAS  C:\Users\gyoku\AppData\Local\Temp\ccpDhDV6.s 			page 53


 3118 0046 2FD0     		beq	.L393
 3119              	.L394:
 3120 0048 0123     		movs	r3, #1
 3121 004a 0020     		movs	r0, #0
 3122 004c 85F83D30 		strb	r3, [r5, #61]
 3123 0050 85F83C00 		strb	r0, [r5, #60]
 3124              	.L388:
 3125 0054 08B0     		add	sp, sp, #32
 3126              		@ sp needed
 3127 0056 70BD     		pop	{r4, r5, r6, pc}
 3128              	.L389:
 3129 0058 01A9     		add	r1, sp, #4
 3130 005a 2868     		ldr	r0, [r5]
 3131 005c FFF7FEFF 		bl	TIM_OC1_SetConfig
 3132 0060 EFE7     		b	.L391
 3133              	.L390:
 3134 0062 01A9     		add	r1, sp, #4
 3135 0064 2868     		ldr	r0, [r5]
 3136 0066 FFF7FEFF 		bl	TIM_OC2_SetConfig
 3137 006a EAE7     		b	.L391
 3138              	.L392:
 3139 006c D4E90723 		ldrd	r2, r3, [r4, #28]
 3140 0070 A169     		ldr	r1, [r4, #24]
 3141 0072 2868     		ldr	r0, [r5]
 3142 0074 FFF7FEFF 		bl	TIM_TI1_SetConfig
 3143 0078 2B68     		ldr	r3, [r5]
 3144 007a 9A69     		ldr	r2, [r3, #24]
 3145 007c 22F00C02 		bic	r2, r2, #12
 3146 0080 9A61     		str	r2, [r3, #24]
 3147 0082 9A68     		ldr	r2, [r3, #8]
 3148 0084 22F07002 		bic	r2, r2, #112
 3149 0088 9A60     		str	r2, [r3, #8]
 3150 008a 9A68     		ldr	r2, [r3, #8]
 3151 008c 42F05002 		orr	r2, r2, #80
 3152              	.L397:
 3153 0090 9A60     		str	r2, [r3, #8]
 3154 0092 9A68     		ldr	r2, [r3, #8]
 3155 0094 22F48032 		bic	r2, r2, #65536
 3156 0098 22F00702 		bic	r2, r2, #7
 3157 009c 9A60     		str	r2, [r3, #8]
 3158 009e 9A68     		ldr	r2, [r3, #8]
 3159 00a0 42F00602 		orr	r2, r2, #6
 3160 00a4 9A60     		str	r2, [r3, #8]
 3161 00a6 CFE7     		b	.L394
 3162              	.L393:
 3163 00a8 2B68     		ldr	r3, [r5]
 3164 00aa 216A     		ldr	r1, [r4, #32]
 3165 00ac D4E90626 		ldrd	r2, r6, [r4, #24]
 3166 00b0 1C6A     		ldr	r4, [r3, #32]
 3167 00b2 24F01004 		bic	r4, r4, #16
 3168 00b6 1C62     		str	r4, [r3, #32]
 3169 00b8 9869     		ldr	r0, [r3, #24]
 3170 00ba 1C6A     		ldr	r4, [r3, #32]
 3171 00bc 20F44070 		bic	r0, r0, #768
 3172 00c0 40EA0620 		orr	r0, r0, r6, lsl #8
 3173 00c4 0903     		lsls	r1, r1, #12
 3174 00c6 20F47040 		bic	r0, r0, #61440
ARM GAS  C:\Users\gyoku\AppData\Local\Temp\ccpDhDV6.s 			page 54


 3175 00ca 89B2     		uxth	r1, r1
 3176 00cc 1201     		lsls	r2, r2, #4
 3177 00ce 0143     		orrs	r1, r1, r0
 3178 00d0 02F0A002 		and	r2, r2, #160
 3179 00d4 24F0A000 		bic	r0, r4, #160
 3180 00d8 0243     		orrs	r2, r2, r0
 3181 00da 9961     		str	r1, [r3, #24]
 3182 00dc 1A62     		str	r2, [r3, #32]
 3183 00de 9A69     		ldr	r2, [r3, #24]
 3184 00e0 22F44062 		bic	r2, r2, #3072
 3185 00e4 9A61     		str	r2, [r3, #24]
 3186 00e6 9A68     		ldr	r2, [r3, #8]
 3187 00e8 22F07002 		bic	r2, r2, #112
 3188 00ec 9A60     		str	r2, [r3, #8]
 3189 00ee 9A68     		ldr	r2, [r3, #8]
 3190 00f0 42F06002 		orr	r2, r2, #96
 3191 00f4 CCE7     		b	.L397
 3192              	.L395:
 3193 00f6 0120     		movs	r0, #1
 3194 00f8 ACE7     		b	.L388
 3196              		.section	.text.TIM_ETR_SetConfig,"ax",%progbits
 3197              		.align	1
 3198              		.global	TIM_ETR_SetConfig
 3199              		.syntax unified
 3200              		.thumb
 3201              		.thumb_func
 3202              		.fpu fpv4-sp-d16
 3204              	TIM_ETR_SetConfig:
 3205              		@ args = 0, pretend = 0, frame = 0
 3206              		@ frame_needed = 0, uses_anonymous_args = 0
 3207 0000 10B5     		push	{r4, lr}
 3208 0002 8468     		ldr	r4, [r0, #8]
 3209 0004 0A43     		orrs	r2, r2, r1
 3210 0006 24F47F44 		bic	r4, r4, #65280
 3211 000a 42EA0323 		orr	r3, r2, r3, lsl #8
 3212 000e 2343     		orrs	r3, r3, r4
 3213 0010 8360     		str	r3, [r0, #8]
 3214 0012 10BD     		pop	{r4, pc}
 3216              		.section	.text.HAL_TIM_ConfigOCrefClear,"ax",%progbits
 3217              		.align	1
 3218              		.weak	HAL_TIM_ConfigOCrefClear
 3219              		.syntax unified
 3220              		.thumb
 3221              		.thumb_func
 3222              		.fpu fpv4-sp-d16
 3224              	HAL_TIM_ConfigOCrefClear:
 3225              		@ args = 0, pretend = 0, frame = 0
 3226              		@ frame_needed = 0, uses_anonymous_args = 0
 3227 0000 90F83C30 		ldrb	r3, [r0, #60]	@ zero_extendqisi2
 3228 0004 012B     		cmp	r3, #1
 3229 0006 70B5     		push	{r4, r5, r6, lr}
 3230 0008 0446     		mov	r4, r0
 3231 000a 0D46     		mov	r5, r1
 3232 000c 1646     		mov	r6, r2
 3233 000e 4FF00200 		mov	r0, #2
 3234 0012 25D0     		beq	.L400
 3235 0014 0123     		movs	r3, #1
ARM GAS  C:\Users\gyoku\AppData\Local\Temp\ccpDhDV6.s 			page 55


 3236 0016 84F83C30 		strb	r3, [r4, #60]
 3237 001a 4B68     		ldr	r3, [r1, #4]
 3238 001c 84F83D00 		strb	r0, [r4, #61]
 3239 0020 012B     		cmp	r3, #1
 3240 0022 05D1     		bne	.L401
 3241 0024 0B69     		ldr	r3, [r1, #16]
 3242 0026 2068     		ldr	r0, [r4]
 3243 0028 D1E90221 		ldrd	r2, r1, [r1, #8]
 3244 002c FFF7FEFF 		bl	TIM_ETR_SetConfig
 3245              	.L401:
 3246 0030 0C2E     		cmp	r6, #12
 3247 0032 0FD8     		bhi	.L402
 3248 0034 DFE806F0 		tbb	[pc, r6]
 3249              	.L404:
 3250 0038 07       		.byte	(.L407-.L404)/2
 3251 0039 0E       		.byte	(.L402-.L404)/2
 3252 003a 0E       		.byte	(.L402-.L404)/2
 3253 003b 0E       		.byte	(.L402-.L404)/2
 3254 003c 19       		.byte	(.L406-.L404)/2
 3255 003d 0E       		.byte	(.L402-.L404)/2
 3256 003e 0E       		.byte	(.L402-.L404)/2
 3257 003f 0E       		.byte	(.L402-.L404)/2
 3258 0040 24       		.byte	(.L405-.L404)/2
 3259 0041 0E       		.byte	(.L402-.L404)/2
 3260 0042 0E       		.byte	(.L402-.L404)/2
 3261 0043 0E       		.byte	(.L402-.L404)/2
 3262 0044 30       		.byte	(.L403-.L404)/2
 3263 0045 00       		.p2align 1
 3264              	.L407:
 3265 0046 2A68     		ldr	r2, [r5]
 3266 0048 2368     		ldr	r3, [r4]
 3267 004a 52B1     		cbz	r2, .L408
 3268 004c 9A69     		ldr	r2, [r3, #24]
 3269 004e 42F08002 		orr	r2, r2, #128
 3270              	.L413:
 3271 0052 9A61     		str	r2, [r3, #24]
 3272              	.L402:
 3273 0054 0123     		movs	r3, #1
 3274 0056 0020     		movs	r0, #0
 3275 0058 84F83D30 		strb	r3, [r4, #61]
 3276 005c 84F83C00 		strb	r0, [r4, #60]
 3277              	.L400:
 3278 0060 70BD     		pop	{r4, r5, r6, pc}
 3279              	.L408:
 3280 0062 9A69     		ldr	r2, [r3, #24]
 3281 0064 22F08002 		bic	r2, r2, #128
 3282 0068 F3E7     		b	.L413
 3283              	.L406:
 3284 006a 2A68     		ldr	r2, [r5]
 3285 006c 2368     		ldr	r3, [r4]
 3286 006e 1AB1     		cbz	r2, .L409
 3287 0070 9A69     		ldr	r2, [r3, #24]
 3288 0072 42F40042 		orr	r2, r2, #32768
 3289 0076 ECE7     		b	.L413
 3290              	.L409:
 3291 0078 9A69     		ldr	r2, [r3, #24]
 3292 007a 22F40042 		bic	r2, r2, #32768
ARM GAS  C:\Users\gyoku\AppData\Local\Temp\ccpDhDV6.s 			page 56


 3293 007e E8E7     		b	.L413
 3294              	.L405:
 3295 0080 2A68     		ldr	r2, [r5]
 3296 0082 2368     		ldr	r3, [r4]
 3297 0084 22B1     		cbz	r2, .L410
 3298 0086 DA69     		ldr	r2, [r3, #28]
 3299 0088 42F08002 		orr	r2, r2, #128
 3300              	.L414:
 3301 008c DA61     		str	r2, [r3, #28]
 3302 008e E1E7     		b	.L402
 3303              	.L410:
 3304 0090 DA69     		ldr	r2, [r3, #28]
 3305 0092 22F08002 		bic	r2, r2, #128
 3306 0096 F9E7     		b	.L414
 3307              	.L403:
 3308 0098 2A68     		ldr	r2, [r5]
 3309 009a 2368     		ldr	r3, [r4]
 3310 009c 1AB1     		cbz	r2, .L411
 3311 009e DA69     		ldr	r2, [r3, #28]
 3312 00a0 42F40042 		orr	r2, r2, #32768
 3313 00a4 F2E7     		b	.L414
 3314              	.L411:
 3315 00a6 DA69     		ldr	r2, [r3, #28]
 3316 00a8 22F40042 		bic	r2, r2, #32768
 3317 00ac EEE7     		b	.L414
 3319              		.section	.text.HAL_TIM_ConfigClockSource,"ax",%progbits
 3320              		.align	1
 3321              		.global	HAL_TIM_ConfigClockSource
 3322              		.syntax unified
 3323              		.thumb
 3324              		.thumb_func
 3325              		.fpu fpv4-sp-d16
 3327              	HAL_TIM_ConfigClockSource:
 3328              		@ args = 0, pretend = 0, frame = 0
 3329              		@ frame_needed = 0, uses_anonymous_args = 0
 3330 0000 90F83C30 		ldrb	r3, [r0, #60]	@ zero_extendqisi2
 3331 0004 012B     		cmp	r3, #1
 3332 0006 70B5     		push	{r4, r5, r6, lr}
 3333 0008 0446     		mov	r4, r0
 3334 000a 4FF00200 		mov	r0, #2
 3335 000e 1AD0     		beq	.L416
 3336 0010 84F83D00 		strb	r0, [r4, #61]
 3337 0014 2068     		ldr	r0, [r4]
 3338 0016 0123     		movs	r3, #1
 3339 0018 84F83C30 		strb	r3, [r4, #60]
 3340 001c 8268     		ldr	r2, [r0, #8]
 3341 001e 524B     		ldr	r3, .L434
 3342 0020 1340     		ands	r3, r3, r2
 3343 0022 8360     		str	r3, [r0, #8]
 3344 0024 0B68     		ldr	r3, [r1]
 3345 0026 402B     		cmp	r3, #64
 3346 0028 75D0     		beq	.L417
 3347 002a 18D8     		bhi	.L418
 3348 002c 102B     		cmp	r3, #16
 3349 002e 00F08F80 		beq	.L419
 3350 0032 09D8     		bhi	.L420
 3351 0034 002B     		cmp	r3, #0
ARM GAS  C:\Users\gyoku\AppData\Local\Temp\ccpDhDV6.s 			page 57


 3352 0036 00F08580 		beq	.L421
 3353              	.L422:
 3354 003a 0123     		movs	r3, #1
 3355 003c 0020     		movs	r0, #0
 3356 003e 84F83D30 		strb	r3, [r4, #61]
 3357 0042 84F83C00 		strb	r0, [r4, #60]
 3358              	.L416:
 3359 0046 70BD     		pop	{r4, r5, r6, pc}
 3360              	.L420:
 3361 0048 202B     		cmp	r3, #32
 3362 004a 00F08780 		beq	.L423
 3363 004e 302B     		cmp	r3, #48
 3364 0050 F3D1     		bne	.L422
 3365 0052 8368     		ldr	r3, [r0, #8]
 3366 0054 23F07003 		bic	r3, r3, #112
 3367 0058 43F03703 		orr	r3, r3, #55
 3368 005c 33E0     		b	.L432
 3369              	.L418:
 3370 005e 702B     		cmp	r3, #112
 3371 0060 33D0     		beq	.L425
 3372 0062 1BD8     		bhi	.L426
 3373 0064 502B     		cmp	r3, #80
 3374 0066 3FD0     		beq	.L427
 3375 0068 602B     		cmp	r3, #96
 3376 006a E6D1     		bne	.L422
 3377 006c 4D68     		ldr	r5, [r1, #4]
 3378 006e CE68     		ldr	r6, [r1, #12]
 3379 0070 016A     		ldr	r1, [r0, #32]
 3380 0072 21F01001 		bic	r1, r1, #16
 3381 0076 0162     		str	r1, [r0, #32]
 3382 0078 8269     		ldr	r2, [r0, #24]
 3383 007a 036A     		ldr	r3, [r0, #32]
 3384 007c 22F47042 		bic	r2, r2, #61440
 3385 0080 23F0A003 		bic	r3, r3, #160
 3386 0084 43EA0513 		orr	r3, r3, r5, lsl #4
 3387 0088 42EA0632 		orr	r2, r2, r6, lsl #12
 3388 008c 8261     		str	r2, [r0, #24]
 3389 008e 0362     		str	r3, [r0, #32]
 3390 0090 8368     		ldr	r3, [r0, #8]
 3391 0092 23F07003 		bic	r3, r3, #112
 3392 0096 43F06703 		orr	r3, r3, #103
 3393 009a 14E0     		b	.L432
 3394              	.L426:
 3395 009c B3F5805F 		cmp	r3, #4096
 3396 00a0 0CD0     		beq	.L429
 3397 00a2 B3F5005F 		cmp	r3, #8192
 3398 00a6 C8D1     		bne	.L422
 3399 00a8 CB68     		ldr	r3, [r1, #12]
 3400 00aa D1E90121 		ldrd	r2, r1, [r1, #4]
 3401 00ae FFF7FEFF 		bl	TIM_ETR_SetConfig
 3402 00b2 2268     		ldr	r2, [r4]
 3403 00b4 9368     		ldr	r3, [r2, #8]
 3404 00b6 43F48043 		orr	r3, r3, #16384
 3405 00ba 13E0     		b	.L433
 3406              	.L429:
 3407 00bc 8368     		ldr	r3, [r0, #8]
 3408 00be 23F48033 		bic	r3, r3, #65536
ARM GAS  C:\Users\gyoku\AppData\Local\Temp\ccpDhDV6.s 			page 58


 3409 00c2 23F00703 		bic	r3, r3, #7
 3410              	.L432:
 3411 00c6 8360     		str	r3, [r0, #8]
 3412 00c8 B7E7     		b	.L422
 3413              	.L425:
 3414 00ca CB68     		ldr	r3, [r1, #12]
 3415 00cc D1E90121 		ldrd	r2, r1, [r1, #4]
 3416 00d0 FFF7FEFF 		bl	TIM_ETR_SetConfig
 3417 00d4 2268     		ldr	r2, [r4]
 3418 00d6 9368     		ldr	r3, [r2, #8]
 3419 00d8 23F48033 		bic	r3, r3, #65536
 3420 00dc 23F07703 		bic	r3, r3, #119
 3421 00e0 43F07703 		orr	r3, r3, #119
 3422              	.L433:
 3423 00e4 9360     		str	r3, [r2, #8]
 3424 00e6 A8E7     		b	.L422
 3425              	.L427:
 3426 00e8 4A68     		ldr	r2, [r1, #4]
 3427 00ea CE68     		ldr	r6, [r1, #12]
 3428 00ec 016A     		ldr	r1, [r0, #32]
 3429 00ee 056A     		ldr	r5, [r0, #32]
 3430 00f0 25F00105 		bic	r5, r5, #1
 3431 00f4 0562     		str	r5, [r0, #32]
 3432 00f6 8369     		ldr	r3, [r0, #24]
 3433 00f8 21F00A01 		bic	r1, r1, #10
 3434 00fc 23F0F003 		bic	r3, r3, #240
 3435 0100 43EA0613 		orr	r3, r3, r6, lsl #4
 3436 0104 0A43     		orrs	r2, r2, r1
 3437 0106 8361     		str	r3, [r0, #24]
 3438 0108 0262     		str	r2, [r0, #32]
 3439 010a 8368     		ldr	r3, [r0, #8]
 3440 010c 23F07003 		bic	r3, r3, #112
 3441 0110 43F05703 		orr	r3, r3, #87
 3442 0114 D7E7     		b	.L432
 3443              	.L417:
 3444 0116 4A68     		ldr	r2, [r1, #4]
 3445 0118 CE68     		ldr	r6, [r1, #12]
 3446 011a 016A     		ldr	r1, [r0, #32]
 3447 011c 056A     		ldr	r5, [r0, #32]
 3448 011e 25F00105 		bic	r5, r5, #1
 3449 0122 0562     		str	r5, [r0, #32]
 3450 0124 8369     		ldr	r3, [r0, #24]
 3451 0126 21F00A01 		bic	r1, r1, #10
 3452 012a 23F0F003 		bic	r3, r3, #240
 3453 012e 43EA0613 		orr	r3, r3, r6, lsl #4
 3454 0132 0A43     		orrs	r2, r2, r1
 3455 0134 8361     		str	r3, [r0, #24]
 3456 0136 0262     		str	r2, [r0, #32]
 3457 0138 8368     		ldr	r3, [r0, #8]
 3458 013a 23F07003 		bic	r3, r3, #112
 3459 013e 43F04703 		orr	r3, r3, #71
 3460 0142 C0E7     		b	.L432
 3461              	.L421:
 3462 0144 8368     		ldr	r3, [r0, #8]
 3463 0146 23F07003 		bic	r3, r3, #112
 3464 014a 43F00703 		orr	r3, r3, #7
 3465 014e BAE7     		b	.L432
ARM GAS  C:\Users\gyoku\AppData\Local\Temp\ccpDhDV6.s 			page 59


 3466              	.L419:
 3467 0150 8368     		ldr	r3, [r0, #8]
 3468 0152 23F07003 		bic	r3, r3, #112
 3469 0156 43F01703 		orr	r3, r3, #23
 3470 015a B4E7     		b	.L432
 3471              	.L423:
 3472 015c 8368     		ldr	r3, [r0, #8]
 3473 015e 23F07003 		bic	r3, r3, #112
 3474 0162 43F02703 		orr	r3, r3, #39
 3475 0166 AEE7     		b	.L432
 3476              	.L435:
 3477              		.align	2
 3478              	.L434:
 3479 0168 8800FEFF 		.word	-130936
 3481              		.section	.text.TIM_SlaveTimer_SetConfig,"ax",%progbits
 3482              		.align	1
 3483              		.syntax unified
 3484              		.thumb
 3485              		.thumb_func
 3486              		.fpu fpv4-sp-d16
 3488              	TIM_SlaveTimer_SetConfig:
 3489              		@ args = 0, pretend = 0, frame = 0
 3490              		@ frame_needed = 0, uses_anonymous_args = 0
 3491              		@ link register save eliminated.
 3492 0000 0068     		ldr	r0, [r0]
 3493 0002 4A68     		ldr	r2, [r1, #4]
 3494 0004 8368     		ldr	r3, [r0, #8]
 3495 0006 23F07003 		bic	r3, r3, #112
 3496 000a 1343     		orrs	r3, r3, r2
 3497 000c 30B4     		push	{r4, r5}
 3498 000e 23F48033 		bic	r3, r3, #65536
 3499 0012 0C68     		ldr	r4, [r1]
 3500 0014 23F00703 		bic	r3, r3, #7
 3501 0018 2343     		orrs	r3, r3, r4
 3502 001a 502A     		cmp	r2, #80
 3503 001c 8360     		str	r3, [r0, #8]
 3504 001e 1CD0     		beq	.L437
 3505 0020 03D8     		bhi	.L438
 3506 0022 402A     		cmp	r2, #64
 3507 0024 0BD0     		beq	.L439
 3508              	.L436:
 3509 0026 30BC     		pop	{r4, r5}
 3510 0028 7047     		bx	lr
 3511              	.L438:
 3512 002a 602A     		cmp	r2, #96
 3513 002c 25D0     		beq	.L441
 3514 002e 702A     		cmp	r2, #112
 3515 0030 F9D1     		bne	.L436
 3516 0032 0B69     		ldr	r3, [r1, #16]
 3517 0034 30BC     		pop	{r4, r5}
 3518 0036 D1E90221 		ldrd	r2, r1, [r1, #8]
 3519 003a FFF7FEBF 		b	TIM_ETR_SetConfig
 3520              	.L439:
 3521 003e 026A     		ldr	r2, [r0, #32]
 3522 0040 036A     		ldr	r3, [r0, #32]
 3523 0042 0969     		ldr	r1, [r1, #16]
 3524 0044 23F00103 		bic	r3, r3, #1
ARM GAS  C:\Users\gyoku\AppData\Local\Temp\ccpDhDV6.s 			page 60


 3525 0048 0362     		str	r3, [r0, #32]
 3526 004a 8369     		ldr	r3, [r0, #24]
 3527 004c 23F0F003 		bic	r3, r3, #240
 3528 0050 43EA0113 		orr	r3, r3, r1, lsl #4
 3529              	.L442:
 3530 0054 8361     		str	r3, [r0, #24]
 3531 0056 0262     		str	r2, [r0, #32]
 3532 0058 E5E7     		b	.L436
 3533              	.L437:
 3534 005a 8A68     		ldr	r2, [r1, #8]
 3535 005c 0D69     		ldr	r5, [r1, #16]
 3536 005e 016A     		ldr	r1, [r0, #32]
 3537 0060 046A     		ldr	r4, [r0, #32]
 3538 0062 24F00104 		bic	r4, r4, #1
 3539 0066 0462     		str	r4, [r0, #32]
 3540 0068 8369     		ldr	r3, [r0, #24]
 3541 006a 21F00A01 		bic	r1, r1, #10
 3542 006e 23F0F003 		bic	r3, r3, #240
 3543 0072 43EA0513 		orr	r3, r3, r5, lsl #4
 3544 0076 0A43     		orrs	r2, r2, r1
 3545 0078 ECE7     		b	.L442
 3546              	.L441:
 3547 007a 8C68     		ldr	r4, [r1, #8]
 3548 007c 0D69     		ldr	r5, [r1, #16]
 3549 007e 016A     		ldr	r1, [r0, #32]
 3550 0080 21F01001 		bic	r1, r1, #16
 3551 0084 0162     		str	r1, [r0, #32]
 3552 0086 8269     		ldr	r2, [r0, #24]
 3553 0088 036A     		ldr	r3, [r0, #32]
 3554 008a 22F47042 		bic	r2, r2, #61440
 3555 008e 23F0A003 		bic	r3, r3, #160
 3556 0092 42EA0532 		orr	r2, r2, r5, lsl #12
 3557 0096 43EA0413 		orr	r3, r3, r4, lsl #4
 3558 009a 8261     		str	r2, [r0, #24]
 3559 009c 0362     		str	r3, [r0, #32]
 3560 009e C2E7     		b	.L436
 3562              		.section	.text.HAL_TIM_SlaveConfigSynchronization,"ax",%progbits
 3563              		.align	1
 3564              		.global	HAL_TIM_SlaveConfigSynchronization
 3565              		.syntax unified
 3566              		.thumb
 3567              		.thumb_func
 3568              		.fpu fpv4-sp-d16
 3570              	HAL_TIM_SlaveConfigSynchronization:
 3571              		@ args = 0, pretend = 0, frame = 0
 3572              		@ frame_needed = 0, uses_anonymous_args = 0
 3573 0000 38B5     		push	{r3, r4, r5, lr}
 3574 0002 90F83C30 		ldrb	r3, [r0, #60]	@ zero_extendqisi2
 3575 0006 012B     		cmp	r3, #1
 3576 0008 0446     		mov	r4, r0
 3577 000a 4FF00203 		mov	r3, #2
 3578 000e 15D0     		beq	.L445
 3579 0010 0125     		movs	r5, #1
 3580 0012 80F83D30 		strb	r3, [r0, #61]
 3581 0016 80F83C50 		strb	r5, [r0, #60]
 3582 001a FFF7FEFF 		bl	TIM_SlaveTimer_SetConfig
 3583 001e 2368     		ldr	r3, [r4]
ARM GAS  C:\Users\gyoku\AppData\Local\Temp\ccpDhDV6.s 			page 61


 3584 0020 DA68     		ldr	r2, [r3, #12]
 3585 0022 22F04002 		bic	r2, r2, #64
 3586 0026 DA60     		str	r2, [r3, #12]
 3587 0028 DA68     		ldr	r2, [r3, #12]
 3588 002a 0020     		movs	r0, #0
 3589 002c 22F48042 		bic	r2, r2, #16384
 3590 0030 DA60     		str	r2, [r3, #12]
 3591 0032 84F83D50 		strb	r5, [r4, #61]
 3592 0036 84F83C00 		strb	r0, [r4, #60]
 3593              	.L444:
 3594 003a 38BD     		pop	{r3, r4, r5, pc}
 3595              	.L445:
 3596 003c 1846     		mov	r0, r3
 3597 003e FCE7     		b	.L444
 3599              		.section	.text.HAL_TIM_SlaveConfigSynchronization_IT,"ax",%progbits
 3600              		.align	1
 3601              		.global	HAL_TIM_SlaveConfigSynchronization_IT
 3602              		.syntax unified
 3603              		.thumb
 3604              		.thumb_func
 3605              		.fpu fpv4-sp-d16
 3607              	HAL_TIM_SlaveConfigSynchronization_IT:
 3608              		@ args = 0, pretend = 0, frame = 0
 3609              		@ frame_needed = 0, uses_anonymous_args = 0
 3610 0000 38B5     		push	{r3, r4, r5, lr}
 3611 0002 90F83C30 		ldrb	r3, [r0, #60]	@ zero_extendqisi2
 3612 0006 012B     		cmp	r3, #1
 3613 0008 0446     		mov	r4, r0
 3614 000a 4FF00203 		mov	r3, #2
 3615 000e 15D0     		beq	.L448
 3616 0010 0125     		movs	r5, #1
 3617 0012 80F83D30 		strb	r3, [r0, #61]
 3618 0016 80F83C50 		strb	r5, [r0, #60]
 3619 001a FFF7FEFF 		bl	TIM_SlaveTimer_SetConfig
 3620 001e 2368     		ldr	r3, [r4]
 3621 0020 DA68     		ldr	r2, [r3, #12]
 3622 0022 42F04002 		orr	r2, r2, #64
 3623 0026 DA60     		str	r2, [r3, #12]
 3624 0028 DA68     		ldr	r2, [r3, #12]
 3625 002a 0020     		movs	r0, #0
 3626 002c 22F48042 		bic	r2, r2, #16384
 3627 0030 DA60     		str	r2, [r3, #12]
 3628 0032 84F83D50 		strb	r5, [r4, #61]
 3629 0036 84F83C00 		strb	r0, [r4, #60]
 3630              	.L447:
 3631 003a 38BD     		pop	{r3, r4, r5, pc}
 3632              	.L448:
 3633 003c 1846     		mov	r0, r3
 3634 003e FCE7     		b	.L447
 3636              		.section	.text.TIM_CCxChannelCmd,"ax",%progbits
 3637              		.align	1
 3638              		.global	TIM_CCxChannelCmd
 3639              		.syntax unified
 3640              		.thumb
 3641              		.thumb_func
 3642              		.fpu fpv4-sp-d16
 3644              	TIM_CCxChannelCmd:
ARM GAS  C:\Users\gyoku\AppData\Local\Temp\ccpDhDV6.s 			page 62


 3645              		@ args = 0, pretend = 0, frame = 0
 3646              		@ frame_needed = 0, uses_anonymous_args = 0
 3647 0000 036A     		ldr	r3, [r0, #32]
 3648 0002 10B5     		push	{r4, lr}
 3649 0004 0124     		movs	r4, #1
 3650 0006 8C40     		lsls	r4, r4, r1
 3651 0008 23EA0403 		bic	r3, r3, r4
 3652 000c 0362     		str	r3, [r0, #32]
 3653 000e 036A     		ldr	r3, [r0, #32]
 3654 0010 8A40     		lsls	r2, r2, r1
 3655 0012 1A43     		orrs	r2, r2, r3
 3656 0014 0262     		str	r2, [r0, #32]
 3657 0016 10BD     		pop	{r4, pc}
 3659              		.section	.text.HAL_TIM_OC_Start,"ax",%progbits
 3660              		.align	1
 3661              		.global	HAL_TIM_OC_Start
 3662              		.syntax unified
 3663              		.thumb
 3664              		.thumb_func
 3665              		.fpu fpv4-sp-d16
 3667              	HAL_TIM_OC_Start:
 3668              		@ args = 0, pretend = 0, frame = 0
 3669              		@ frame_needed = 0, uses_anonymous_args = 0
 3670 0000 10B5     		push	{r4, lr}
 3671 0002 0446     		mov	r4, r0
 3672 0004 0122     		movs	r2, #1
 3673 0006 0068     		ldr	r0, [r0]
 3674 0008 FFF7FEFF 		bl	TIM_CCxChannelCmd
 3675 000c 2368     		ldr	r3, [r4]
 3676 000e 0C4A     		ldr	r2, .L453
 3677 0010 9342     		cmp	r3, r2
 3678 0012 0BD0     		beq	.L451
 3679 0014 02F5A052 		add	r2, r2, #5120
 3680 0018 9342     		cmp	r3, r2
 3681 001a 07D0     		beq	.L451
 3682 001c 02F58062 		add	r2, r2, #1024
 3683 0020 9342     		cmp	r3, r2
 3684 0022 03D0     		beq	.L451
 3685 0024 02F58062 		add	r2, r2, #1024
 3686 0028 9342     		cmp	r3, r2
 3687 002a 03D1     		bne	.L452
 3688              	.L451:
 3689 002c 5A6C     		ldr	r2, [r3, #68]
 3690 002e 42F40042 		orr	r2, r2, #32768
 3691 0032 5A64     		str	r2, [r3, #68]
 3692              	.L452:
 3693 0034 1A68     		ldr	r2, [r3]
 3694 0036 42F00102 		orr	r2, r2, #1
 3695 003a 1A60     		str	r2, [r3]
 3696 003c 0020     		movs	r0, #0
 3697 003e 10BD     		pop	{r4, pc}
 3698              	.L454:
 3699              		.align	2
 3700              	.L453:
 3701 0040 002C0140 		.word	1073818624
 3703              		.section	.text.HAL_TIM_PWM_Start,"ax",%progbits
 3704              		.align	1
ARM GAS  C:\Users\gyoku\AppData\Local\Temp\ccpDhDV6.s 			page 63


 3705              		.global	HAL_TIM_PWM_Start
 3706              		.syntax unified
 3707              		.thumb
 3708              		.thumb_func
 3709              		.fpu fpv4-sp-d16
 3711              	HAL_TIM_PWM_Start:
 3712              		@ args = 0, pretend = 0, frame = 0
 3713              		@ frame_needed = 0, uses_anonymous_args = 0
 3714              		@ link register save eliminated.
 3715 0000 FFF7FEBF 		b	HAL_TIM_OC_Start
 3717              		.section	.text.HAL_TIM_OC_Stop,"ax",%progbits
 3718              		.align	1
 3719              		.global	HAL_TIM_OC_Stop
 3720              		.syntax unified
 3721              		.thumb
 3722              		.thumb_func
 3723              		.fpu fpv4-sp-d16
 3725              	HAL_TIM_OC_Stop:
 3726              		@ args = 0, pretend = 0, frame = 0
 3727              		@ frame_needed = 0, uses_anonymous_args = 0
 3728 0000 10B5     		push	{r4, lr}
 3729 0002 0446     		mov	r4, r0
 3730 0004 0022     		movs	r2, #0
 3731 0006 0068     		ldr	r0, [r0]
 3732 0008 FFF7FEFF 		bl	TIM_CCxChannelCmd
 3733 000c 2368     		ldr	r3, [r4]
 3734 000e 164A     		ldr	r2, .L460
 3735 0010 9342     		cmp	r3, r2
 3736 0012 0BD0     		beq	.L457
 3737 0014 02F5A052 		add	r2, r2, #5120
 3738 0018 9342     		cmp	r3, r2
 3739 001a 07D0     		beq	.L457
 3740 001c 02F58062 		add	r2, r2, #1024
 3741 0020 9342     		cmp	r3, r2
 3742 0022 03D0     		beq	.L457
 3743 0024 02F58062 		add	r2, r2, #1024
 3744 0028 9342     		cmp	r3, r2
 3745 002a 0DD1     		bne	.L458
 3746              	.L457:
 3747 002c 196A     		ldr	r1, [r3, #32]
 3748 002e 41F21112 		movw	r2, #4369
 3749 0032 1142     		tst	r1, r2
 3750 0034 08D1     		bne	.L458
 3751 0036 196A     		ldr	r1, [r3, #32]
 3752 0038 40F24442 		movw	r2, #1092
 3753 003c 1142     		tst	r1, r2
 3754 003e 02BF     		ittt	eq
 3755 0040 5A6C     		ldreq	r2, [r3, #68]
 3756 0042 22F40042 		biceq	r2, r2, #32768
 3757 0046 5A64     		streq	r2, [r3, #68]
 3758              	.L458:
 3759 0048 196A     		ldr	r1, [r3, #32]
 3760 004a 41F21112 		movw	r2, #4369
 3761 004e 1142     		tst	r1, r2
 3762 0050 08D1     		bne	.L459
 3763 0052 196A     		ldr	r1, [r3, #32]
 3764 0054 40F24442 		movw	r2, #1092
ARM GAS  C:\Users\gyoku\AppData\Local\Temp\ccpDhDV6.s 			page 64


 3765 0058 1142     		tst	r1, r2
 3766 005a 02BF     		ittt	eq
 3767 005c 1A68     		ldreq	r2, [r3]
 3768 005e 22F00102 		biceq	r2, r2, #1
 3769 0062 1A60     		streq	r2, [r3]
 3770              	.L459:
 3771 0064 0020     		movs	r0, #0
 3772 0066 10BD     		pop	{r4, pc}
 3773              	.L461:
 3774              		.align	2
 3775              	.L460:
 3776 0068 002C0140 		.word	1073818624
 3778              		.section	.text.HAL_TIM_OC_Start_IT,"ax",%progbits
 3779              		.align	1
 3780              		.global	HAL_TIM_OC_Start_IT
 3781              		.syntax unified
 3782              		.thumb
 3783              		.thumb_func
 3784              		.fpu fpv4-sp-d16
 3786              	HAL_TIM_OC_Start_IT:
 3787              		@ args = 0, pretend = 0, frame = 0
 3788              		@ frame_needed = 0, uses_anonymous_args = 0
 3789 0000 10B5     		push	{r4, lr}
 3790 0002 0446     		mov	r4, r0
 3791 0004 0068     		ldr	r0, [r0]
 3792 0006 0C29     		cmp	r1, #12
 3793 0008 0CD8     		bhi	.L463
 3794 000a DFE801F0 		tbb	[pc, r1]
 3795              	.L465:
 3796 000e 07       		.byte	(.L468-.L465)/2
 3797 000f 0B       		.byte	(.L463-.L465)/2
 3798 0010 0B       		.byte	(.L463-.L465)/2
 3799 0011 0B       		.byte	(.L463-.L465)/2
 3800 0012 28       		.byte	(.L467-.L465)/2
 3801 0013 0B       		.byte	(.L463-.L465)/2
 3802 0014 0B       		.byte	(.L463-.L465)/2
 3803 0015 0B       		.byte	(.L463-.L465)/2
 3804 0016 2C       		.byte	(.L466-.L465)/2
 3805 0017 0B       		.byte	(.L463-.L465)/2
 3806 0018 0B       		.byte	(.L463-.L465)/2
 3807 0019 0B       		.byte	(.L463-.L465)/2
 3808 001a 30       		.byte	(.L464-.L465)/2
 3809 001b 00       		.p2align 1
 3810              	.L468:
 3811 001c C368     		ldr	r3, [r0, #12]
 3812 001e 43F00203 		orr	r3, r3, #2
 3813              	.L471:
 3814 0022 C360     		str	r3, [r0, #12]
 3815              	.L463:
 3816 0024 0122     		movs	r2, #1
 3817 0026 FFF7FEFF 		bl	TIM_CCxChannelCmd
 3818 002a 2368     		ldr	r3, [r4]
 3819 002c 124A     		ldr	r2, .L472
 3820 002e 9342     		cmp	r3, r2
 3821 0030 0BD0     		beq	.L469
 3822 0032 02F5A052 		add	r2, r2, #5120
 3823 0036 9342     		cmp	r3, r2
ARM GAS  C:\Users\gyoku\AppData\Local\Temp\ccpDhDV6.s 			page 65


 3824 0038 07D0     		beq	.L469
 3825 003a 02F58062 		add	r2, r2, #1024
 3826 003e 9342     		cmp	r3, r2
 3827 0040 03D0     		beq	.L469
 3828 0042 02F58062 		add	r2, r2, #1024
 3829 0046 9342     		cmp	r3, r2
 3830 0048 03D1     		bne	.L470
 3831              	.L469:
 3832 004a 5A6C     		ldr	r2, [r3, #68]
 3833 004c 42F40042 		orr	r2, r2, #32768
 3834 0050 5A64     		str	r2, [r3, #68]
 3835              	.L470:
 3836 0052 1A68     		ldr	r2, [r3]
 3837 0054 42F00102 		orr	r2, r2, #1
 3838 0058 1A60     		str	r2, [r3]
 3839 005a 0020     		movs	r0, #0
 3840 005c 10BD     		pop	{r4, pc}
 3841              	.L467:
 3842 005e C368     		ldr	r3, [r0, #12]
 3843 0060 43F00403 		orr	r3, r3, #4
 3844 0064 DDE7     		b	.L471
 3845              	.L466:
 3846 0066 C368     		ldr	r3, [r0, #12]
 3847 0068 43F00803 		orr	r3, r3, #8
 3848 006c D9E7     		b	.L471
 3849              	.L464:
 3850 006e C368     		ldr	r3, [r0, #12]
 3851 0070 43F01003 		orr	r3, r3, #16
 3852 0074 D5E7     		b	.L471
 3853              	.L473:
 3854 0076 00BF     		.align	2
 3855              	.L472:
 3856 0078 002C0140 		.word	1073818624
 3858              		.section	.text.HAL_TIM_PWM_Start_IT,"ax",%progbits
 3859              		.align	1
 3860              		.global	HAL_TIM_PWM_Start_IT
 3861              		.syntax unified
 3862              		.thumb
 3863              		.thumb_func
 3864              		.fpu fpv4-sp-d16
 3866              	HAL_TIM_PWM_Start_IT:
 3867              		@ args = 0, pretend = 0, frame = 0
 3868              		@ frame_needed = 0, uses_anonymous_args = 0
 3869              		@ link register save eliminated.
 3870 0000 FFF7FEBF 		b	HAL_TIM_OC_Start_IT
 3872              		.section	.text.HAL_TIM_OC_Stop_IT,"ax",%progbits
 3873              		.align	1
 3874              		.global	HAL_TIM_OC_Stop_IT
 3875              		.syntax unified
 3876              		.thumb
 3877              		.thumb_func
 3878              		.fpu fpv4-sp-d16
 3880              	HAL_TIM_OC_Stop_IT:
 3881              		@ args = 0, pretend = 0, frame = 0
 3882              		@ frame_needed = 0, uses_anonymous_args = 0
 3883 0000 10B5     		push	{r4, lr}
 3884 0002 0446     		mov	r4, r0
ARM GAS  C:\Users\gyoku\AppData\Local\Temp\ccpDhDV6.s 			page 66


 3885 0004 0068     		ldr	r0, [r0]
 3886 0006 0C29     		cmp	r1, #12
 3887 0008 0CD8     		bhi	.L476
 3888 000a DFE801F0 		tbb	[pc, r1]
 3889              	.L478:
 3890 000e 07       		.byte	(.L481-.L478)/2
 3891 000f 0B       		.byte	(.L476-.L478)/2
 3892 0010 0B       		.byte	(.L476-.L478)/2
 3893 0011 0B       		.byte	(.L476-.L478)/2
 3894 0012 3C       		.byte	(.L480-.L478)/2
 3895 0013 0B       		.byte	(.L476-.L478)/2
 3896 0014 0B       		.byte	(.L476-.L478)/2
 3897 0015 0B       		.byte	(.L476-.L478)/2
 3898 0016 40       		.byte	(.L479-.L478)/2
 3899 0017 0B       		.byte	(.L476-.L478)/2
 3900 0018 0B       		.byte	(.L476-.L478)/2
 3901 0019 0B       		.byte	(.L476-.L478)/2
 3902 001a 44       		.byte	(.L477-.L478)/2
 3903 001b 00       		.p2align 1
 3904              	.L481:
 3905 001c C368     		ldr	r3, [r0, #12]
 3906 001e 23F00203 		bic	r3, r3, #2
 3907              	.L485:
 3908 0022 C360     		str	r3, [r0, #12]
 3909              	.L476:
 3910 0024 0022     		movs	r2, #0
 3911 0026 FFF7FEFF 		bl	TIM_CCxChannelCmd
 3912 002a 2368     		ldr	r3, [r4]
 3913 002c 1C4A     		ldr	r2, .L486
 3914 002e 9342     		cmp	r3, r2
 3915 0030 0BD0     		beq	.L482
 3916 0032 02F5A052 		add	r2, r2, #5120
 3917 0036 9342     		cmp	r3, r2
 3918 0038 07D0     		beq	.L482
 3919 003a 02F58062 		add	r2, r2, #1024
 3920 003e 9342     		cmp	r3, r2
 3921 0040 03D0     		beq	.L482
 3922 0042 02F58062 		add	r2, r2, #1024
 3923 0046 9342     		cmp	r3, r2
 3924 0048 0DD1     		bne	.L483
 3925              	.L482:
 3926 004a 196A     		ldr	r1, [r3, #32]
 3927 004c 41F21112 		movw	r2, #4369
 3928 0050 1142     		tst	r1, r2
 3929 0052 08D1     		bne	.L483
 3930 0054 196A     		ldr	r1, [r3, #32]
 3931 0056 40F24442 		movw	r2, #1092
 3932 005a 1142     		tst	r1, r2
 3933 005c 02BF     		ittt	eq
 3934 005e 5A6C     		ldreq	r2, [r3, #68]
 3935 0060 22F40042 		biceq	r2, r2, #32768
 3936 0064 5A64     		streq	r2, [r3, #68]
 3937              	.L483:
 3938 0066 196A     		ldr	r1, [r3, #32]
 3939 0068 41F21112 		movw	r2, #4369
 3940 006c 1142     		tst	r1, r2
 3941 006e 08D1     		bne	.L484
ARM GAS  C:\Users\gyoku\AppData\Local\Temp\ccpDhDV6.s 			page 67


 3942 0070 196A     		ldr	r1, [r3, #32]
 3943 0072 40F24442 		movw	r2, #1092
 3944 0076 1142     		tst	r1, r2
 3945 0078 02BF     		ittt	eq
 3946 007a 1A68     		ldreq	r2, [r3]
 3947 007c 22F00102 		biceq	r2, r2, #1
 3948 0080 1A60     		streq	r2, [r3]
 3949              	.L484:
 3950 0082 0020     		movs	r0, #0
 3951 0084 10BD     		pop	{r4, pc}
 3952              	.L480:
 3953 0086 C368     		ldr	r3, [r0, #12]
 3954 0088 23F00403 		bic	r3, r3, #4
 3955 008c C9E7     		b	.L485
 3956              	.L479:
 3957 008e C368     		ldr	r3, [r0, #12]
 3958 0090 23F00803 		bic	r3, r3, #8
 3959 0094 C5E7     		b	.L485
 3960              	.L477:
 3961 0096 C368     		ldr	r3, [r0, #12]
 3962 0098 23F01003 		bic	r3, r3, #16
 3963 009c C1E7     		b	.L485
 3964              	.L487:
 3965 009e 00BF     		.align	2
 3966              	.L486:
 3967 00a0 002C0140 		.word	1073818624
 3969              		.section	.text.HAL_TIM_PWM_Stop_IT,"ax",%progbits
 3970              		.align	1
 3971              		.global	HAL_TIM_PWM_Stop_IT
 3972              		.syntax unified
 3973              		.thumb
 3974              		.thumb_func
 3975              		.fpu fpv4-sp-d16
 3977              	HAL_TIM_PWM_Stop_IT:
 3978              		@ args = 0, pretend = 0, frame = 0
 3979              		@ frame_needed = 0, uses_anonymous_args = 0
 3980              		@ link register save eliminated.
 3981 0000 FFF7FEBF 		b	HAL_TIM_OC_Stop_IT
 3983              		.section	.text.HAL_TIM_OC_Start_DMA,"ax",%progbits
 3984              		.align	1
 3985              		.global	HAL_TIM_OC_Start_DMA
 3986              		.syntax unified
 3987              		.thumb
 3988              		.thumb_func
 3989              		.fpu fpv4-sp-d16
 3991              	HAL_TIM_OC_Start_DMA:
 3992              		@ args = 0, pretend = 0, frame = 0
 3993              		@ frame_needed = 0, uses_anonymous_args = 0
 3994 0000 70B5     		push	{r4, r5, r6, lr}
 3995 0002 0446     		mov	r4, r0
 3996 0004 90F83D00 		ldrb	r0, [r0, #61]	@ zero_extendqisi2
 3997 0008 C0B2     		uxtb	r0, r0
 3998 000a 0228     		cmp	r0, #2
 3999 000c 0D46     		mov	r5, r1
 4000 000e 1146     		mov	r1, r2
 4001 0010 41D0     		beq	.L490
 4002 0012 94F83D00 		ldrb	r0, [r4, #61]	@ zero_extendqisi2
ARM GAS  C:\Users\gyoku\AppData\Local\Temp\ccpDhDV6.s 			page 68


 4003 0016 C0B2     		uxtb	r0, r0
 4004 0018 0128     		cmp	r0, #1
 4005 001a 05D1     		bne	.L491
 4006 001c 0AB9     		cbnz	r2, .L492
 4007 001e 002B     		cmp	r3, #0
 4008 0020 39D1     		bne	.L490
 4009              	.L492:
 4010 0022 0222     		movs	r2, #2
 4011 0024 84F83D20 		strb	r2, [r4, #61]
 4012              	.L491:
 4013 0028 2268     		ldr	r2, [r4]
 4014 002a 0C2D     		cmp	r5, #12
 4015 002c 15D8     		bhi	.L493
 4016 002e DFE805F0 		tbb	[pc, r5]
 4017              	.L495:
 4018 0032 07       		.byte	(.L498-.L495)/2
 4019 0033 14       		.byte	(.L493-.L495)/2
 4020 0034 14       		.byte	(.L493-.L495)/2
 4021 0035 14       		.byte	(.L493-.L495)/2
 4022 0036 33       		.byte	(.L497-.L495)/2
 4023 0037 14       		.byte	(.L493-.L495)/2
 4024 0038 14       		.byte	(.L493-.L495)/2
 4025 0039 14       		.byte	(.L493-.L495)/2
 4026 003a 40       		.byte	(.L496-.L495)/2
 4027 003b 14       		.byte	(.L493-.L495)/2
 4028 003c 14       		.byte	(.L493-.L495)/2
 4029 003d 14       		.byte	(.L493-.L495)/2
 4030 003e 4D       		.byte	(.L494-.L495)/2
 4031 003f 00       		.p2align 1
 4032              	.L498:
 4033 0040 606A     		ldr	r0, [r4, #36]
 4034 0042 294E     		ldr	r6, .L504
 4035 0044 8662     		str	r6, [r0, #40]
 4036 0046 294E     		ldr	r6, .L504+4
 4037 0048 0663     		str	r6, [r0, #48]
 4038 004a 3432     		adds	r2, r2, #52
 4039 004c FFF7FEFF 		bl	HAL_DMA_Start_IT
 4040 0050 2268     		ldr	r2, [r4]
 4041 0052 D368     		ldr	r3, [r2, #12]
 4042 0054 43F40073 		orr	r3, r3, #512
 4043              	.L503:
 4044 0058 D360     		str	r3, [r2, #12]
 4045              	.L493:
 4046 005a 0122     		movs	r2, #1
 4047 005c 2946     		mov	r1, r5
 4048 005e 2068     		ldr	r0, [r4]
 4049 0060 FFF7FEFF 		bl	TIM_CCxChannelCmd
 4050 0064 2368     		ldr	r3, [r4]
 4051 0066 224A     		ldr	r2, .L504+8
 4052 0068 9342     		cmp	r3, r2
 4053 006a 0BD0     		beq	.L499
 4054 006c 02F5A052 		add	r2, r2, #5120
 4055 0070 9342     		cmp	r3, r2
 4056 0072 07D0     		beq	.L499
 4057 0074 02F58062 		add	r2, r2, #1024
 4058 0078 9342     		cmp	r3, r2
 4059 007a 03D0     		beq	.L499
ARM GAS  C:\Users\gyoku\AppData\Local\Temp\ccpDhDV6.s 			page 69


 4060 007c 02F58062 		add	r2, r2, #1024
 4061 0080 9342     		cmp	r3, r2
 4062 0082 03D1     		bne	.L500
 4063              	.L499:
 4064 0084 5A6C     		ldr	r2, [r3, #68]
 4065 0086 42F40042 		orr	r2, r2, #32768
 4066 008a 5A64     		str	r2, [r3, #68]
 4067              	.L500:
 4068 008c 1A68     		ldr	r2, [r3]
 4069 008e 42F00102 		orr	r2, r2, #1
 4070 0092 1A60     		str	r2, [r3]
 4071 0094 0020     		movs	r0, #0
 4072              	.L490:
 4073 0096 70BD     		pop	{r4, r5, r6, pc}
 4074              	.L497:
 4075 0098 A06A     		ldr	r0, [r4, #40]
 4076 009a 134E     		ldr	r6, .L504
 4077 009c 8662     		str	r6, [r0, #40]
 4078 009e 134E     		ldr	r6, .L504+4
 4079 00a0 0663     		str	r6, [r0, #48]
 4080 00a2 3832     		adds	r2, r2, #56
 4081 00a4 FFF7FEFF 		bl	HAL_DMA_Start_IT
 4082 00a8 2268     		ldr	r2, [r4]
 4083 00aa D368     		ldr	r3, [r2, #12]
 4084 00ac 43F48063 		orr	r3, r3, #1024
 4085 00b0 D2E7     		b	.L503
 4086              	.L496:
 4087 00b2 E06A     		ldr	r0, [r4, #44]
 4088 00b4 0C4E     		ldr	r6, .L504
 4089 00b6 8662     		str	r6, [r0, #40]
 4090 00b8 0C4E     		ldr	r6, .L504+4
 4091 00ba 0663     		str	r6, [r0, #48]
 4092 00bc 3C32     		adds	r2, r2, #60
 4093 00be FFF7FEFF 		bl	HAL_DMA_Start_IT
 4094 00c2 2268     		ldr	r2, [r4]
 4095 00c4 D368     		ldr	r3, [r2, #12]
 4096 00c6 43F40063 		orr	r3, r3, #2048
 4097 00ca C5E7     		b	.L503
 4098              	.L494:
 4099 00cc 206B     		ldr	r0, [r4, #48]
 4100 00ce 064E     		ldr	r6, .L504
 4101 00d0 8662     		str	r6, [r0, #40]
 4102 00d2 064E     		ldr	r6, .L504+4
 4103 00d4 0663     		str	r6, [r0, #48]
 4104 00d6 4032     		adds	r2, r2, #64
 4105 00d8 FFF7FEFF 		bl	HAL_DMA_Start_IT
 4106 00dc 2268     		ldr	r2, [r4]
 4107 00de D368     		ldr	r3, [r2, #12]
 4108 00e0 43F48053 		orr	r3, r3, #4096
 4109 00e4 B8E7     		b	.L503
 4110              	.L505:
 4111 00e6 00BF     		.align	2
 4112              	.L504:
 4113 00e8 00000000 		.word	TIM_DMADelayPulseCplt
 4114 00ec 00000000 		.word	TIM_DMAError
 4115 00f0 002C0140 		.word	1073818624
 4117              		.section	.text.HAL_TIM_PWM_Start_DMA,"ax",%progbits
ARM GAS  C:\Users\gyoku\AppData\Local\Temp\ccpDhDV6.s 			page 70


 4118              		.align	1
 4119              		.global	HAL_TIM_PWM_Start_DMA
 4120              		.syntax unified
 4121              		.thumb
 4122              		.thumb_func
 4123              		.fpu fpv4-sp-d16
 4125              	HAL_TIM_PWM_Start_DMA:
 4126              		@ args = 0, pretend = 0, frame = 0
 4127              		@ frame_needed = 0, uses_anonymous_args = 0
 4128              		@ link register save eliminated.
 4129 0000 FFF7FEBF 		b	HAL_TIM_OC_Start_DMA
 4131              		.section	.text.HAL_TIM_OC_Stop_DMA,"ax",%progbits
 4132              		.align	1
 4133              		.global	HAL_TIM_OC_Stop_DMA
 4134              		.syntax unified
 4135              		.thumb
 4136              		.thumb_func
 4137              		.fpu fpv4-sp-d16
 4139              	HAL_TIM_OC_Stop_DMA:
 4140              		@ args = 0, pretend = 0, frame = 0
 4141              		@ frame_needed = 0, uses_anonymous_args = 0
 4142 0000 10B5     		push	{r4, lr}
 4143 0002 0446     		mov	r4, r0
 4144 0004 0068     		ldr	r0, [r0]
 4145 0006 0C29     		cmp	r1, #12
 4146 0008 0CD8     		bhi	.L508
 4147 000a DFE801F0 		tbb	[pc, r1]
 4148              	.L510:
 4149 000e 07       		.byte	(.L513-.L510)/2
 4150 000f 0B       		.byte	(.L508-.L510)/2
 4151 0010 0B       		.byte	(.L508-.L510)/2
 4152 0011 0B       		.byte	(.L508-.L510)/2
 4153 0012 3F       		.byte	(.L512-.L510)/2
 4154 0013 0B       		.byte	(.L508-.L510)/2
 4155 0014 0B       		.byte	(.L508-.L510)/2
 4156 0015 0B       		.byte	(.L508-.L510)/2
 4157 0016 43       		.byte	(.L511-.L510)/2
 4158 0017 0B       		.byte	(.L508-.L510)/2
 4159 0018 0B       		.byte	(.L508-.L510)/2
 4160 0019 0B       		.byte	(.L508-.L510)/2
 4161 001a 47       		.byte	(.L509-.L510)/2
 4162 001b 00       		.p2align 1
 4163              	.L513:
 4164 001c C368     		ldr	r3, [r0, #12]
 4165 001e 23F40073 		bic	r3, r3, #512
 4166              	.L517:
 4167 0022 C360     		str	r3, [r0, #12]
 4168              	.L508:
 4169 0024 0022     		movs	r2, #0
 4170 0026 FFF7FEFF 		bl	TIM_CCxChannelCmd
 4171 002a 2368     		ldr	r3, [r4]
 4172 002c 1D4A     		ldr	r2, .L518
 4173 002e 9342     		cmp	r3, r2
 4174 0030 0BD0     		beq	.L514
 4175 0032 02F5A052 		add	r2, r2, #5120
 4176 0036 9342     		cmp	r3, r2
 4177 0038 07D0     		beq	.L514
ARM GAS  C:\Users\gyoku\AppData\Local\Temp\ccpDhDV6.s 			page 71


 4178 003a 02F58062 		add	r2, r2, #1024
 4179 003e 9342     		cmp	r3, r2
 4180 0040 03D0     		beq	.L514
 4181 0042 02F58062 		add	r2, r2, #1024
 4182 0046 9342     		cmp	r3, r2
 4183 0048 0DD1     		bne	.L515
 4184              	.L514:
 4185 004a 196A     		ldr	r1, [r3, #32]
 4186 004c 41F21112 		movw	r2, #4369
 4187 0050 1142     		tst	r1, r2
 4188 0052 08D1     		bne	.L515
 4189 0054 196A     		ldr	r1, [r3, #32]
 4190 0056 40F24442 		movw	r2, #1092
 4191 005a 1142     		tst	r1, r2
 4192 005c 02BF     		ittt	eq
 4193 005e 5A6C     		ldreq	r2, [r3, #68]
 4194 0060 22F40042 		biceq	r2, r2, #32768
 4195 0064 5A64     		streq	r2, [r3, #68]
 4196              	.L515:
 4197 0066 196A     		ldr	r1, [r3, #32]
 4198 0068 41F21112 		movw	r2, #4369
 4199 006c 1142     		tst	r1, r2
 4200 006e 08D1     		bne	.L516
 4201 0070 196A     		ldr	r1, [r3, #32]
 4202 0072 40F24442 		movw	r2, #1092
 4203 0076 1142     		tst	r1, r2
 4204 0078 02BF     		ittt	eq
 4205 007a 1A68     		ldreq	r2, [r3]
 4206 007c 22F00102 		biceq	r2, r2, #1
 4207 0080 1A60     		streq	r2, [r3]
 4208              	.L516:
 4209 0082 0123     		movs	r3, #1
 4210 0084 84F83D30 		strb	r3, [r4, #61]
 4211 0088 0020     		movs	r0, #0
 4212 008a 10BD     		pop	{r4, pc}
 4213              	.L512:
 4214 008c C368     		ldr	r3, [r0, #12]
 4215 008e 23F48063 		bic	r3, r3, #1024
 4216 0092 C6E7     		b	.L517
 4217              	.L511:
 4218 0094 C368     		ldr	r3, [r0, #12]
 4219 0096 23F40063 		bic	r3, r3, #2048
 4220 009a C2E7     		b	.L517
 4221              	.L509:
 4222 009c C368     		ldr	r3, [r0, #12]
 4223 009e 23F48053 		bic	r3, r3, #4096
 4224 00a2 BEE7     		b	.L517
 4225              	.L519:
 4226              		.align	2
 4227              	.L518:
 4228 00a4 002C0140 		.word	1073818624
 4230              		.section	.text.HAL_TIM_PWM_Stop_DMA,"ax",%progbits
 4231              		.align	1
 4232              		.global	HAL_TIM_PWM_Stop_DMA
 4233              		.syntax unified
 4234              		.thumb
 4235              		.thumb_func
ARM GAS  C:\Users\gyoku\AppData\Local\Temp\ccpDhDV6.s 			page 72


 4236              		.fpu fpv4-sp-d16
 4238              	HAL_TIM_PWM_Stop_DMA:
 4239              		@ args = 0, pretend = 0, frame = 0
 4240              		@ frame_needed = 0, uses_anonymous_args = 0
 4241              		@ link register save eliminated.
 4242 0000 FFF7FEBF 		b	HAL_TIM_OC_Stop_DMA
 4244              		.section	.text.HAL_TIM_PWM_Stop,"ax",%progbits
 4245              		.align	1
 4246              		.global	HAL_TIM_PWM_Stop
 4247              		.syntax unified
 4248              		.thumb
 4249              		.thumb_func
 4250              		.fpu fpv4-sp-d16
 4252              	HAL_TIM_PWM_Stop:
 4253              		@ args = 0, pretend = 0, frame = 0
 4254              		@ frame_needed = 0, uses_anonymous_args = 0
 4255 0000 10B5     		push	{r4, lr}
 4256 0002 0446     		mov	r4, r0
 4257 0004 0022     		movs	r2, #0
 4258 0006 0068     		ldr	r0, [r0]
 4259 0008 FFF7FEFF 		bl	TIM_CCxChannelCmd
 4260 000c 2368     		ldr	r3, [r4]
 4261 000e 184A     		ldr	r2, .L525
 4262 0010 9342     		cmp	r3, r2
 4263 0012 0BD0     		beq	.L522
 4264 0014 02F5A052 		add	r2, r2, #5120
 4265 0018 9342     		cmp	r3, r2
 4266 001a 07D0     		beq	.L522
 4267 001c 02F58062 		add	r2, r2, #1024
 4268 0020 9342     		cmp	r3, r2
 4269 0022 03D0     		beq	.L522
 4270 0024 02F58062 		add	r2, r2, #1024
 4271 0028 9342     		cmp	r3, r2
 4272 002a 0DD1     		bne	.L523
 4273              	.L522:
 4274 002c 196A     		ldr	r1, [r3, #32]
 4275 002e 41F21112 		movw	r2, #4369
 4276 0032 1142     		tst	r1, r2
 4277 0034 08D1     		bne	.L523
 4278 0036 196A     		ldr	r1, [r3, #32]
 4279 0038 40F24442 		movw	r2, #1092
 4280 003c 1142     		tst	r1, r2
 4281 003e 02BF     		ittt	eq
 4282 0040 5A6C     		ldreq	r2, [r3, #68]
 4283 0042 22F40042 		biceq	r2, r2, #32768
 4284 0046 5A64     		streq	r2, [r3, #68]
 4285              	.L523:
 4286 0048 196A     		ldr	r1, [r3, #32]
 4287 004a 41F21112 		movw	r2, #4369
 4288 004e 1142     		tst	r1, r2
 4289 0050 08D1     		bne	.L524
 4290 0052 196A     		ldr	r1, [r3, #32]
 4291 0054 40F24442 		movw	r2, #1092
 4292 0058 1142     		tst	r1, r2
 4293 005a 02BF     		ittt	eq
 4294 005c 1A68     		ldreq	r2, [r3]
 4295 005e 22F00102 		biceq	r2, r2, #1
ARM GAS  C:\Users\gyoku\AppData\Local\Temp\ccpDhDV6.s 			page 73


 4296 0062 1A60     		streq	r2, [r3]
 4297              	.L524:
 4298 0064 0123     		movs	r3, #1
 4299 0066 84F83D30 		strb	r3, [r4, #61]
 4300 006a 0020     		movs	r0, #0
 4301 006c 10BD     		pop	{r4, pc}
 4302              	.L526:
 4303 006e 00BF     		.align	2
 4304              	.L525:
 4305 0070 002C0140 		.word	1073818624
 4307              		.section	.text.HAL_TIM_IC_Start,"ax",%progbits
 4308              		.align	1
 4309              		.global	HAL_TIM_IC_Start
 4310              		.syntax unified
 4311              		.thumb
 4312              		.thumb_func
 4313              		.fpu fpv4-sp-d16
 4315              	HAL_TIM_IC_Start:
 4316              		@ args = 0, pretend = 0, frame = 0
 4317              		@ frame_needed = 0, uses_anonymous_args = 0
 4318 0000 10B5     		push	{r4, lr}
 4319 0002 0446     		mov	r4, r0
 4320 0004 0122     		movs	r2, #1
 4321 0006 0068     		ldr	r0, [r0]
 4322 0008 FFF7FEFF 		bl	TIM_CCxChannelCmd
 4323 000c 2268     		ldr	r2, [r4]
 4324 000e 1368     		ldr	r3, [r2]
 4325 0010 43F00103 		orr	r3, r3, #1
 4326 0014 1360     		str	r3, [r2]
 4327 0016 0020     		movs	r0, #0
 4328 0018 10BD     		pop	{r4, pc}
 4330              		.section	.text.HAL_TIM_IC_Stop,"ax",%progbits
 4331              		.align	1
 4332              		.global	HAL_TIM_IC_Stop
 4333              		.syntax unified
 4334              		.thumb
 4335              		.thumb_func
 4336              		.fpu fpv4-sp-d16
 4338              	HAL_TIM_IC_Stop:
 4339              		@ args = 0, pretend = 0, frame = 0
 4340              		@ frame_needed = 0, uses_anonymous_args = 0
 4341 0000 10B5     		push	{r4, lr}
 4342 0002 0446     		mov	r4, r0
 4343 0004 0022     		movs	r2, #0
 4344 0006 0068     		ldr	r0, [r0]
 4345 0008 FFF7FEFF 		bl	TIM_CCxChannelCmd
 4346 000c 2368     		ldr	r3, [r4]
 4347 000e 196A     		ldr	r1, [r3, #32]
 4348 0010 41F21112 		movw	r2, #4369
 4349 0014 1142     		tst	r1, r2
 4350 0016 08D1     		bne	.L529
 4351 0018 196A     		ldr	r1, [r3, #32]
 4352 001a 40F24442 		movw	r2, #1092
 4353 001e 1142     		tst	r1, r2
 4354 0020 02BF     		ittt	eq
 4355 0022 1A68     		ldreq	r2, [r3]
 4356 0024 22F00102 		biceq	r2, r2, #1
ARM GAS  C:\Users\gyoku\AppData\Local\Temp\ccpDhDV6.s 			page 74


 4357 0028 1A60     		streq	r2, [r3]
 4358              	.L529:
 4359 002a 0020     		movs	r0, #0
 4360 002c 10BD     		pop	{r4, pc}
 4362              		.section	.text.HAL_TIM_IC_Start_IT,"ax",%progbits
 4363              		.align	1
 4364              		.global	HAL_TIM_IC_Start_IT
 4365              		.syntax unified
 4366              		.thumb
 4367              		.thumb_func
 4368              		.fpu fpv4-sp-d16
 4370              	HAL_TIM_IC_Start_IT:
 4371              		@ args = 0, pretend = 0, frame = 0
 4372              		@ frame_needed = 0, uses_anonymous_args = 0
 4373 0000 10B5     		push	{r4, lr}
 4374 0002 0446     		mov	r4, r0
 4375 0004 0068     		ldr	r0, [r0]
 4376 0006 0C29     		cmp	r1, #12
 4377 0008 0CD8     		bhi	.L531
 4378 000a DFE801F0 		tbb	[pc, r1]
 4379              	.L533:
 4380 000e 07       		.byte	(.L536-.L533)/2
 4381 000f 0B       		.byte	(.L531-.L533)/2
 4382 0010 0B       		.byte	(.L531-.L533)/2
 4383 0011 0B       		.byte	(.L531-.L533)/2
 4384 0012 15       		.byte	(.L535-.L533)/2
 4385 0013 0B       		.byte	(.L531-.L533)/2
 4386 0014 0B       		.byte	(.L531-.L533)/2
 4387 0015 0B       		.byte	(.L531-.L533)/2
 4388 0016 19       		.byte	(.L534-.L533)/2
 4389 0017 0B       		.byte	(.L531-.L533)/2
 4390 0018 0B       		.byte	(.L531-.L533)/2
 4391 0019 0B       		.byte	(.L531-.L533)/2
 4392 001a 1D       		.byte	(.L532-.L533)/2
 4393 001b 00       		.p2align 1
 4394              	.L536:
 4395 001c C368     		ldr	r3, [r0, #12]
 4396 001e 43F00203 		orr	r3, r3, #2
 4397              	.L537:
 4398 0022 C360     		str	r3, [r0, #12]
 4399              	.L531:
 4400 0024 0122     		movs	r2, #1
 4401 0026 FFF7FEFF 		bl	TIM_CCxChannelCmd
 4402 002a 2268     		ldr	r2, [r4]
 4403 002c 1368     		ldr	r3, [r2]
 4404 002e 43F00103 		orr	r3, r3, #1
 4405 0032 1360     		str	r3, [r2]
 4406 0034 0020     		movs	r0, #0
 4407 0036 10BD     		pop	{r4, pc}
 4408              	.L535:
 4409 0038 C368     		ldr	r3, [r0, #12]
 4410 003a 43F00403 		orr	r3, r3, #4
 4411 003e F0E7     		b	.L537
 4412              	.L534:
 4413 0040 C368     		ldr	r3, [r0, #12]
 4414 0042 43F00803 		orr	r3, r3, #8
 4415 0046 ECE7     		b	.L537
ARM GAS  C:\Users\gyoku\AppData\Local\Temp\ccpDhDV6.s 			page 75


 4416              	.L532:
 4417 0048 C368     		ldr	r3, [r0, #12]
 4418 004a 43F01003 		orr	r3, r3, #16
 4419 004e E8E7     		b	.L537
 4421              		.section	.text.HAL_TIM_IC_Stop_IT,"ax",%progbits
 4422              		.align	1
 4423              		.global	HAL_TIM_IC_Stop_IT
 4424              		.syntax unified
 4425              		.thumb
 4426              		.thumb_func
 4427              		.fpu fpv4-sp-d16
 4429              	HAL_TIM_IC_Stop_IT:
 4430              		@ args = 0, pretend = 0, frame = 0
 4431              		@ frame_needed = 0, uses_anonymous_args = 0
 4432 0000 10B5     		push	{r4, lr}
 4433 0002 0446     		mov	r4, r0
 4434 0004 0068     		ldr	r0, [r0]
 4435 0006 0C29     		cmp	r1, #12
 4436 0008 0CD8     		bhi	.L539
 4437 000a DFE801F0 		tbb	[pc, r1]
 4438              	.L541:
 4439 000e 07       		.byte	(.L544-.L541)/2
 4440 000f 0B       		.byte	(.L539-.L541)/2
 4441 0010 0B       		.byte	(.L539-.L541)/2
 4442 0011 0B       		.byte	(.L539-.L541)/2
 4443 0012 1F       		.byte	(.L543-.L541)/2
 4444 0013 0B       		.byte	(.L539-.L541)/2
 4445 0014 0B       		.byte	(.L539-.L541)/2
 4446 0015 0B       		.byte	(.L539-.L541)/2
 4447 0016 23       		.byte	(.L542-.L541)/2
 4448 0017 0B       		.byte	(.L539-.L541)/2
 4449 0018 0B       		.byte	(.L539-.L541)/2
 4450 0019 0B       		.byte	(.L539-.L541)/2
 4451 001a 27       		.byte	(.L540-.L541)/2
 4452 001b 00       		.p2align 1
 4453              	.L544:
 4454 001c C368     		ldr	r3, [r0, #12]
 4455 001e 23F00203 		bic	r3, r3, #2
 4456              	.L546:
 4457 0022 C360     		str	r3, [r0, #12]
 4458              	.L539:
 4459 0024 0022     		movs	r2, #0
 4460 0026 FFF7FEFF 		bl	TIM_CCxChannelCmd
 4461 002a 2368     		ldr	r3, [r4]
 4462 002c 196A     		ldr	r1, [r3, #32]
 4463 002e 41F21112 		movw	r2, #4369
 4464 0032 1142     		tst	r1, r2
 4465 0034 08D1     		bne	.L545
 4466 0036 196A     		ldr	r1, [r3, #32]
 4467 0038 40F24442 		movw	r2, #1092
 4468 003c 1142     		tst	r1, r2
 4469 003e 02BF     		ittt	eq
 4470 0040 1A68     		ldreq	r2, [r3]
 4471 0042 22F00102 		biceq	r2, r2, #1
 4472 0046 1A60     		streq	r2, [r3]
 4473              	.L545:
 4474 0048 0020     		movs	r0, #0
ARM GAS  C:\Users\gyoku\AppData\Local\Temp\ccpDhDV6.s 			page 76


 4475 004a 10BD     		pop	{r4, pc}
 4476              	.L543:
 4477 004c C368     		ldr	r3, [r0, #12]
 4478 004e 23F00403 		bic	r3, r3, #4
 4479 0052 E6E7     		b	.L546
 4480              	.L542:
 4481 0054 C368     		ldr	r3, [r0, #12]
 4482 0056 23F00803 		bic	r3, r3, #8
 4483 005a E2E7     		b	.L546
 4484              	.L540:
 4485 005c C368     		ldr	r3, [r0, #12]
 4486 005e 23F01003 		bic	r3, r3, #16
 4487 0062 DEE7     		b	.L546
 4489              		.section	.text.HAL_TIM_IC_Start_DMA,"ax",%progbits
 4490              		.align	1
 4491              		.global	HAL_TIM_IC_Start_DMA
 4492              		.syntax unified
 4493              		.thumb
 4494              		.thumb_func
 4495              		.fpu fpv4-sp-d16
 4497              	HAL_TIM_IC_Start_DMA:
 4498              		@ args = 0, pretend = 0, frame = 0
 4499              		@ frame_needed = 0, uses_anonymous_args = 0
 4500 0000 70B5     		push	{r4, r5, r6, lr}
 4501 0002 0446     		mov	r4, r0
 4502 0004 90F83D00 		ldrb	r0, [r0, #61]	@ zero_extendqisi2
 4503 0008 C0B2     		uxtb	r0, r0
 4504 000a 0228     		cmp	r0, #2
 4505 000c 0D46     		mov	r5, r1
 4506 000e 2DD0     		beq	.L548
 4507 0010 94F83D00 		ldrb	r0, [r4, #61]	@ zero_extendqisi2
 4508 0014 C0B2     		uxtb	r0, r0
 4509 0016 0128     		cmp	r0, #1
 4510 0018 04D1     		bne	.L549
 4511 001a 02B9     		cbnz	r2, .L550
 4512 001c 33BB     		cbnz	r3, .L548
 4513              	.L550:
 4514 001e 0221     		movs	r1, #2
 4515 0020 84F83D10 		strb	r1, [r4, #61]
 4516              	.L549:
 4517 0024 2168     		ldr	r1, [r4]
 4518 0026 0C2D     		cmp	r5, #12
 4519 0028 15D8     		bhi	.L551
 4520 002a DFE805F0 		tbb	[pc, r5]
 4521              	.L553:
 4522 002e 07       		.byte	(.L556-.L553)/2
 4523 002f 14       		.byte	(.L551-.L553)/2
 4524 0030 14       		.byte	(.L551-.L553)/2
 4525 0031 14       		.byte	(.L551-.L553)/2
 4526 0032 20       		.byte	(.L555-.L553)/2
 4527 0033 14       		.byte	(.L551-.L553)/2
 4528 0034 14       		.byte	(.L551-.L553)/2
 4529 0035 14       		.byte	(.L551-.L553)/2
 4530 0036 2D       		.byte	(.L554-.L553)/2
 4531 0037 14       		.byte	(.L551-.L553)/2
 4532 0038 14       		.byte	(.L551-.L553)/2
 4533 0039 14       		.byte	(.L551-.L553)/2
ARM GAS  C:\Users\gyoku\AppData\Local\Temp\ccpDhDV6.s 			page 77


 4534 003a 3A       		.byte	(.L552-.L553)/2
 4535 003b 00       		.p2align 1
 4536              	.L556:
 4537 003c 606A     		ldr	r0, [r4, #36]
 4538 003e 1F4E     		ldr	r6, .L560
 4539 0040 8662     		str	r6, [r0, #40]
 4540 0042 1F4E     		ldr	r6, .L560+4
 4541 0044 0663     		str	r6, [r0, #48]
 4542 0046 3431     		adds	r1, r1, #52
 4543 0048 FFF7FEFF 		bl	HAL_DMA_Start_IT
 4544 004c 2268     		ldr	r2, [r4]
 4545 004e D368     		ldr	r3, [r2, #12]
 4546 0050 43F40073 		orr	r3, r3, #512
 4547              	.L559:
 4548 0054 D360     		str	r3, [r2, #12]
 4549              	.L551:
 4550 0056 0122     		movs	r2, #1
 4551 0058 2068     		ldr	r0, [r4]
 4552 005a 2946     		mov	r1, r5
 4553 005c FFF7FEFF 		bl	TIM_CCxChannelCmd
 4554 0060 2268     		ldr	r2, [r4]
 4555 0062 1368     		ldr	r3, [r2]
 4556 0064 43F00103 		orr	r3, r3, #1
 4557 0068 1360     		str	r3, [r2]
 4558 006a 0020     		movs	r0, #0
 4559              	.L548:
 4560 006c 70BD     		pop	{r4, r5, r6, pc}
 4561              	.L555:
 4562 006e A06A     		ldr	r0, [r4, #40]
 4563 0070 124E     		ldr	r6, .L560
 4564 0072 8662     		str	r6, [r0, #40]
 4565 0074 124E     		ldr	r6, .L560+4
 4566 0076 0663     		str	r6, [r0, #48]
 4567 0078 3831     		adds	r1, r1, #56
 4568 007a FFF7FEFF 		bl	HAL_DMA_Start_IT
 4569 007e 2268     		ldr	r2, [r4]
 4570 0080 D368     		ldr	r3, [r2, #12]
 4571 0082 43F48063 		orr	r3, r3, #1024
 4572 0086 E5E7     		b	.L559
 4573              	.L554:
 4574 0088 E06A     		ldr	r0, [r4, #44]
 4575 008a 0C4E     		ldr	r6, .L560
 4576 008c 8662     		str	r6, [r0, #40]
 4577 008e 0C4E     		ldr	r6, .L560+4
 4578 0090 0663     		str	r6, [r0, #48]
 4579 0092 3C31     		adds	r1, r1, #60
 4580 0094 FFF7FEFF 		bl	HAL_DMA_Start_IT
 4581 0098 2268     		ldr	r2, [r4]
 4582 009a D368     		ldr	r3, [r2, #12]
 4583 009c 43F40063 		orr	r3, r3, #2048
 4584 00a0 D8E7     		b	.L559
 4585              	.L552:
 4586 00a2 206B     		ldr	r0, [r4, #48]
 4587 00a4 054E     		ldr	r6, .L560
 4588 00a6 8662     		str	r6, [r0, #40]
 4589 00a8 054E     		ldr	r6, .L560+4
 4590 00aa 0663     		str	r6, [r0, #48]
ARM GAS  C:\Users\gyoku\AppData\Local\Temp\ccpDhDV6.s 			page 78


 4591 00ac 4031     		adds	r1, r1, #64
 4592 00ae FFF7FEFF 		bl	HAL_DMA_Start_IT
 4593 00b2 2268     		ldr	r2, [r4]
 4594 00b4 D368     		ldr	r3, [r2, #12]
 4595 00b6 43F48053 		orr	r3, r3, #4096
 4596 00ba CBE7     		b	.L559
 4597              	.L561:
 4598              		.align	2
 4599              	.L560:
 4600 00bc 00000000 		.word	TIM_DMACaptureCplt
 4601 00c0 00000000 		.word	TIM_DMAError
 4603              		.section	.text.HAL_TIM_IC_Stop_DMA,"ax",%progbits
 4604              		.align	1
 4605              		.global	HAL_TIM_IC_Stop_DMA
 4606              		.syntax unified
 4607              		.thumb
 4608              		.thumb_func
 4609              		.fpu fpv4-sp-d16
 4611              	HAL_TIM_IC_Stop_DMA:
 4612              		@ args = 0, pretend = 0, frame = 0
 4613              		@ frame_needed = 0, uses_anonymous_args = 0
 4614 0000 10B5     		push	{r4, lr}
 4615 0002 0446     		mov	r4, r0
 4616 0004 0068     		ldr	r0, [r0]
 4617 0006 0C29     		cmp	r1, #12
 4618 0008 0CD8     		bhi	.L563
 4619 000a DFE801F0 		tbb	[pc, r1]
 4620              	.L565:
 4621 000e 07       		.byte	(.L568-.L565)/2
 4622 000f 0B       		.byte	(.L563-.L565)/2
 4623 0010 0B       		.byte	(.L563-.L565)/2
 4624 0011 0B       		.byte	(.L563-.L565)/2
 4625 0012 22       		.byte	(.L567-.L565)/2
 4626 0013 0B       		.byte	(.L563-.L565)/2
 4627 0014 0B       		.byte	(.L563-.L565)/2
 4628 0015 0B       		.byte	(.L563-.L565)/2
 4629 0016 26       		.byte	(.L566-.L565)/2
 4630 0017 0B       		.byte	(.L563-.L565)/2
 4631 0018 0B       		.byte	(.L563-.L565)/2
 4632 0019 0B       		.byte	(.L563-.L565)/2
 4633 001a 2A       		.byte	(.L564-.L565)/2
 4634 001b 00       		.p2align 1
 4635              	.L568:
 4636 001c C368     		ldr	r3, [r0, #12]
 4637 001e 23F40073 		bic	r3, r3, #512
 4638              	.L570:
 4639 0022 C360     		str	r3, [r0, #12]
 4640              	.L563:
 4641 0024 0022     		movs	r2, #0
 4642 0026 FFF7FEFF 		bl	TIM_CCxChannelCmd
 4643 002a 2368     		ldr	r3, [r4]
 4644 002c 196A     		ldr	r1, [r3, #32]
 4645 002e 41F21112 		movw	r2, #4369
 4646 0032 1142     		tst	r1, r2
 4647 0034 08D1     		bne	.L569
 4648 0036 196A     		ldr	r1, [r3, #32]
 4649 0038 40F24442 		movw	r2, #1092
ARM GAS  C:\Users\gyoku\AppData\Local\Temp\ccpDhDV6.s 			page 79


 4650 003c 1142     		tst	r1, r2
 4651 003e 02BF     		ittt	eq
 4652 0040 1A68     		ldreq	r2, [r3]
 4653 0042 22F00102 		biceq	r2, r2, #1
 4654 0046 1A60     		streq	r2, [r3]
 4655              	.L569:
 4656 0048 0123     		movs	r3, #1
 4657 004a 84F83D30 		strb	r3, [r4, #61]
 4658 004e 0020     		movs	r0, #0
 4659 0050 10BD     		pop	{r4, pc}
 4660              	.L567:
 4661 0052 C368     		ldr	r3, [r0, #12]
 4662 0054 23F48063 		bic	r3, r3, #1024
 4663 0058 E3E7     		b	.L570
 4664              	.L566:
 4665 005a C368     		ldr	r3, [r0, #12]
 4666 005c 23F40063 		bic	r3, r3, #2048
 4667 0060 DFE7     		b	.L570
 4668              	.L564:
 4669 0062 C368     		ldr	r3, [r0, #12]
 4670 0064 23F48053 		bic	r3, r3, #4096
 4671 0068 DBE7     		b	.L570
 4673              		.ident	"GCC: (GNU MCU Eclipse ARM Embedded GCC, 64-bit) 8.2.1 20181213 (release) [gcc-8-branch rev
ARM GAS  C:\Users\gyoku\AppData\Local\Temp\ccpDhDV6.s 			page 80

