ARM GAS  C:\Users\q-bir\AppData\Local\Temp\ccTrmgJ3.s 			page 1


   1              		.cpu cortex-m4
   2              		.eabi_attribute 27, 1
   3              		.eabi_attribute 28, 1
   4              		.eabi_attribute 20, 1
   5              		.eabi_attribute 21, 1
   6              		.eabi_attribute 23, 3
   7              		.eabi_attribute 24, 1
   8              		.eabi_attribute 25, 1
   9              		.eabi_attribute 26, 1
  10              		.eabi_attribute 30, 4
  11              		.eabi_attribute 34, 1
  12              		.eabi_attribute 18, 4
  13              		.file	"stm32f3xx_hal_i2c.c"
  14              		.text
  15              		.section	.text.I2C_Flush_TXDR,"ax",%progbits
  16              		.align	1
  17              		.arch armv7e-m
  18              		.syntax unified
  19              		.thumb
  20              		.thumb_func
  21              		.fpu fpv4-sp-d16
  23              	I2C_Flush_TXDR:
  24              		@ args = 0, pretend = 0, frame = 0
  25              		@ frame_needed = 0, uses_anonymous_args = 0
  26              		@ link register save eliminated.
  27 0000 0368     		ldr	r3, [r0]
  28 0002 9A69     		ldr	r2, [r3, #24]
  29 0004 9107     		lsls	r1, r2, #30
  30 0006 44BF     		itt	mi
  31 0008 0022     		movmi	r2, #0
  32 000a 9A62     		strmi	r2, [r3, #40]
  33 000c 9A69     		ldr	r2, [r3, #24]
  34 000e D207     		lsls	r2, r2, #31
  35 0010 5EBF     		ittt	pl
  36 0012 9A69     		ldrpl	r2, [r3, #24]
  37 0014 42F00102 		orrpl	r2, r2, #1
  38 0018 9A61     		strpl	r2, [r3, #24]
  39 001a 7047     		bx	lr
  41              		.section	.text.I2C_DMASlaveTransmitCplt,"ax",%progbits
  42              		.align	1
  43              		.syntax unified
  44              		.thumb
  45              		.thumb_func
  46              		.fpu fpv4-sp-d16
  48              	I2C_DMASlaveTransmitCplt:
  49              		@ args = 0, pretend = 0, frame = 0
  50              		@ frame_needed = 0, uses_anonymous_args = 0
  51              		@ link register save eliminated.
  52 0000 7047     		bx	lr
  54              		.section	.text.I2C_TransferConfig,"ax",%progbits
  55              		.align	1
  56              		.syntax unified
  57              		.thumb
  58              		.thumb_func
  59              		.fpu fpv4-sp-d16
  61              	I2C_TransferConfig:
  62              		@ args = 4, pretend = 0, frame = 0
ARM GAS  C:\Users\q-bir\AppData\Local\Temp\ccTrmgJ3.s 			page 2


  63              		@ frame_needed = 0, uses_anonymous_args = 0
  64 0000 30B5     		push	{r4, r5, lr}
  65 0002 039D     		ldr	r5, [sp, #12]
  66 0004 0468     		ldr	r4, [r0]
  67 0006 45EA0242 		orr	r2, r5, r2, lsl #16
  68 000a 1A43     		orrs	r2, r2, r3
  69 000c 054B     		ldr	r3, .L9
  70 000e 6068     		ldr	r0, [r4, #4]
  71 0010 C1F30901 		ubfx	r1, r1, #0, #10
  72 0014 43EA5553 		orr	r3, r3, r5, lsr #21
  73 0018 0A43     		orrs	r2, r2, r1
  74 001a 20EA0300 		bic	r0, r0, r3
  75 001e 0243     		orrs	r2, r2, r0
  76 0020 6260     		str	r2, [r4, #4]
  77 0022 30BD     		pop	{r4, r5, pc}
  78              	.L10:
  79              		.align	2
  80              	.L9:
  81 0024 FF63FF03 		.word	67068927
  83              		.section	.text.I2C_Enable_IRQ,"ax",%progbits
  84              		.align	1
  85              		.syntax unified
  86              		.thumb
  87              		.thumb_func
  88              		.fpu fpv4-sp-d16
  90              	I2C_Enable_IRQ:
  91              		@ args = 0, pretend = 0, frame = 0
  92              		@ frame_needed = 0, uses_anonymous_args = 0
  93 0000 01F00403 		and	r3, r1, #4
  94 0004 154A     		ldr	r2, .L28
  95 0006 30B5     		push	{r4, r5, lr}
  96 0008 446B     		ldr	r4, [r0, #52]
  97 000a 002B     		cmp	r3, #0
  98 000c 0CBF     		ite	eq
  99 000e 0023     		moveq	r3, #0
 100 0010 B823     		movne	r3, #184
 101 0012 9442     		cmp	r4, r2
 102 0014 01F01202 		and	r2, r1, #18
 103 0018 02D0     		beq	.L12
 104 001a 114D     		ldr	r5, .L28+4
 105 001c AC42     		cmp	r4, r5
 106 001e 0FD1     		bne	.L13
 107              	.L12:
 108 0020 01F01101 		and	r1, r1, #17
 109 0024 1129     		cmp	r1, #17
 110 0026 08BF     		it	eq
 111 0028 43F09003 		orreq	r3, r3, #144
 112 002c 122A     		cmp	r2, #18
 113 002e 01D1     		bne	.L16
 114 0030 43F06003 		orr	r3, r3, #96
 115              	.L16:
 116 0034 0168     		ldr	r1, [r0]
 117 0036 0A68     		ldr	r2, [r1]
 118 0038 1343     		orrs	r3, r3, r2
 119 003a 0B60     		str	r3, [r1]
 120 003c 0020     		movs	r0, #0
 121 003e 30BD     		pop	{r4, r5, pc}
ARM GAS  C:\Users\q-bir\AppData\Local\Temp\ccTrmgJ3.s 			page 3


 122              	.L13:
 123 0040 CC07     		lsls	r4, r1, #31
 124 0042 48BF     		it	mi
 125 0044 43F0F203 		orrmi	r3, r3, #242
 126 0048 8907     		lsls	r1, r1, #30
 127 004a 48BF     		it	mi
 128 004c 43F0F403 		orrmi	r3, r3, #244
 129 0050 122A     		cmp	r2, #18
 130 0052 08BF     		it	eq
 131 0054 43F02003 		orreq	r3, r3, #32
 132 0058 ECE7     		b	.L16
 133              	.L29:
 134 005a 00BF     		.align	2
 135              	.L28:
 136 005c 00000000 		.word	I2C_Master_ISR_DMA
 137 0060 00000000 		.word	I2C_Slave_ISR_DMA
 139              		.section	.text.I2C_Disable_IRQ,"ax",%progbits
 140              		.align	1
 141              		.syntax unified
 142              		.thumb
 143              		.thumb_func
 144              		.fpu fpv4-sp-d16
 146              	I2C_Disable_IRQ:
 147              		@ args = 0, pretend = 0, frame = 0
 148              		@ frame_needed = 0, uses_anonymous_args = 0
 149              		@ link register save eliminated.
 150 0000 11F00103 		ands	r3, r1, #1
 151 0004 07D0     		beq	.L31
 152 0006 90F84130 		ldrb	r3, [r0, #65]	@ zero_extendqisi2
 153 000a 03F02803 		and	r3, r3, #40
 154 000e 282B     		cmp	r3, #40
 155 0010 0CBF     		ite	eq
 156 0012 4223     		moveq	r3, #66
 157 0014 F223     		movne	r3, #242
 158              	.L31:
 159 0016 8A07     		lsls	r2, r1, #30
 160 0018 09D5     		bpl	.L32
 161 001a 90F84120 		ldrb	r2, [r0, #65]	@ zero_extendqisi2
 162 001e 02F02802 		and	r2, r2, #40
 163 0022 282A     		cmp	r2, #40
 164 0024 0CBF     		ite	eq
 165 0026 43F04403 		orreq	r3, r3, #68
 166 002a 43F0F403 		orrne	r3, r3, #244
 167              	.L32:
 168 002e 4A07     		lsls	r2, r1, #29
 169 0030 0168     		ldr	r1, [r0]
 170 0032 0A68     		ldr	r2, [r1]
 171 0034 48BF     		it	mi
 172 0036 43F0B803 		orrmi	r3, r3, #184
 173 003a 22EA0303 		bic	r3, r2, r3
 174 003e 0B60     		str	r3, [r1]
 175 0040 0020     		movs	r0, #0
 176 0042 7047     		bx	lr
 178              		.section	.text.I2C_WaitOnFlagUntilTimeout,"ax",%progbits
 179              		.align	1
 180              		.syntax unified
 181              		.thumb
ARM GAS  C:\Users\q-bir\AppData\Local\Temp\ccTrmgJ3.s 			page 4


 182              		.thumb_func
 183              		.fpu fpv4-sp-d16
 185              	I2C_WaitOnFlagUntilTimeout:
 186              		@ args = 4, pretend = 0, frame = 0
 187              		@ frame_needed = 0, uses_anonymous_args = 0
 188 0000 2DE9F041 		push	{r4, r5, r6, r7, r8, lr}
 189 0004 069F     		ldr	r7, [sp, #24]
 190 0006 0446     		mov	r4, r0
 191 0008 8846     		mov	r8, r1
 192 000a 1646     		mov	r6, r2
 193 000c 1D46     		mov	r5, r3
 194              	.L44:
 195 000e 2268     		ldr	r2, [r4]
 196              	.L45:
 197 0010 9369     		ldr	r3, [r2, #24]
 198 0012 38EA0303 		bics	r3, r8, r3
 199 0016 0CBF     		ite	eq
 200 0018 0123     		moveq	r3, #1
 201 001a 0023     		movne	r3, #0
 202 001c B342     		cmp	r3, r6
 203 001e 01D0     		beq	.L49
 204 0020 0020     		movs	r0, #0
 205 0022 0BE0     		b	.L47
 206              	.L49:
 207 0024 6B1C     		adds	r3, r5, #1
 208 0026 F3D0     		beq	.L45
 209 0028 55B9     		cbnz	r5, .L46
 210              	.L48:
 211 002a 2023     		movs	r3, #32
 212 002c 84F84130 		strb	r3, [r4, #65]
 213 0030 0023     		movs	r3, #0
 214 0032 84F84230 		strb	r3, [r4, #66]
 215 0036 84F84030 		strb	r3, [r4, #64]
 216 003a 0320     		movs	r0, #3
 217              	.L47:
 218 003c BDE8F081 		pop	{r4, r5, r6, r7, r8, pc}
 219              	.L46:
 220 0040 FFF7FEFF 		bl	HAL_GetTick
 221 0044 C01B     		subs	r0, r0, r7
 222 0046 A842     		cmp	r0, r5
 223 0048 E1D9     		bls	.L44
 224 004a EEE7     		b	.L48
 226              		.section	.text.I2C_DMAMasterTransmitCplt,"ax",%progbits
 227              		.align	1
 228              		.syntax unified
 229              		.thumb
 230              		.thumb_func
 231              		.fpu fpv4-sp-d16
 233              	I2C_DMAMasterTransmitCplt:
 234              		@ args = 0, pretend = 0, frame = 0
 235              		@ frame_needed = 0, uses_anonymous_args = 0
 236 0000 10B5     		push	{r4, lr}
 237 0002 446A     		ldr	r4, [r0, #36]
 238 0004 2268     		ldr	r2, [r4]
 239 0006 1368     		ldr	r3, [r2]
 240 0008 23F48043 		bic	r3, r3, #16384
 241 000c 1360     		str	r3, [r2]
ARM GAS  C:\Users\q-bir\AppData\Local\Temp\ccTrmgJ3.s 			page 5


 242 000e 638D     		ldrh	r3, [r4, #42]
 243 0010 9BB2     		uxth	r3, r3
 244 0012 2BB9     		cbnz	r3, .L53
 245              	.L56:
 246 0014 2046     		mov	r0, r4
 247 0016 1221     		movs	r1, #18
 248 0018 BDE81040 		pop	{r4, lr}
 249 001c FFF7FEBF 		b	I2C_Enable_IRQ
 250              	.L53:
 251 0020 238D     		ldrh	r3, [r4, #40]
 252 0022 616A     		ldr	r1, [r4, #36]
 253 0024 A06B     		ldr	r0, [r4, #56]
 254 0026 1944     		add	r1, r1, r3
 255 0028 638D     		ldrh	r3, [r4, #42]
 256 002a 6162     		str	r1, [r4, #36]
 257 002c 9BB2     		uxth	r3, r3
 258 002e FF2B     		cmp	r3, #255
 259 0030 96BF     		itet	ls
 260 0032 638D     		ldrhls	r3, [r4, #42]
 261 0034 FF23     		movhi	r3, #255
 262 0036 9BB2     		uxthls	r3, r3
 263 0038 2385     		strh	r3, [r4, #40]	@ movhi
 264 003a 2832     		adds	r2, r2, #40
 265 003c FFF7FEFF 		bl	HAL_DMA_Start_IT
 266 0040 E8E7     		b	.L56
 268              		.section	.text.I2C_DMAMasterReceiveCplt,"ax",%progbits
 269              		.align	1
 270              		.syntax unified
 271              		.thumb
 272              		.thumb_func
 273              		.fpu fpv4-sp-d16
 275              	I2C_DMAMasterReceiveCplt:
 276              		@ args = 0, pretend = 0, frame = 0
 277              		@ frame_needed = 0, uses_anonymous_args = 0
 278 0000 10B5     		push	{r4, lr}
 279 0002 446A     		ldr	r4, [r0, #36]
 280 0004 2168     		ldr	r1, [r4]
 281 0006 0B68     		ldr	r3, [r1]
 282 0008 23F40043 		bic	r3, r3, #32768
 283 000c 0B60     		str	r3, [r1]
 284 000e 638D     		ldrh	r3, [r4, #42]
 285 0010 9BB2     		uxth	r3, r3
 286 0012 2BB9     		cbnz	r3, .L58
 287              	.L61:
 288 0014 2046     		mov	r0, r4
 289 0016 1221     		movs	r1, #18
 290 0018 BDE81040 		pop	{r4, lr}
 291 001c FFF7FEBF 		b	I2C_Enable_IRQ
 292              	.L58:
 293 0020 238D     		ldrh	r3, [r4, #40]
 294 0022 626A     		ldr	r2, [r4, #36]
 295 0024 E06B     		ldr	r0, [r4, #60]
 296 0026 1A44     		add	r2, r2, r3
 297 0028 638D     		ldrh	r3, [r4, #42]
 298 002a 6262     		str	r2, [r4, #36]
 299 002c 9BB2     		uxth	r3, r3
 300 002e FF2B     		cmp	r3, #255
ARM GAS  C:\Users\q-bir\AppData\Local\Temp\ccTrmgJ3.s 			page 6


 301 0030 96BF     		itet	ls
 302 0032 638D     		ldrhls	r3, [r4, #42]
 303 0034 FF23     		movhi	r3, #255
 304 0036 9BB2     		uxthls	r3, r3
 305 0038 2385     		strh	r3, [r4, #40]	@ movhi
 306 003a 2431     		adds	r1, r1, #36
 307 003c FFF7FEFF 		bl	HAL_DMA_Start_IT
 308 0040 E8E7     		b	.L61
 310              		.section	.text.I2C_IsAcknowledgeFailed,"ax",%progbits
 311              		.align	1
 312              		.syntax unified
 313              		.thumb
 314              		.thumb_func
 315              		.fpu fpv4-sp-d16
 317              	I2C_IsAcknowledgeFailed:
 318              		@ args = 0, pretend = 0, frame = 0
 319              		@ frame_needed = 0, uses_anonymous_args = 0
 320 0000 0368     		ldr	r3, [r0]
 321 0002 70B5     		push	{r4, r5, r6, lr}
 322 0004 0446     		mov	r4, r0
 323 0006 9869     		ldr	r0, [r3, #24]
 324 0008 10F01000 		ands	r0, r0, #16
 325 000c 0D46     		mov	r5, r1
 326 000e 1646     		mov	r6, r2
 327 0010 12D1     		bne	.L63
 328              	.L64:
 329 0012 70BD     		pop	{r4, r5, r6, pc}
 330              	.L67:
 331 0014 691C     		adds	r1, r5, #1
 332 0016 10D0     		beq	.L65
 333 0018 25B1     		cbz	r5, .L66
 334 001a FFF7FEFF 		bl	HAL_GetTick
 335 001e 801B     		subs	r0, r0, r6
 336 0020 8542     		cmp	r5, r0
 337 0022 09D2     		bcs	.L63
 338              	.L66:
 339 0024 2023     		movs	r3, #32
 340 0026 84F84130 		strb	r3, [r4, #65]
 341 002a 0023     		movs	r3, #0
 342 002c 84F84230 		strb	r3, [r4, #66]
 343 0030 84F84030 		strb	r3, [r4, #64]
 344 0034 0320     		movs	r0, #3
 345 0036 ECE7     		b	.L64
 346              	.L63:
 347 0038 2368     		ldr	r3, [r4]
 348              	.L65:
 349 003a 9A69     		ldr	r2, [r3, #24]
 350 003c 9206     		lsls	r2, r2, #26
 351 003e E9D5     		bpl	.L67
 352 0040 1022     		movs	r2, #16
 353 0042 2025     		movs	r5, #32
 354 0044 DA61     		str	r2, [r3, #28]
 355 0046 2046     		mov	r0, r4
 356 0048 DD61     		str	r5, [r3, #28]
 357 004a FFF7FEFF 		bl	I2C_Flush_TXDR
 358 004e 2268     		ldr	r2, [r4]
 359 0050 5368     		ldr	r3, [r2, #4]
ARM GAS  C:\Users\q-bir\AppData\Local\Temp\ccTrmgJ3.s 			page 7


 360 0052 23F0FF73 		bic	r3, r3, #33423360
 361 0056 23F48B33 		bic	r3, r3, #71168
 362 005a 23F4FF73 		bic	r3, r3, #510
 363 005e 23F00103 		bic	r3, r3, #1
 364 0062 5360     		str	r3, [r2, #4]
 365 0064 0423     		movs	r3, #4
 366 0066 6364     		str	r3, [r4, #68]
 367 0068 0023     		movs	r3, #0
 368 006a 84F84150 		strb	r5, [r4, #65]
 369 006e 84F84030 		strb	r3, [r4, #64]
 370 0072 84F84230 		strb	r3, [r4, #66]
 371 0076 0120     		movs	r0, #1
 372 0078 CBE7     		b	.L64
 374              		.section	.text.I2C_WaitOnRXNEFlagUntilTimeout,"ax",%progbits
 375              		.align	1
 376              		.syntax unified
 377              		.thumb
 378              		.thumb_func
 379              		.fpu fpv4-sp-d16
 381              	I2C_WaitOnRXNEFlagUntilTimeout:
 382              		@ args = 0, pretend = 0, frame = 0
 383              		@ frame_needed = 0, uses_anonymous_args = 0
 384 0000 70B5     		push	{r4, r5, r6, lr}
 385 0002 0446     		mov	r4, r0
 386 0004 0D46     		mov	r5, r1
 387 0006 1646     		mov	r6, r2
 388              	.L76:
 389 0008 2368     		ldr	r3, [r4]
 390 000a 9B69     		ldr	r3, [r3, #24]
 391 000c 5B07     		lsls	r3, r3, #29
 392 000e 0ED4     		bmi	.L83
 393 0010 3246     		mov	r2, r6
 394 0012 2946     		mov	r1, r5
 395 0014 2046     		mov	r0, r4
 396 0016 FFF7FEFF 		bl	I2C_IsAcknowledgeFailed
 397 001a F0B9     		cbnz	r0, .L84
 398 001c 2368     		ldr	r3, [r4]
 399 001e 9A69     		ldr	r2, [r3, #24]
 400 0020 9106     		lsls	r1, r2, #26
 401 0022 1CD5     		bpl	.L78
 402 0024 9A69     		ldr	r2, [r3, #24]
 403 0026 5207     		lsls	r2, r2, #29
 404 0028 03D5     		bpl	.L79
 405 002a 228D     		ldrh	r2, [r4, #40]
 406 002c 0AB1     		cbz	r2, .L79
 407              	.L83:
 408 002e 0020     		movs	r0, #0
 409              	.L77:
 410 0030 70BD     		pop	{r4, r5, r6, pc}
 411              	.L79:
 412 0032 2021     		movs	r1, #32
 413 0034 D961     		str	r1, [r3, #28]
 414 0036 5A68     		ldr	r2, [r3, #4]
 415 0038 22F0FF72 		bic	r2, r2, #33423360
 416 003c 22F48B32 		bic	r2, r2, #71168
 417 0040 22F4FF72 		bic	r2, r2, #510
 418 0044 22F00102 		bic	r2, r2, #1
ARM GAS  C:\Users\q-bir\AppData\Local\Temp\ccTrmgJ3.s 			page 8


 419 0048 5A60     		str	r2, [r3, #4]
 420 004a 0023     		movs	r3, #0
 421 004c 6364     		str	r3, [r4, #68]
 422 004e 84F84030 		strb	r3, [r4, #64]
 423 0052 84F84110 		strb	r1, [r4, #65]
 424 0056 84F84230 		strb	r3, [r4, #66]
 425              	.L84:
 426 005a 0120     		movs	r0, #1
 427 005c E8E7     		b	.L77
 428              	.L78:
 429 005e 5DB9     		cbnz	r5, .L80
 430              	.L81:
 431 0060 636C     		ldr	r3, [r4, #68]
 432 0062 43F02003 		orr	r3, r3, #32
 433 0066 6364     		str	r3, [r4, #68]
 434 0068 2023     		movs	r3, #32
 435 006a 84F84130 		strb	r3, [r4, #65]
 436 006e 0023     		movs	r3, #0
 437 0070 84F84030 		strb	r3, [r4, #64]
 438 0074 0320     		movs	r0, #3
 439 0076 DBE7     		b	.L77
 440              	.L80:
 441 0078 FFF7FEFF 		bl	HAL_GetTick
 442 007c 801B     		subs	r0, r0, r6
 443 007e A842     		cmp	r0, r5
 444 0080 C2D9     		bls	.L76
 445 0082 EDE7     		b	.L81
 447              		.section	.text.I2C_WaitOnTXISFlagUntilTimeout,"ax",%progbits
 448              		.align	1
 449              		.syntax unified
 450              		.thumb
 451              		.thumb_func
 452              		.fpu fpv4-sp-d16
 454              	I2C_WaitOnTXISFlagUntilTimeout:
 455              		@ args = 0, pretend = 0, frame = 0
 456              		@ frame_needed = 0, uses_anonymous_args = 0
 457 0000 70B5     		push	{r4, r5, r6, lr}
 458 0002 0446     		mov	r4, r0
 459 0004 0D46     		mov	r5, r1
 460 0006 1646     		mov	r6, r2
 461              	.L94:
 462 0008 2368     		ldr	r3, [r4]
 463 000a 9B69     		ldr	r3, [r3, #24]
 464 000c 9B07     		lsls	r3, r3, #30
 465 000e 01D5     		bpl	.L97
 466 0010 0020     		movs	r0, #0
 467 0012 15E0     		b	.L93
 468              	.L97:
 469 0014 3246     		mov	r2, r6
 470 0016 2946     		mov	r1, r5
 471 0018 2046     		mov	r0, r4
 472 001a FFF7FEFF 		bl	I2C_IsAcknowledgeFailed
 473 001e B0B9     		cbnz	r0, .L98
 474 0020 6A1C     		adds	r2, r5, #1
 475 0022 F1D0     		beq	.L94
 476 0024 6DB9     		cbnz	r5, .L95
 477              	.L96:
ARM GAS  C:\Users\q-bir\AppData\Local\Temp\ccTrmgJ3.s 			page 9


 478 0026 636C     		ldr	r3, [r4, #68]
 479 0028 43F02003 		orr	r3, r3, #32
 480 002c 6364     		str	r3, [r4, #68]
 481 002e 2023     		movs	r3, #32
 482 0030 84F84130 		strb	r3, [r4, #65]
 483 0034 0023     		movs	r3, #0
 484 0036 84F84230 		strb	r3, [r4, #66]
 485 003a 84F84030 		strb	r3, [r4, #64]
 486 003e 0320     		movs	r0, #3
 487              	.L93:
 488 0040 70BD     		pop	{r4, r5, r6, pc}
 489              	.L95:
 490 0042 FFF7FEFF 		bl	HAL_GetTick
 491 0046 801B     		subs	r0, r0, r6
 492 0048 A842     		cmp	r0, r5
 493 004a DDD9     		bls	.L94
 494 004c EBE7     		b	.L96
 495              	.L98:
 496 004e 0120     		movs	r0, #1
 497 0050 F6E7     		b	.L93
 499              		.section	.text.I2C_RequestMemoryWrite,"ax",%progbits
 500              		.align	1
 501              		.syntax unified
 502              		.thumb
 503              		.thumb_func
 504              		.fpu fpv4-sp-d16
 506              	I2C_RequestMemoryWrite:
 507              		@ args = 8, pretend = 0, frame = 0
 508              		@ frame_needed = 0, uses_anonymous_args = 0
 509 0000 2DE9F341 		push	{r0, r1, r4, r5, r6, r7, r8, lr}
 510 0004 DDE90878 		ldrd	r7, r8, [sp, #32]
 511 0008 1E46     		mov	r6, r3
 512 000a 194B     		ldr	r3, .L117
 513 000c 0093     		str	r3, [sp]
 514 000e 0446     		mov	r4, r0
 515 0010 1546     		mov	r5, r2
 516 0012 4FF08073 		mov	r3, #16777216
 517 0016 F2B2     		uxtb	r2, r6
 518 0018 FFF7FEFF 		bl	I2C_TransferConfig
 519 001c 4246     		mov	r2, r8
 520 001e 3946     		mov	r1, r7
 521 0020 2046     		mov	r0, r4
 522 0022 FFF7FEFF 		bl	I2C_WaitOnTXISFlagUntilTimeout
 523 0026 40B1     		cbz	r0, .L102
 524              	.L115:
 525 0028 636C     		ldr	r3, [r4, #68]
 526 002a 042B     		cmp	r3, #4
 527 002c 03D0     		beq	.L103
 528              	.L108:
 529 002e 0320     		movs	r0, #3
 530              	.L104:
 531 0030 02B0     		add	sp, sp, #8
 532              		@ sp needed
 533 0032 BDE8F081 		pop	{r4, r5, r6, r7, r8, pc}
 534              	.L103:
 535 0036 0120     		movs	r0, #1
 536 0038 FAE7     		b	.L104
ARM GAS  C:\Users\q-bir\AppData\Local\Temp\ccTrmgJ3.s 			page 10


 537              	.L102:
 538 003a 012E     		cmp	r6, #1
 539 003c 2368     		ldr	r3, [r4]
 540 003e 0CD1     		bne	.L105
 541              	.L116:
 542 0040 EDB2     		uxtb	r5, r5
 543 0042 9D62     		str	r5, [r3, #40]
 544 0044 0022     		movs	r2, #0
 545 0046 CDF80080 		str	r8, [sp]
 546 004a 3B46     		mov	r3, r7
 547 004c 8021     		movs	r1, #128
 548 004e 2046     		mov	r0, r4
 549 0050 FFF7FEFF 		bl	I2C_WaitOnFlagUntilTimeout
 550 0054 0028     		cmp	r0, #0
 551 0056 EBD0     		beq	.L104
 552 0058 E9E7     		b	.L108
 553              	.L105:
 554 005a 2A0A     		lsrs	r2, r5, #8
 555 005c 9A62     		str	r2, [r3, #40]
 556 005e 3946     		mov	r1, r7
 557 0060 4246     		mov	r2, r8
 558 0062 2046     		mov	r0, r4
 559 0064 FFF7FEFF 		bl	I2C_WaitOnTXISFlagUntilTimeout
 560 0068 0028     		cmp	r0, #0
 561 006a DDD1     		bne	.L115
 562 006c 2368     		ldr	r3, [r4]
 563 006e E7E7     		b	.L116
 564              	.L118:
 565              		.align	2
 566              	.L117:
 567 0070 00200080 		.word	-2147475456
 569              		.section	.text.I2C_RequestMemoryRead,"ax",%progbits
 570              		.align	1
 571              		.syntax unified
 572              		.thumb
 573              		.thumb_func
 574              		.fpu fpv4-sp-d16
 576              	I2C_RequestMemoryRead:
 577              		@ args = 8, pretend = 0, frame = 0
 578              		@ frame_needed = 0, uses_anonymous_args = 0
 579 0000 2DE9F341 		push	{r0, r1, r4, r5, r6, r7, r8, lr}
 580 0004 DDE90878 		ldrd	r7, r8, [sp, #32]
 581 0008 1E46     		mov	r6, r3
 582 000a 194B     		ldr	r3, .L135
 583 000c 0093     		str	r3, [sp]
 584 000e 0446     		mov	r4, r0
 585 0010 1546     		mov	r5, r2
 586 0012 0023     		movs	r3, #0
 587 0014 F2B2     		uxtb	r2, r6
 588 0016 FFF7FEFF 		bl	I2C_TransferConfig
 589 001a 4246     		mov	r2, r8
 590 001c 3946     		mov	r1, r7
 591 001e 2046     		mov	r0, r4
 592 0020 FFF7FEFF 		bl	I2C_WaitOnTXISFlagUntilTimeout
 593 0024 40B1     		cbz	r0, .L120
 594              	.L133:
 595 0026 636C     		ldr	r3, [r4, #68]
ARM GAS  C:\Users\q-bir\AppData\Local\Temp\ccTrmgJ3.s 			page 11


 596 0028 042B     		cmp	r3, #4
 597 002a 03D0     		beq	.L121
 598              	.L126:
 599 002c 0320     		movs	r0, #3
 600              	.L122:
 601 002e 02B0     		add	sp, sp, #8
 602              		@ sp needed
 603 0030 BDE8F081 		pop	{r4, r5, r6, r7, r8, pc}
 604              	.L121:
 605 0034 0120     		movs	r0, #1
 606 0036 FAE7     		b	.L122
 607              	.L120:
 608 0038 012E     		cmp	r6, #1
 609 003a 2368     		ldr	r3, [r4]
 610 003c 0CD1     		bne	.L123
 611              	.L134:
 612 003e EDB2     		uxtb	r5, r5
 613 0040 9D62     		str	r5, [r3, #40]
 614 0042 0022     		movs	r2, #0
 615 0044 CDF80080 		str	r8, [sp]
 616 0048 3B46     		mov	r3, r7
 617 004a 4021     		movs	r1, #64
 618 004c 2046     		mov	r0, r4
 619 004e FFF7FEFF 		bl	I2C_WaitOnFlagUntilTimeout
 620 0052 0028     		cmp	r0, #0
 621 0054 EBD0     		beq	.L122
 622 0056 E9E7     		b	.L126
 623              	.L123:
 624 0058 2A0A     		lsrs	r2, r5, #8
 625 005a 9A62     		str	r2, [r3, #40]
 626 005c 3946     		mov	r1, r7
 627 005e 4246     		mov	r2, r8
 628 0060 2046     		mov	r0, r4
 629 0062 FFF7FEFF 		bl	I2C_WaitOnTXISFlagUntilTimeout
 630 0066 0028     		cmp	r0, #0
 631 0068 DDD1     		bne	.L133
 632 006a 2368     		ldr	r3, [r4]
 633 006c E7E7     		b	.L134
 634              	.L136:
 635 006e 00BF     		.align	2
 636              	.L135:
 637 0070 00200080 		.word	-2147475456
 639              		.section	.text.I2C_DMASlaveReceiveCplt,"ax",%progbits
 640              		.align	1
 641              		.syntax unified
 642              		.thumb
 643              		.thumb_func
 644              		.fpu fpv4-sp-d16
 646              	I2C_DMASlaveReceiveCplt:
 647              		@ args = 0, pretend = 0, frame = 0
 648              		@ frame_needed = 0, uses_anonymous_args = 0
 649              		@ link register save eliminated.
 650 0000 7047     		bx	lr
 652              		.section	.text.I2C_WaitOnSTOPFlagUntilTimeout,"ax",%progbits
 653              		.align	1
 654              		.syntax unified
 655              		.thumb
ARM GAS  C:\Users\q-bir\AppData\Local\Temp\ccTrmgJ3.s 			page 12


 656              		.thumb_func
 657              		.fpu fpv4-sp-d16
 659              	I2C_WaitOnSTOPFlagUntilTimeout:
 660              		@ args = 0, pretend = 0, frame = 0
 661              		@ frame_needed = 0, uses_anonymous_args = 0
 662 0000 70B5     		push	{r4, r5, r6, lr}
 663 0002 0446     		mov	r4, r0
 664 0004 0D46     		mov	r5, r1
 665 0006 1646     		mov	r6, r2
 666              	.L139:
 667 0008 2368     		ldr	r3, [r4]
 668 000a 9B69     		ldr	r3, [r3, #24]
 669 000c 9B06     		lsls	r3, r3, #26
 670 000e 01D5     		bpl	.L143
 671 0010 0020     		movs	r0, #0
 672 0012 13E0     		b	.L140
 673              	.L143:
 674 0014 3246     		mov	r2, r6
 675 0016 2946     		mov	r1, r5
 676 0018 2046     		mov	r0, r4
 677 001a FFF7FEFF 		bl	I2C_IsAcknowledgeFailed
 678 001e A0B9     		cbnz	r0, .L144
 679 0020 6DB9     		cbnz	r5, .L141
 680              	.L142:
 681 0022 636C     		ldr	r3, [r4, #68]
 682 0024 43F02003 		orr	r3, r3, #32
 683 0028 6364     		str	r3, [r4, #68]
 684 002a 2023     		movs	r3, #32
 685 002c 84F84130 		strb	r3, [r4, #65]
 686 0030 0023     		movs	r3, #0
 687 0032 84F84230 		strb	r3, [r4, #66]
 688 0036 84F84030 		strb	r3, [r4, #64]
 689 003a 0320     		movs	r0, #3
 690              	.L140:
 691 003c 70BD     		pop	{r4, r5, r6, pc}
 692              	.L141:
 693 003e FFF7FEFF 		bl	HAL_GetTick
 694 0042 801B     		subs	r0, r0, r6
 695 0044 A842     		cmp	r0, r5
 696 0046 DFD9     		bls	.L139
 697 0048 EBE7     		b	.L142
 698              	.L144:
 699 004a 0120     		movs	r0, #1
 700 004c F6E7     		b	.L140
 702              		.section	.text.HAL_I2C_MspInit,"ax",%progbits
 703              		.align	1
 704              		.weak	HAL_I2C_MspInit
 705              		.syntax unified
 706              		.thumb
 707              		.thumb_func
 708              		.fpu fpv4-sp-d16
 710              	HAL_I2C_MspInit:
 711              		@ args = 0, pretend = 0, frame = 0
 712              		@ frame_needed = 0, uses_anonymous_args = 0
 713              		@ link register save eliminated.
 714 0000 7047     		bx	lr
 716              		.section	.text.HAL_I2C_Init,"ax",%progbits
ARM GAS  C:\Users\q-bir\AppData\Local\Temp\ccTrmgJ3.s 			page 13


 717              		.align	1
 718              		.global	HAL_I2C_Init
 719              		.syntax unified
 720              		.thumb
 721              		.thumb_func
 722              		.fpu fpv4-sp-d16
 724              	HAL_I2C_Init:
 725              		@ args = 0, pretend = 0, frame = 0
 726              		@ frame_needed = 0, uses_anonymous_args = 0
 727 0000 10B5     		push	{r4, lr}
 728 0002 0446     		mov	r4, r0
 729 0004 0028     		cmp	r0, #0
 730 0006 4AD0     		beq	.L151
 731 0008 90F84130 		ldrb	r3, [r0, #65]	@ zero_extendqisi2
 732 000c 03F0FF02 		and	r2, r3, #255
 733 0010 1BB9     		cbnz	r3, .L148
 734 0012 80F84020 		strb	r2, [r0, #64]
 735 0016 FFF7FEFF 		bl	HAL_I2C_MspInit
 736              	.L148:
 737 001a 2423     		movs	r3, #36
 738 001c 84F84130 		strb	r3, [r4, #65]
 739 0020 2368     		ldr	r3, [r4]
 740 0022 1A68     		ldr	r2, [r3]
 741 0024 22F00102 		bic	r2, r2, #1
 742 0028 1A60     		str	r2, [r3]
 743 002a 6268     		ldr	r2, [r4, #4]
 744 002c 22F07062 		bic	r2, r2, #251658240
 745 0030 1A61     		str	r2, [r3, #16]
 746 0032 9A68     		ldr	r2, [r3, #8]
 747 0034 22F40042 		bic	r2, r2, #32768
 748 0038 9A60     		str	r2, [r3, #8]
 749 003a D4E90221 		ldrd	r2, r1, [r4, #8]
 750 003e 0129     		cmp	r1, #1
 751 0040 24D1     		bne	.L149
 752 0042 42F40042 		orr	r2, r2, #32768
 753 0046 9A60     		str	r2, [r3, #8]
 754              	.L150:
 755 0048 5A68     		ldr	r2, [r3, #4]
 756 004a 42F00072 		orr	r2, r2, #33554432
 757 004e 42F40042 		orr	r2, r2, #32768
 758 0052 5A60     		str	r2, [r3, #4]
 759 0054 DA68     		ldr	r2, [r3, #12]
 760 0056 22F40042 		bic	r2, r2, #32768
 761 005a DA60     		str	r2, [r3, #12]
 762 005c D4E90421 		ldrd	r2, r1, [r4, #16]
 763 0060 0A43     		orrs	r2, r2, r1
 764 0062 A169     		ldr	r1, [r4, #24]
 765 0064 42EA0122 		orr	r2, r2, r1, lsl #8
 766 0068 DA60     		str	r2, [r3, #12]
 767 006a D4E90721 		ldrd	r2, r1, [r4, #28]
 768 006e 0A43     		orrs	r2, r2, r1
 769 0070 1A60     		str	r2, [r3]
 770 0072 1A68     		ldr	r2, [r3]
 771 0074 42F00102 		orr	r2, r2, #1
 772 0078 1A60     		str	r2, [r3]
 773 007a 0020     		movs	r0, #0
 774 007c 2023     		movs	r3, #32
ARM GAS  C:\Users\q-bir\AppData\Local\Temp\ccTrmgJ3.s 			page 14


 775 007e 6064     		str	r0, [r4, #68]
 776 0080 84F84130 		strb	r3, [r4, #65]
 777 0084 2063     		str	r0, [r4, #48]
 778 0086 84F84200 		strb	r0, [r4, #66]
 779              	.L147:
 780 008a 10BD     		pop	{r4, pc}
 781              	.L149:
 782 008c 42F40442 		orr	r2, r2, #33792
 783 0090 0229     		cmp	r1, #2
 784 0092 9A60     		str	r2, [r3, #8]
 785 0094 04BF     		itt	eq
 786 0096 4FF40062 		moveq	r2, #2048
 787 009a 5A60     		streq	r2, [r3, #4]
 788 009c D4E7     		b	.L150
 789              	.L151:
 790 009e 0120     		movs	r0, #1
 791 00a0 F3E7     		b	.L147
 793              		.section	.text.HAL_I2C_MspDeInit,"ax",%progbits
 794              		.align	1
 795              		.weak	HAL_I2C_MspDeInit
 796              		.syntax unified
 797              		.thumb
 798              		.thumb_func
 799              		.fpu fpv4-sp-d16
 801              	HAL_I2C_MspDeInit:
 802              		@ args = 0, pretend = 0, frame = 0
 803              		@ frame_needed = 0, uses_anonymous_args = 0
 804              		@ link register save eliminated.
 805 0000 7047     		bx	lr
 807              		.section	.text.HAL_I2C_DeInit,"ax",%progbits
 808              		.align	1
 809              		.global	HAL_I2C_DeInit
 810              		.syntax unified
 811              		.thumb
 812              		.thumb_func
 813              		.fpu fpv4-sp-d16
 815              	HAL_I2C_DeInit:
 816              		@ args = 0, pretend = 0, frame = 0
 817              		@ frame_needed = 0, uses_anonymous_args = 0
 818 0000 10B5     		push	{r4, lr}
 819 0002 0446     		mov	r4, r0
 820 0004 98B1     		cbz	r0, .L155
 821 0006 0268     		ldr	r2, [r0]
 822 0008 2423     		movs	r3, #36
 823 000a 80F84130 		strb	r3, [r0, #65]
 824 000e 1368     		ldr	r3, [r2]
 825 0010 23F00103 		bic	r3, r3, #1
 826 0014 1360     		str	r3, [r2]
 827 0016 FFF7FEFF 		bl	HAL_I2C_MspDeInit
 828 001a 0020     		movs	r0, #0
 829 001c 6064     		str	r0, [r4, #68]
 830 001e 84F84000 		strb	r0, [r4, #64]
 831 0022 84F84100 		strb	r0, [r4, #65]
 832 0026 2063     		str	r0, [r4, #48]
 833 0028 84F84200 		strb	r0, [r4, #66]
 834              	.L154:
 835 002c 10BD     		pop	{r4, pc}
ARM GAS  C:\Users\q-bir\AppData\Local\Temp\ccTrmgJ3.s 			page 15


 836              	.L155:
 837 002e 0120     		movs	r0, #1
 838 0030 FCE7     		b	.L154
 840              		.section	.text.HAL_I2C_Master_Transmit,"ax",%progbits
 841              		.align	1
 842              		.global	HAL_I2C_Master_Transmit
 843              		.syntax unified
 844              		.thumb
 845              		.thumb_func
 846              		.fpu fpv4-sp-d16
 848              	HAL_I2C_Master_Transmit:
 849              		@ args = 4, pretend = 0, frame = 0
 850              		@ frame_needed = 0, uses_anonymous_args = 0
 851 0000 2DE9F347 		push	{r0, r1, r4, r5, r6, r7, r8, r9, r10, lr}
 852 0004 9846     		mov	r8, r3
 853 0006 90F84130 		ldrb	r3, [r0, #65]	@ zero_extendqisi2
 854 000a 0A9F     		ldr	r7, [sp, #40]
 855 000c 202B     		cmp	r3, #32
 856 000e 0446     		mov	r4, r0
 857 0010 0E46     		mov	r6, r1
 858 0012 9146     		mov	r9, r2
 859 0014 40F08A80 		bne	.L169
 860 0018 90F84030 		ldrb	r3, [r0, #64]	@ zero_extendqisi2
 861 001c 012B     		cmp	r3, #1
 862 001e 00F08580 		beq	.L169
 863 0022 4FF0010A 		mov	r10, #1
 864 0026 80F840A0 		strb	r10, [r0, #64]
 865 002a FFF7FEFF 		bl	HAL_GetTick
 866 002e 1923     		movs	r3, #25
 867 0030 0546     		mov	r5, r0
 868 0032 0090     		str	r0, [sp]
 869 0034 5246     		mov	r2, r10
 870 0036 4FF40041 		mov	r1, #32768
 871 003a 2046     		mov	r0, r4
 872 003c FFF7FEFF 		bl	I2C_WaitOnFlagUntilTimeout
 873 0040 0028     		cmp	r0, #0
 874 0042 48D1     		bne	.L158
 875 0044 2123     		movs	r3, #33
 876 0046 84F84130 		strb	r3, [r4, #65]
 877 004a 1023     		movs	r3, #16
 878 004c 84F84230 		strb	r3, [r4, #66]
 879 0050 6064     		str	r0, [r4, #68]
 880 0052 A4F82A80 		strh	r8, [r4, #42]	@ movhi
 881 0056 638D     		ldrh	r3, [r4, #42]
 882 0058 C4F82490 		str	r9, [r4, #36]
 883 005c 9BB2     		uxth	r3, r3
 884 005e FF2B     		cmp	r3, #255
 885 0060 6063     		str	r0, [r4, #52]
 886 0062 334B     		ldr	r3, .L181
 887 0064 25D9     		bls	.L159
 888 0066 FF22     		movs	r2, #255
 889 0068 2285     		strh	r2, [r4, #40]	@ movhi
 890 006a 0093     		str	r3, [sp]
 891              	.L180:
 892 006c 4FF08073 		mov	r3, #16777216
 893              	.L178:
 894 0070 3146     		mov	r1, r6
ARM GAS  C:\Users\q-bir\AppData\Local\Temp\ccTrmgJ3.s 			page 16


 895 0072 2046     		mov	r0, r4
 896 0074 FFF7FEFF 		bl	I2C_TransferConfig
 897              	.L161:
 898 0078 638D     		ldrh	r3, [r4, #42]
 899 007a 9BB2     		uxth	r3, r3
 900 007c 2A46     		mov	r2, r5
 901 007e 3946     		mov	r1, r7
 902 0080 2046     		mov	r0, r4
 903 0082 F3B9     		cbnz	r3, .L165
 904 0084 FFF7FEFF 		bl	I2C_WaitOnSTOPFlagUntilTimeout
 905 0088 F0B9     		cbnz	r0, .L177
 906 008a 2368     		ldr	r3, [r4]
 907 008c 2021     		movs	r1, #32
 908 008e D961     		str	r1, [r3, #28]
 909 0090 5A68     		ldr	r2, [r3, #4]
 910 0092 22F0FF72 		bic	r2, r2, #33423360
 911 0096 22F48B32 		bic	r2, r2, #71168
 912 009a 22F4FF72 		bic	r2, r2, #510
 913 009e 22F00102 		bic	r2, r2, #1
 914 00a2 5A60     		str	r2, [r3, #4]
 915 00a4 84F84110 		strb	r1, [r4, #65]
 916 00a8 84F84000 		strb	r0, [r4, #64]
 917 00ac 84F84200 		strb	r0, [r4, #66]
 918 00b0 0EE0     		b	.L157
 919              	.L159:
 920 00b2 628D     		ldrh	r2, [r4, #42]
 921 00b4 0093     		str	r3, [sp]
 922 00b6 92B2     		uxth	r2, r2
 923 00b8 2285     		strh	r2, [r4, #40]	@ movhi
 924              	.L179:
 925 00ba 4FF00073 		mov	r3, #33554432
 926 00be D2B2     		uxtb	r2, r2
 927 00c0 D6E7     		b	.L178
 928              	.L165:
 929 00c2 FFF7FEFF 		bl	I2C_WaitOnTXISFlagUntilTimeout
 930 00c6 40B1     		cbz	r0, .L162
 931              	.L177:
 932 00c8 636C     		ldr	r3, [r4, #68]
 933 00ca 042B     		cmp	r3, #4
 934 00cc 03D1     		bne	.L158
 935 00ce 0120     		movs	r0, #1
 936              	.L157:
 937 00d0 02B0     		add	sp, sp, #8
 938              		@ sp needed
 939 00d2 BDE8F087 		pop	{r4, r5, r6, r7, r8, r9, r10, pc}
 940              	.L158:
 941 00d6 0320     		movs	r0, #3
 942 00d8 FAE7     		b	.L157
 943              	.L162:
 944 00da 636A     		ldr	r3, [r4, #36]
 945 00dc 5A1C     		adds	r2, r3, #1
 946 00de 6262     		str	r2, [r4, #36]
 947 00e0 2268     		ldr	r2, [r4]
 948 00e2 1B78     		ldrb	r3, [r3]	@ zero_extendqisi2
 949 00e4 9362     		str	r3, [r2, #40]
 950 00e6 638D     		ldrh	r3, [r4, #42]
 951 00e8 228D     		ldrh	r2, [r4, #40]
ARM GAS  C:\Users\q-bir\AppData\Local\Temp\ccTrmgJ3.s 			page 17


 952 00ea 013B     		subs	r3, r3, #1
 953 00ec 013A     		subs	r2, r2, #1
 954 00ee 9BB2     		uxth	r3, r3
 955 00f0 92B2     		uxth	r2, r2
 956 00f2 6385     		strh	r3, [r4, #42]	@ movhi
 957 00f4 2285     		strh	r2, [r4, #40]	@ movhi
 958 00f6 002A     		cmp	r2, #0
 959 00f8 BED1     		bne	.L161
 960 00fa 638D     		ldrh	r3, [r4, #42]
 961 00fc 9BB2     		uxth	r3, r3
 962 00fe 002B     		cmp	r3, #0
 963 0100 BAD0     		beq	.L161
 964 0102 0095     		str	r5, [sp]
 965 0104 3B46     		mov	r3, r7
 966 0106 8021     		movs	r1, #128
 967 0108 2046     		mov	r0, r4
 968 010a FFF7FEFF 		bl	I2C_WaitOnFlagUntilTimeout
 969 010e 0028     		cmp	r0, #0
 970 0110 E1D1     		bne	.L158
 971 0112 638D     		ldrh	r3, [r4, #42]
 972 0114 9BB2     		uxth	r3, r3
 973 0116 FF2B     		cmp	r3, #255
 974 0118 03D9     		bls	.L164
 975 011a FF22     		movs	r2, #255
 976 011c 2285     		strh	r2, [r4, #40]	@ movhi
 977 011e 0090     		str	r0, [sp]
 978 0120 A4E7     		b	.L180
 979              	.L164:
 980 0122 628D     		ldrh	r2, [r4, #42]
 981 0124 0090     		str	r0, [sp]
 982 0126 92B2     		uxth	r2, r2
 983 0128 2285     		strh	r2, [r4, #40]	@ movhi
 984 012a C6E7     		b	.L179
 985              	.L169:
 986 012c 0220     		movs	r0, #2
 987 012e CFE7     		b	.L157
 988              	.L182:
 989              		.align	2
 990              	.L181:
 991 0130 00200080 		.word	-2147475456
 993              		.section	.text.HAL_I2C_Master_Receive,"ax",%progbits
 994              		.align	1
 995              		.global	HAL_I2C_Master_Receive
 996              		.syntax unified
 997              		.thumb
 998              		.thumb_func
 999              		.fpu fpv4-sp-d16
 1001              	HAL_I2C_Master_Receive:
 1002              		@ args = 4, pretend = 0, frame = 0
 1003              		@ frame_needed = 0, uses_anonymous_args = 0
 1004 0000 2DE9F347 		push	{r0, r1, r4, r5, r6, r7, r8, r9, r10, lr}
 1005 0004 9846     		mov	r8, r3
 1006 0006 90F84130 		ldrb	r3, [r0, #65]	@ zero_extendqisi2
 1007 000a 0A9F     		ldr	r7, [sp, #40]
 1008 000c 202B     		cmp	r3, #32
 1009 000e 0446     		mov	r4, r0
 1010 0010 0E46     		mov	r6, r1
ARM GAS  C:\Users\q-bir\AppData\Local\Temp\ccTrmgJ3.s 			page 18


 1011 0012 9146     		mov	r9, r2
 1012 0014 40F08A80 		bne	.L196
 1013 0018 90F84030 		ldrb	r3, [r0, #64]	@ zero_extendqisi2
 1014 001c 012B     		cmp	r3, #1
 1015 001e 00F08580 		beq	.L196
 1016 0022 4FF0010A 		mov	r10, #1
 1017 0026 80F840A0 		strb	r10, [r0, #64]
 1018 002a FFF7FEFF 		bl	HAL_GetTick
 1019 002e 1923     		movs	r3, #25
 1020 0030 0546     		mov	r5, r0
 1021 0032 0090     		str	r0, [sp]
 1022 0034 5246     		mov	r2, r10
 1023 0036 4FF40041 		mov	r1, #32768
 1024 003a 2046     		mov	r0, r4
 1025 003c FFF7FEFF 		bl	I2C_WaitOnFlagUntilTimeout
 1026 0040 0028     		cmp	r0, #0
 1027 0042 48D1     		bne	.L185
 1028 0044 2223     		movs	r3, #34
 1029 0046 84F84130 		strb	r3, [r4, #65]
 1030 004a 1023     		movs	r3, #16
 1031 004c 84F84230 		strb	r3, [r4, #66]
 1032 0050 6064     		str	r0, [r4, #68]
 1033 0052 A4F82A80 		strh	r8, [r4, #42]	@ movhi
 1034 0056 638D     		ldrh	r3, [r4, #42]
 1035 0058 C4F82490 		str	r9, [r4, #36]
 1036 005c 9BB2     		uxth	r3, r3
 1037 005e FF2B     		cmp	r3, #255
 1038 0060 6063     		str	r0, [r4, #52]
 1039 0062 334B     		ldr	r3, .L208
 1040 0064 25D9     		bls	.L186
 1041 0066 FF22     		movs	r2, #255
 1042 0068 2285     		strh	r2, [r4, #40]	@ movhi
 1043 006a 0093     		str	r3, [sp]
 1044              	.L207:
 1045 006c 4FF08073 		mov	r3, #16777216
 1046              	.L205:
 1047 0070 3146     		mov	r1, r6
 1048 0072 2046     		mov	r0, r4
 1049 0074 FFF7FEFF 		bl	I2C_TransferConfig
 1050              	.L188:
 1051 0078 638D     		ldrh	r3, [r4, #42]
 1052 007a 9BB2     		uxth	r3, r3
 1053 007c 2A46     		mov	r2, r5
 1054 007e 3946     		mov	r1, r7
 1055 0080 2046     		mov	r0, r4
 1056 0082 F3B9     		cbnz	r3, .L192
 1057 0084 FFF7FEFF 		bl	I2C_WaitOnSTOPFlagUntilTimeout
 1058 0088 F0B9     		cbnz	r0, .L204
 1059 008a 2368     		ldr	r3, [r4]
 1060 008c 2021     		movs	r1, #32
 1061 008e D961     		str	r1, [r3, #28]
 1062 0090 5A68     		ldr	r2, [r3, #4]
 1063 0092 22F0FF72 		bic	r2, r2, #33423360
 1064 0096 22F48B32 		bic	r2, r2, #71168
 1065 009a 22F4FF72 		bic	r2, r2, #510
 1066 009e 22F00102 		bic	r2, r2, #1
 1067 00a2 5A60     		str	r2, [r3, #4]
ARM GAS  C:\Users\q-bir\AppData\Local\Temp\ccTrmgJ3.s 			page 19


 1068 00a4 84F84110 		strb	r1, [r4, #65]
 1069 00a8 84F84000 		strb	r0, [r4, #64]
 1070 00ac 84F84200 		strb	r0, [r4, #66]
 1071 00b0 0EE0     		b	.L184
 1072              	.L186:
 1073 00b2 628D     		ldrh	r2, [r4, #42]
 1074 00b4 0093     		str	r3, [sp]
 1075 00b6 92B2     		uxth	r2, r2
 1076 00b8 2285     		strh	r2, [r4, #40]	@ movhi
 1077              	.L206:
 1078 00ba 4FF00073 		mov	r3, #33554432
 1079 00be D2B2     		uxtb	r2, r2
 1080 00c0 D6E7     		b	.L205
 1081              	.L192:
 1082 00c2 FFF7FEFF 		bl	I2C_WaitOnRXNEFlagUntilTimeout
 1083 00c6 40B1     		cbz	r0, .L189
 1084              	.L204:
 1085 00c8 636C     		ldr	r3, [r4, #68]
 1086 00ca 042B     		cmp	r3, #4
 1087 00cc 03D1     		bne	.L185
 1088 00ce 0120     		movs	r0, #1
 1089              	.L184:
 1090 00d0 02B0     		add	sp, sp, #8
 1091              		@ sp needed
 1092 00d2 BDE8F087 		pop	{r4, r5, r6, r7, r8, r9, r10, pc}
 1093              	.L185:
 1094 00d6 0320     		movs	r0, #3
 1095 00d8 FAE7     		b	.L184
 1096              	.L189:
 1097 00da 2368     		ldr	r3, [r4]
 1098 00dc 5A6A     		ldr	r2, [r3, #36]
 1099 00de 636A     		ldr	r3, [r4, #36]
 1100 00e0 591C     		adds	r1, r3, #1
 1101 00e2 6162     		str	r1, [r4, #36]
 1102 00e4 1A70     		strb	r2, [r3]
 1103 00e6 228D     		ldrh	r2, [r4, #40]
 1104 00e8 638D     		ldrh	r3, [r4, #42]
 1105 00ea 013A     		subs	r2, r2, #1
 1106 00ec 013B     		subs	r3, r3, #1
 1107 00ee 92B2     		uxth	r2, r2
 1108 00f0 9BB2     		uxth	r3, r3
 1109 00f2 2285     		strh	r2, [r4, #40]	@ movhi
 1110 00f4 6385     		strh	r3, [r4, #42]	@ movhi
 1111 00f6 002A     		cmp	r2, #0
 1112 00f8 BED1     		bne	.L188
 1113 00fa 638D     		ldrh	r3, [r4, #42]
 1114 00fc 9BB2     		uxth	r3, r3
 1115 00fe 002B     		cmp	r3, #0
 1116 0100 BAD0     		beq	.L188
 1117 0102 0095     		str	r5, [sp]
 1118 0104 3B46     		mov	r3, r7
 1119 0106 8021     		movs	r1, #128
 1120 0108 2046     		mov	r0, r4
 1121 010a FFF7FEFF 		bl	I2C_WaitOnFlagUntilTimeout
 1122 010e 0028     		cmp	r0, #0
 1123 0110 E1D1     		bne	.L185
 1124 0112 638D     		ldrh	r3, [r4, #42]
ARM GAS  C:\Users\q-bir\AppData\Local\Temp\ccTrmgJ3.s 			page 20


 1125 0114 9BB2     		uxth	r3, r3
 1126 0116 FF2B     		cmp	r3, #255
 1127 0118 03D9     		bls	.L191
 1128 011a FF22     		movs	r2, #255
 1129 011c 2285     		strh	r2, [r4, #40]	@ movhi
 1130 011e 0090     		str	r0, [sp]
 1131 0120 A4E7     		b	.L207
 1132              	.L191:
 1133 0122 628D     		ldrh	r2, [r4, #42]
 1134 0124 0090     		str	r0, [sp]
 1135 0126 92B2     		uxth	r2, r2
 1136 0128 2285     		strh	r2, [r4, #40]	@ movhi
 1137 012a C6E7     		b	.L206
 1138              	.L196:
 1139 012c 0220     		movs	r0, #2
 1140 012e CFE7     		b	.L184
 1141              	.L209:
 1142              		.align	2
 1143              	.L208:
 1144 0130 00240080 		.word	-2147474432
 1146              		.section	.text.HAL_I2C_Slave_Transmit,"ax",%progbits
 1147              		.align	1
 1148              		.global	HAL_I2C_Slave_Transmit
 1149              		.syntax unified
 1150              		.thumb
 1151              		.thumb_func
 1152              		.fpu fpv4-sp-d16
 1154              	HAL_I2C_Slave_Transmit:
 1155              		@ args = 0, pretend = 0, frame = 0
 1156              		@ frame_needed = 0, uses_anonymous_args = 0
 1157 0000 2DE9F743 		push	{r0, r1, r2, r4, r5, r6, r7, r8, r9, lr}
 1158 0004 1D46     		mov	r5, r3
 1159 0006 90F84130 		ldrb	r3, [r0, #65]	@ zero_extendqisi2
 1160 000a 202B     		cmp	r3, #32
 1161 000c 0446     		mov	r4, r0
 1162 000e 8846     		mov	r8, r1
 1163 0010 1746     		mov	r7, r2
 1164 0012 5FFA83F9 		uxtb	r9, r3
 1165 0016 40F08F80 		bne	.L224
 1166 001a 19B9     		cbnz	r1, .L212
 1167              	.L213:
 1168 001c 0120     		movs	r0, #1
 1169              	.L211:
 1170 001e 03B0     		add	sp, sp, #12
 1171              		@ sp needed
 1172 0020 BDE8F083 		pop	{r4, r5, r6, r7, r8, r9, pc}
 1173              	.L212:
 1174 0024 002A     		cmp	r2, #0
 1175 0026 F9D0     		beq	.L213
 1176 0028 90F84030 		ldrb	r3, [r0, #64]	@ zero_extendqisi2
 1177 002c 012B     		cmp	r3, #1
 1178 002e 00F08380 		beq	.L224
 1179 0032 0123     		movs	r3, #1
 1180 0034 80F84030 		strb	r3, [r0, #64]
 1181 0038 FFF7FEFF 		bl	HAL_GetTick
 1182 003c 2168     		ldr	r1, [r4]
 1183 003e C4F82480 		str	r8, [r4, #36]
ARM GAS  C:\Users\q-bir\AppData\Local\Temp\ccTrmgJ3.s 			page 21


 1184 0042 0022     		movs	r2, #0
 1185 0044 2123     		movs	r3, #33
 1186 0046 84F84130 		strb	r3, [r4, #65]
 1187 004a 84F84290 		strb	r9, [r4, #66]
 1188 004e 6264     		str	r2, [r4, #68]
 1189 0050 6785     		strh	r7, [r4, #42]	@ movhi
 1190 0052 4B68     		ldr	r3, [r1, #4]
 1191 0054 6263     		str	r2, [r4, #52]
 1192 0056 23F40043 		bic	r3, r3, #32768
 1193 005a 4B60     		str	r3, [r1, #4]
 1194 005c 0646     		mov	r6, r0
 1195 005e 0090     		str	r0, [sp]
 1196 0060 2B46     		mov	r3, r5
 1197 0062 0821     		movs	r1, #8
 1198 0064 2046     		mov	r0, r4
 1199 0066 FFF7FEFF 		bl	I2C_WaitOnFlagUntilTimeout
 1200 006a 2368     		ldr	r3, [r4]
 1201 006c 0246     		mov	r2, r0
 1202 006e 28B1     		cbz	r0, .L214
 1203              	.L236:
 1204 0070 5A68     		ldr	r2, [r3, #4]
 1205 0072 42F40042 		orr	r2, r2, #32768
 1206 0076 5A60     		str	r2, [r3, #4]
 1207              	.L237:
 1208 0078 0320     		movs	r0, #3
 1209 007a D0E7     		b	.L211
 1210              	.L214:
 1211 007c 0827     		movs	r7, #8
 1212 007e DF61     		str	r7, [r3, #28]
 1213 0080 E368     		ldr	r3, [r4, #12]
 1214 0082 022B     		cmp	r3, #2
 1215 0084 09D1     		bne	.L215
 1216 0086 2B46     		mov	r3, r5
 1217 0088 0096     		str	r6, [sp]
 1218 008a 3946     		mov	r1, r7
 1219 008c 2046     		mov	r0, r4
 1220 008e FFF7FEFF 		bl	I2C_WaitOnFlagUntilTimeout
 1221 0092 2368     		ldr	r3, [r4]
 1222 0094 0028     		cmp	r0, #0
 1223 0096 EBD1     		bne	.L236
 1224 0098 DF61     		str	r7, [r3, #28]
 1225              	.L215:
 1226 009a 0096     		str	r6, [sp]
 1227 009c 2B46     		mov	r3, r5
 1228 009e 0022     		movs	r2, #0
 1229 00a0 4FF48031 		mov	r1, #65536
 1230 00a4 2046     		mov	r0, r4
 1231 00a6 FFF7FEFF 		bl	I2C_WaitOnFlagUntilTimeout
 1232 00aa D0B1     		cbz	r0, .L217
 1233 00ac 2268     		ldr	r2, [r4]
 1234 00ae 5368     		ldr	r3, [r2, #4]
 1235 00b0 43F40043 		orr	r3, r3, #32768
 1236 00b4 5360     		str	r3, [r2, #4]
 1237 00b6 DFE7     		b	.L237
 1238              	.L219:
 1239 00b8 FFF7FEFF 		bl	I2C_WaitOnTXISFlagUntilTimeout
 1240 00bc 2368     		ldr	r3, [r4]
ARM GAS  C:\Users\q-bir\AppData\Local\Temp\ccTrmgJ3.s 			page 22


 1241 00be 38B1     		cbz	r0, .L218
 1242 00c0 5A68     		ldr	r2, [r3, #4]
 1243 00c2 42F40042 		orr	r2, r2, #32768
 1244 00c6 5A60     		str	r2, [r3, #4]
 1245 00c8 636C     		ldr	r3, [r4, #68]
 1246 00ca 042B     		cmp	r3, #4
 1247 00cc D4D1     		bne	.L237
 1248 00ce A5E7     		b	.L213
 1249              	.L218:
 1250 00d0 626A     		ldr	r2, [r4, #36]
 1251 00d2 511C     		adds	r1, r2, #1
 1252 00d4 6162     		str	r1, [r4, #36]
 1253 00d6 1278     		ldrb	r2, [r2]	@ zero_extendqisi2
 1254 00d8 9A62     		str	r2, [r3, #40]
 1255 00da 638D     		ldrh	r3, [r4, #42]
 1256 00dc 013B     		subs	r3, r3, #1
 1257 00de 9BB2     		uxth	r3, r3
 1258 00e0 6385     		strh	r3, [r4, #42]	@ movhi
 1259              	.L217:
 1260 00e2 678D     		ldrh	r7, [r4, #42]
 1261 00e4 BFB2     		uxth	r7, r7
 1262 00e6 3246     		mov	r2, r6
 1263 00e8 2946     		mov	r1, r5
 1264 00ea 2046     		mov	r0, r4
 1265 00ec 002F     		cmp	r7, #0
 1266 00ee E3D1     		bne	.L219
 1267 00f0 FFF7FEFF 		bl	I2C_WaitOnSTOPFlagUntilTimeout
 1268 00f4 2368     		ldr	r3, [r4]
 1269 00f6 38B1     		cbz	r0, .L220
 1270 00f8 5A68     		ldr	r2, [r3, #4]
 1271 00fa 42F40042 		orr	r2, r2, #32768
 1272 00fe 5A60     		str	r2, [r3, #4]
 1273 0100 626C     		ldr	r2, [r4, #68]
 1274 0102 042A     		cmp	r2, #4
 1275 0104 B8D1     		bne	.L237
 1276 0106 6764     		str	r7, [r4, #68]
 1277              	.L220:
 1278 0108 2027     		movs	r7, #32
 1279 010a DF61     		str	r7, [r3, #28]
 1280 010c 0122     		movs	r2, #1
 1281 010e 2B46     		mov	r3, r5
 1282 0110 0096     		str	r6, [sp]
 1283 0112 4FF40041 		mov	r1, #32768
 1284 0116 2046     		mov	r0, r4
 1285 0118 FFF7FEFF 		bl	I2C_WaitOnFlagUntilTimeout
 1286 011c 2368     		ldr	r3, [r4]
 1287 011e 5A68     		ldr	r2, [r3, #4]
 1288 0120 42F40042 		orr	r2, r2, #32768
 1289 0124 5A60     		str	r2, [r3, #4]
 1290 0126 0028     		cmp	r0, #0
 1291 0128 A6D1     		bne	.L237
 1292 012a 84F84170 		strb	r7, [r4, #65]
 1293 012e 84F84000 		strb	r0, [r4, #64]
 1294 0132 84F84200 		strb	r0, [r4, #66]
 1295 0136 72E7     		b	.L211
 1296              	.L224:
 1297 0138 0220     		movs	r0, #2
ARM GAS  C:\Users\q-bir\AppData\Local\Temp\ccTrmgJ3.s 			page 23


 1298 013a 70E7     		b	.L211
 1300              		.section	.text.HAL_I2C_Slave_Receive,"ax",%progbits
 1301              		.align	1
 1302              		.global	HAL_I2C_Slave_Receive
 1303              		.syntax unified
 1304              		.thumb
 1305              		.thumb_func
 1306              		.fpu fpv4-sp-d16
 1308              	HAL_I2C_Slave_Receive:
 1309              		@ args = 0, pretend = 0, frame = 0
 1310              		@ frame_needed = 0, uses_anonymous_args = 0
 1311 0000 2DE9F347 		push	{r0, r1, r4, r5, r6, r7, r8, r9, r10, lr}
 1312 0004 1D46     		mov	r5, r3
 1313 0006 90F84130 		ldrb	r3, [r0, #65]	@ zero_extendqisi2
 1314 000a 202B     		cmp	r3, #32
 1315 000c 0446     		mov	r4, r0
 1316 000e 8846     		mov	r8, r1
 1317 0010 1746     		mov	r7, r2
 1318 0012 5FFA83FA 		uxtb	r10, r3
 1319 0016 40F08E80 		bne	.L250
 1320 001a 0029     		cmp	r1, #0
 1321 001c 53D0     		beq	.L240
 1322 001e 002A     		cmp	r2, #0
 1323 0020 51D0     		beq	.L240
 1324 0022 90F84030 		ldrb	r3, [r0, #64]	@ zero_extendqisi2
 1325 0026 012B     		cmp	r3, #1
 1326 0028 00F08580 		beq	.L250
 1327 002c 4FF00109 		mov	r9, #1
 1328 0030 80F84090 		strb	r9, [r0, #64]
 1329 0034 FFF7FEFF 		bl	HAL_GetTick
 1330 0038 2168     		ldr	r1, [r4]
 1331 003a C4F82480 		str	r8, [r4, #36]
 1332 003e 0022     		movs	r2, #0
 1333 0040 2223     		movs	r3, #34
 1334 0042 84F84130 		strb	r3, [r4, #65]
 1335 0046 84F842A0 		strb	r10, [r4, #66]
 1336 004a 6264     		str	r2, [r4, #68]
 1337 004c 6785     		strh	r7, [r4, #42]	@ movhi
 1338 004e 4B68     		ldr	r3, [r1, #4]
 1339 0050 6263     		str	r2, [r4, #52]
 1340 0052 23F40043 		bic	r3, r3, #32768
 1341 0056 4B60     		str	r3, [r1, #4]
 1342 0058 0646     		mov	r6, r0
 1343 005a 0090     		str	r0, [sp]
 1344 005c 2B46     		mov	r3, r5
 1345 005e 0821     		movs	r1, #8
 1346 0060 2046     		mov	r0, r4
 1347 0062 FFF7FEFF 		bl	I2C_WaitOnFlagUntilTimeout
 1348 0066 2368     		ldr	r3, [r4]
 1349 0068 28B1     		cbz	r0, .L241
 1350 006a 5A68     		ldr	r2, [r3, #4]
 1351 006c 42F40042 		orr	r2, r2, #32768
 1352 0070 5A60     		str	r2, [r3, #4]
 1353              	.L268:
 1354 0072 0320     		movs	r0, #3
 1355 0074 28E0     		b	.L239
 1356              	.L241:
ARM GAS  C:\Users\q-bir\AppData\Local\Temp\ccTrmgJ3.s 			page 24


 1357 0076 0822     		movs	r2, #8
 1358 0078 DA61     		str	r2, [r3, #28]
 1359 007a 4FF48031 		mov	r1, #65536
 1360 007e 0096     		str	r6, [sp]
 1361 0080 2B46     		mov	r3, r5
 1362 0082 4A46     		mov	r2, r9
 1363 0084 2046     		mov	r0, r4
 1364 0086 FFF7FEFF 		bl	I2C_WaitOnFlagUntilTimeout
 1365 008a 48B3     		cbz	r0, .L242
 1366 008c 2268     		ldr	r2, [r4]
 1367 008e 5368     		ldr	r3, [r2, #4]
 1368 0090 43F40043 		orr	r3, r3, #32768
 1369 0094 5360     		str	r3, [r2, #4]
 1370 0096 ECE7     		b	.L268
 1371              	.L246:
 1372 0098 FFF7FEFF 		bl	I2C_WaitOnRXNEFlagUntilTimeout
 1373 009c 2368     		ldr	r3, [r4]
 1374 009e B0B1     		cbz	r0, .L243
 1375 00a0 5A68     		ldr	r2, [r3, #4]
 1376 00a2 42F40042 		orr	r2, r2, #32768
 1377 00a6 5A60     		str	r2, [r3, #4]
 1378 00a8 9A69     		ldr	r2, [r3, #24]
 1379 00aa 5207     		lsls	r2, r2, #29
 1380 00ac 08D5     		bpl	.L244
 1381 00ae 5A6A     		ldr	r2, [r3, #36]
 1382 00b0 636A     		ldr	r3, [r4, #36]
 1383 00b2 591C     		adds	r1, r3, #1
 1384 00b4 6162     		str	r1, [r4, #36]
 1385 00b6 1A70     		strb	r2, [r3]
 1386 00b8 638D     		ldrh	r3, [r4, #42]
 1387 00ba 013B     		subs	r3, r3, #1
 1388 00bc 9BB2     		uxth	r3, r3
 1389 00be 6385     		strh	r3, [r4, #42]	@ movhi
 1390              	.L244:
 1391 00c0 636C     		ldr	r3, [r4, #68]
 1392 00c2 202B     		cmp	r3, #32
 1393 00c4 D5D0     		beq	.L268
 1394              	.L240:
 1395 00c6 0120     		movs	r0, #1
 1396              	.L239:
 1397 00c8 02B0     		add	sp, sp, #8
 1398              		@ sp needed
 1399 00ca BDE8F087 		pop	{r4, r5, r6, r7, r8, r9, r10, pc}
 1400              	.L243:
 1401 00ce 5A6A     		ldr	r2, [r3, #36]
 1402 00d0 636A     		ldr	r3, [r4, #36]
 1403 00d2 591C     		adds	r1, r3, #1
 1404 00d4 6162     		str	r1, [r4, #36]
 1405 00d6 1A70     		strb	r2, [r3]
 1406 00d8 638D     		ldrh	r3, [r4, #42]
 1407 00da 013B     		subs	r3, r3, #1
 1408 00dc 9BB2     		uxth	r3, r3
 1409 00de 6385     		strh	r3, [r4, #42]	@ movhi
 1410              	.L242:
 1411 00e0 638D     		ldrh	r3, [r4, #42]
 1412 00e2 9BB2     		uxth	r3, r3
 1413 00e4 3246     		mov	r2, r6
ARM GAS  C:\Users\q-bir\AppData\Local\Temp\ccTrmgJ3.s 			page 25


 1414 00e6 2946     		mov	r1, r5
 1415 00e8 2046     		mov	r0, r4
 1416 00ea 002B     		cmp	r3, #0
 1417 00ec D4D1     		bne	.L246
 1418 00ee FFF7FEFF 		bl	I2C_WaitOnSTOPFlagUntilTimeout
 1419 00f2 2368     		ldr	r3, [r4]
 1420 00f4 38B1     		cbz	r0, .L247
 1421 00f6 5A68     		ldr	r2, [r3, #4]
 1422 00f8 42F40042 		orr	r2, r2, #32768
 1423 00fc 5A60     		str	r2, [r3, #4]
 1424 00fe 636C     		ldr	r3, [r4, #68]
 1425 0100 042B     		cmp	r3, #4
 1426 0102 B6D1     		bne	.L268
 1427 0104 DFE7     		b	.L240
 1428              	.L247:
 1429 0106 2027     		movs	r7, #32
 1430 0108 DF61     		str	r7, [r3, #28]
 1431 010a 0122     		movs	r2, #1
 1432 010c 2B46     		mov	r3, r5
 1433 010e 0096     		str	r6, [sp]
 1434 0110 4FF40041 		mov	r1, #32768
 1435 0114 2046     		mov	r0, r4
 1436 0116 FFF7FEFF 		bl	I2C_WaitOnFlagUntilTimeout
 1437 011a 2368     		ldr	r3, [r4]
 1438 011c 5A68     		ldr	r2, [r3, #4]
 1439 011e 42F40042 		orr	r2, r2, #32768
 1440 0122 5A60     		str	r2, [r3, #4]
 1441 0124 0028     		cmp	r0, #0
 1442 0126 A4D1     		bne	.L268
 1443 0128 84F84170 		strb	r7, [r4, #65]
 1444 012c 84F84000 		strb	r0, [r4, #64]
 1445 0130 84F84200 		strb	r0, [r4, #66]
 1446 0134 C8E7     		b	.L239
 1447              	.L250:
 1448 0136 0220     		movs	r0, #2
 1449 0138 C6E7     		b	.L239
 1451              		.section	.text.HAL_I2C_Master_Transmit_IT,"ax",%progbits
 1452              		.align	1
 1453              		.global	HAL_I2C_Master_Transmit_IT
 1454              		.syntax unified
 1455              		.thumb
 1456              		.thumb_func
 1457              		.fpu fpv4-sp-d16
 1459              	HAL_I2C_Master_Transmit_IT:
 1460              		@ args = 0, pretend = 0, frame = 0
 1461              		@ frame_needed = 0, uses_anonymous_args = 0
 1462 0000 37B5     		push	{r0, r1, r2, r4, r5, lr}
 1463 0002 0446     		mov	r4, r0
 1464 0004 90F84100 		ldrb	r0, [r0, #65]	@ zero_extendqisi2
 1465 0008 2028     		cmp	r0, #32
 1466 000a 35D1     		bne	.L274
 1467 000c 2068     		ldr	r0, [r4]
 1468 000e 8069     		ldr	r0, [r0, #24]
 1469 0010 10F40040 		ands	r0, r0, #32768
 1470 0014 30D1     		bne	.L274
 1471 0016 94F84050 		ldrb	r5, [r4, #64]	@ zero_extendqisi2
 1472 001a 012D     		cmp	r5, #1
ARM GAS  C:\Users\q-bir\AppData\Local\Temp\ccTrmgJ3.s 			page 26


 1473 001c 2CD0     		beq	.L274
 1474 001e 0125     		movs	r5, #1
 1475 0020 84F84050 		strb	r5, [r4, #64]
 1476 0024 2125     		movs	r5, #33
 1477 0026 84F84150 		strb	r5, [r4, #65]
 1478 002a 1025     		movs	r5, #16
 1479 002c 84F84250 		strb	r5, [r4, #66]
 1480 0030 6064     		str	r0, [r4, #68]
 1481 0032 6385     		strh	r3, [r4, #42]	@ movhi
 1482 0034 114B     		ldr	r3, .L276
 1483 0036 E362     		str	r3, [r4, #44]
 1484 0038 114B     		ldr	r3, .L276+4
 1485 003a 6363     		str	r3, [r4, #52]
 1486 003c 638D     		ldrh	r3, [r4, #42]
 1487 003e 6262     		str	r2, [r4, #36]
 1488 0040 9BB2     		uxth	r3, r3
 1489 0042 FF2B     		cmp	r3, #255
 1490 0044 98BF     		it	ls
 1491 0046 628D     		ldrhls	r2, [r4, #42]
 1492 0048 0E48     		ldr	r0, .L276+8
 1493 004a 0090     		str	r0, [sp]
 1494 004c 95BF     		itete	ls
 1495 004e 92B2     		uxthls	r2, r2
 1496 0050 FF22     		movhi	r2, #255
 1497 0052 4FF00073 		movls	r3, #33554432
 1498 0056 4FF08073 		movhi	r3, #16777216
 1499 005a 2285     		strh	r2, [r4, #40]	@ movhi
 1500 005c 2046     		mov	r0, r4
 1501 005e D2B2     		uxtb	r2, r2
 1502 0060 0025     		movs	r5, #0
 1503 0062 FFF7FEFF 		bl	I2C_TransferConfig
 1504 0066 84F84050 		strb	r5, [r4, #64]
 1505 006a 0121     		movs	r1, #1
 1506 006c 2046     		mov	r0, r4
 1507 006e FFF7FEFF 		bl	I2C_Enable_IRQ
 1508 0072 2846     		mov	r0, r5
 1509              	.L270:
 1510 0074 03B0     		add	sp, sp, #12
 1511              		@ sp needed
 1512 0076 30BD     		pop	{r4, r5, pc}
 1513              	.L274:
 1514 0078 0220     		movs	r0, #2
 1515 007a FBE7     		b	.L270
 1516              	.L277:
 1517              		.align	2
 1518              	.L276:
 1519 007c 0000FFFF 		.word	-65536
 1520 0080 00000000 		.word	I2C_Master_ISR_IT
 1521 0084 00200080 		.word	-2147475456
 1523              		.section	.text.HAL_I2C_Master_Receive_IT,"ax",%progbits
 1524              		.align	1
 1525              		.global	HAL_I2C_Master_Receive_IT
 1526              		.syntax unified
 1527              		.thumb
 1528              		.thumb_func
 1529              		.fpu fpv4-sp-d16
 1531              	HAL_I2C_Master_Receive_IT:
ARM GAS  C:\Users\q-bir\AppData\Local\Temp\ccTrmgJ3.s 			page 27


 1532              		@ args = 0, pretend = 0, frame = 0
 1533              		@ frame_needed = 0, uses_anonymous_args = 0
 1534 0000 37B5     		push	{r0, r1, r2, r4, r5, lr}
 1535 0002 0446     		mov	r4, r0
 1536 0004 90F84100 		ldrb	r0, [r0, #65]	@ zero_extendqisi2
 1537 0008 2028     		cmp	r0, #32
 1538 000a 35D1     		bne	.L283
 1539 000c 2068     		ldr	r0, [r4]
 1540 000e 8069     		ldr	r0, [r0, #24]
 1541 0010 10F40040 		ands	r0, r0, #32768
 1542 0014 30D1     		bne	.L283
 1543 0016 94F84050 		ldrb	r5, [r4, #64]	@ zero_extendqisi2
 1544 001a 012D     		cmp	r5, #1
 1545 001c 2CD0     		beq	.L283
 1546 001e 0125     		movs	r5, #1
 1547 0020 84F84050 		strb	r5, [r4, #64]
 1548 0024 2225     		movs	r5, #34
 1549 0026 84F84150 		strb	r5, [r4, #65]
 1550 002a 1025     		movs	r5, #16
 1551 002c 84F84250 		strb	r5, [r4, #66]
 1552 0030 6064     		str	r0, [r4, #68]
 1553 0032 6385     		strh	r3, [r4, #42]	@ movhi
 1554 0034 114B     		ldr	r3, .L285
 1555 0036 E362     		str	r3, [r4, #44]
 1556 0038 114B     		ldr	r3, .L285+4
 1557 003a 6363     		str	r3, [r4, #52]
 1558 003c 638D     		ldrh	r3, [r4, #42]
 1559 003e 6262     		str	r2, [r4, #36]
 1560 0040 9BB2     		uxth	r3, r3
 1561 0042 FF2B     		cmp	r3, #255
 1562 0044 98BF     		it	ls
 1563 0046 628D     		ldrhls	r2, [r4, #42]
 1564 0048 0E48     		ldr	r0, .L285+8
 1565 004a 0090     		str	r0, [sp]
 1566 004c 95BF     		itete	ls
 1567 004e 92B2     		uxthls	r2, r2
 1568 0050 FF22     		movhi	r2, #255
 1569 0052 4FF00073 		movls	r3, #33554432
 1570 0056 4FF08073 		movhi	r3, #16777216
 1571 005a 2285     		strh	r2, [r4, #40]	@ movhi
 1572 005c 2046     		mov	r0, r4
 1573 005e D2B2     		uxtb	r2, r2
 1574 0060 0025     		movs	r5, #0
 1575 0062 FFF7FEFF 		bl	I2C_TransferConfig
 1576 0066 84F84050 		strb	r5, [r4, #64]
 1577 006a 0221     		movs	r1, #2
 1578 006c 2046     		mov	r0, r4
 1579 006e FFF7FEFF 		bl	I2C_Enable_IRQ
 1580 0072 2846     		mov	r0, r5
 1581              	.L279:
 1582 0074 03B0     		add	sp, sp, #12
 1583              		@ sp needed
 1584 0076 30BD     		pop	{r4, r5, pc}
 1585              	.L283:
 1586 0078 0220     		movs	r0, #2
 1587 007a FBE7     		b	.L279
 1588              	.L286:
ARM GAS  C:\Users\q-bir\AppData\Local\Temp\ccTrmgJ3.s 			page 28


 1589              		.align	2
 1590              	.L285:
 1591 007c 0000FFFF 		.word	-65536
 1592 0080 00000000 		.word	I2C_Master_ISR_IT
 1593 0084 00240080 		.word	-2147474432
 1595              		.section	.text.HAL_I2C_Slave_Transmit_IT,"ax",%progbits
 1596              		.align	1
 1597              		.global	HAL_I2C_Slave_Transmit_IT
 1598              		.syntax unified
 1599              		.thumb
 1600              		.thumb_func
 1601              		.fpu fpv4-sp-d16
 1603              	HAL_I2C_Slave_Transmit_IT:
 1604              		@ args = 0, pretend = 0, frame = 0
 1605              		@ frame_needed = 0, uses_anonymous_args = 0
 1606 0000 70B5     		push	{r4, r5, r6, lr}
 1607 0002 90F84140 		ldrb	r4, [r0, #65]	@ zero_extendqisi2
 1608 0006 202C     		cmp	r4, #32
 1609 0008 E5B2     		uxtb	r5, r4
 1610 000a 1ED1     		bne	.L290
 1611 000c 90F84040 		ldrb	r4, [r0, #64]	@ zero_extendqisi2
 1612 0010 012C     		cmp	r4, #1
 1613 0012 1AD0     		beq	.L290
 1614 0014 2124     		movs	r4, #33
 1615 0016 80F84140 		strb	r4, [r0, #65]
 1616 001a 0668     		ldr	r6, [r0]
 1617 001c 80F84250 		strb	r5, [r0, #66]
 1618 0020 0024     		movs	r4, #0
 1619 0022 4464     		str	r4, [r0, #68]
 1620 0024 7568     		ldr	r5, [r6, #4]
 1621 0026 25F40045 		bic	r5, r5, #32768
 1622 002a 7560     		str	r5, [r6, #4]
 1623 002c 4285     		strh	r2, [r0, #42]	@ movhi
 1624 002e 428D     		ldrh	r2, [r0, #42]
 1625 0030 0285     		strh	r2, [r0, #40]	@ movhi
 1626 0032 074A     		ldr	r2, .L291
 1627 0034 C262     		str	r2, [r0, #44]
 1628 0036 074A     		ldr	r2, .L291+4
 1629 0038 4162     		str	r1, [r0, #36]
 1630 003a 4263     		str	r2, [r0, #52]
 1631 003c 80F84040 		strb	r4, [r0, #64]
 1632 0040 0521     		movs	r1, #5
 1633 0042 FFF7FEFF 		bl	I2C_Enable_IRQ
 1634 0046 2046     		mov	r0, r4
 1635              	.L288:
 1636 0048 70BD     		pop	{r4, r5, r6, pc}
 1637              	.L290:
 1638 004a 0220     		movs	r0, #2
 1639 004c FCE7     		b	.L288
 1640              	.L292:
 1641 004e 00BF     		.align	2
 1642              	.L291:
 1643 0050 0000FFFF 		.word	-65536
 1644 0054 00000000 		.word	I2C_Slave_ISR_IT
 1646              		.section	.text.HAL_I2C_Slave_Receive_IT,"ax",%progbits
 1647              		.align	1
 1648              		.global	HAL_I2C_Slave_Receive_IT
ARM GAS  C:\Users\q-bir\AppData\Local\Temp\ccTrmgJ3.s 			page 29


 1649              		.syntax unified
 1650              		.thumb
 1651              		.thumb_func
 1652              		.fpu fpv4-sp-d16
 1654              	HAL_I2C_Slave_Receive_IT:
 1655              		@ args = 0, pretend = 0, frame = 0
 1656              		@ frame_needed = 0, uses_anonymous_args = 0
 1657 0000 70B5     		push	{r4, r5, r6, lr}
 1658 0002 90F84140 		ldrb	r4, [r0, #65]	@ zero_extendqisi2
 1659 0006 202C     		cmp	r4, #32
 1660 0008 E5B2     		uxtb	r5, r4
 1661 000a 1ED1     		bne	.L296
 1662 000c 90F84040 		ldrb	r4, [r0, #64]	@ zero_extendqisi2
 1663 0010 012C     		cmp	r4, #1
 1664 0012 1AD0     		beq	.L296
 1665 0014 2224     		movs	r4, #34
 1666 0016 80F84140 		strb	r4, [r0, #65]
 1667 001a 0668     		ldr	r6, [r0]
 1668 001c 80F84250 		strb	r5, [r0, #66]
 1669 0020 0024     		movs	r4, #0
 1670 0022 4464     		str	r4, [r0, #68]
 1671 0024 7568     		ldr	r5, [r6, #4]
 1672 0026 25F40045 		bic	r5, r5, #32768
 1673 002a 7560     		str	r5, [r6, #4]
 1674 002c 4285     		strh	r2, [r0, #42]	@ movhi
 1675 002e 428D     		ldrh	r2, [r0, #42]
 1676 0030 0285     		strh	r2, [r0, #40]	@ movhi
 1677 0032 074A     		ldr	r2, .L297
 1678 0034 C262     		str	r2, [r0, #44]
 1679 0036 074A     		ldr	r2, .L297+4
 1680 0038 4162     		str	r1, [r0, #36]
 1681 003a 4263     		str	r2, [r0, #52]
 1682 003c 80F84040 		strb	r4, [r0, #64]
 1683 0040 0621     		movs	r1, #6
 1684 0042 FFF7FEFF 		bl	I2C_Enable_IRQ
 1685 0046 2046     		mov	r0, r4
 1686              	.L294:
 1687 0048 70BD     		pop	{r4, r5, r6, pc}
 1688              	.L296:
 1689 004a 0220     		movs	r0, #2
 1690 004c FCE7     		b	.L294
 1691              	.L298:
 1692 004e 00BF     		.align	2
 1693              	.L297:
 1694 0050 0000FFFF 		.word	-65536
 1695 0054 00000000 		.word	I2C_Slave_ISR_IT
 1697              		.section	.text.HAL_I2C_Master_Transmit_DMA,"ax",%progbits
 1698              		.align	1
 1699              		.global	HAL_I2C_Master_Transmit_DMA
 1700              		.syntax unified
 1701              		.thumb
 1702              		.thumb_func
 1703              		.fpu fpv4-sp-d16
 1705              	HAL_I2C_Master_Transmit_DMA:
 1706              		@ args = 0, pretend = 0, frame = 0
 1707              		@ frame_needed = 0, uses_anonymous_args = 0
 1708 0000 2DE9F341 		push	{r0, r1, r4, r5, r6, r7, r8, lr}
ARM GAS  C:\Users\q-bir\AppData\Local\Temp\ccTrmgJ3.s 			page 30


 1709 0004 0E46     		mov	r6, r1
 1710 0006 1146     		mov	r1, r2
 1711 0008 90F84120 		ldrb	r2, [r0, #65]	@ zero_extendqisi2
 1712 000c 202A     		cmp	r2, #32
 1713 000e 0446     		mov	r4, r0
 1714 0010 62D1     		bne	.L305
 1715 0012 0268     		ldr	r2, [r0]
 1716 0014 9069     		ldr	r0, [r2, #24]
 1717 0016 10F40040 		ands	r0, r0, #32768
 1718 001a 5DD1     		bne	.L305
 1719 001c 94F84050 		ldrb	r5, [r4, #64]	@ zero_extendqisi2
 1720 0020 012D     		cmp	r5, #1
 1721 0022 59D0     		beq	.L305
 1722 0024 0125     		movs	r5, #1
 1723 0026 84F84050 		strb	r5, [r4, #64]
 1724 002a 2125     		movs	r5, #33
 1725 002c 84F84150 		strb	r5, [r4, #65]
 1726 0030 1025     		movs	r5, #16
 1727 0032 84F84250 		strb	r5, [r4, #66]
 1728 0036 6064     		str	r0, [r4, #68]
 1729 0038 6385     		strh	r3, [r4, #42]	@ movhi
 1730 003a 284B     		ldr	r3, .L307
 1731 003c E362     		str	r3, [r4, #44]
 1732 003e 284B     		ldr	r3, .L307+4
 1733 0040 6363     		str	r3, [r4, #52]
 1734 0042 638D     		ldrh	r3, [r4, #42]
 1735 0044 6162     		str	r1, [r4, #36]
 1736 0046 9BB2     		uxth	r3, r3
 1737 0048 FF2B     		cmp	r3, #255
 1738 004a 97BF     		itett	ls
 1739 004c 658D     		ldrhls	r5, [r4, #42]
 1740 004e FF25     		movhi	r5, #255
 1741 0050 ADB2     		uxthls	r5, r5
 1742 0052 4FF00078 		movls	r8, #33554432
 1743 0056 88BF     		it	hi
 1744 0058 4FF08078 		movhi	r8, #16777216
 1745 005c 2585     		strh	r5, [r4, #40]	@ movhi
 1746 005e 45B3     		cbz	r5, .L302
 1747 0060 A06B     		ldr	r0, [r4, #56]
 1748 0062 204B     		ldr	r3, .L307+8
 1749 0064 8362     		str	r3, [r0, #40]
 1750 0066 0027     		movs	r7, #0
 1751 0068 1F4B     		ldr	r3, .L307+12
 1752 006a 0363     		str	r3, [r0, #48]
 1753 006c 2832     		adds	r2, r2, #40
 1754 006e 2B46     		mov	r3, r5
 1755 0070 C762     		str	r7, [r0, #44]
 1756 0072 4763     		str	r7, [r0, #52]
 1757 0074 FFF7FEFF 		bl	HAL_DMA_Start_IT
 1758 0078 1C4B     		ldr	r3, .L307+16
 1759 007a 94F82820 		ldrb	r2, [r4, #40]	@ zero_extendqisi2
 1760 007e 0093     		str	r3, [sp]
 1761 0080 3146     		mov	r1, r6
 1762 0082 4346     		mov	r3, r8
 1763 0084 2046     		mov	r0, r4
 1764 0086 FFF7FEFF 		bl	I2C_TransferConfig
 1765 008a 638D     		ldrh	r3, [r4, #42]
ARM GAS  C:\Users\q-bir\AppData\Local\Temp\ccTrmgJ3.s 			page 31


 1766 008c 228D     		ldrh	r2, [r4, #40]
 1767 008e 84F84070 		strb	r7, [r4, #64]
 1768 0092 9B1A     		subs	r3, r3, r2
 1769 0094 9BB2     		uxth	r3, r3
 1770 0096 6385     		strh	r3, [r4, #42]	@ movhi
 1771 0098 1121     		movs	r1, #17
 1772 009a 2046     		mov	r0, r4
 1773 009c FFF7FEFF 		bl	I2C_Enable_IRQ
 1774 00a0 2268     		ldr	r2, [r4]
 1775 00a2 1368     		ldr	r3, [r2]
 1776 00a4 43F48043 		orr	r3, r3, #16384
 1777 00a8 1360     		str	r3, [r2]
 1778 00aa 3846     		mov	r0, r7
 1779              	.L300:
 1780 00ac 02B0     		add	sp, sp, #8
 1781              		@ sp needed
 1782 00ae BDE8F081 		pop	{r4, r5, r6, r7, r8, pc}
 1783              	.L302:
 1784 00b2 0F4B     		ldr	r3, .L307+20
 1785 00b4 6363     		str	r3, [r4, #52]
 1786 00b6 0D4B     		ldr	r3, .L307+16
 1787 00b8 0093     		str	r3, [sp]
 1788 00ba 2A46     		mov	r2, r5
 1789 00bc 4FF00073 		mov	r3, #33554432
 1790 00c0 3146     		mov	r1, r6
 1791 00c2 2046     		mov	r0, r4
 1792 00c4 FFF7FEFF 		bl	I2C_TransferConfig
 1793 00c8 84F84050 		strb	r5, [r4, #64]
 1794 00cc 0121     		movs	r1, #1
 1795 00ce 2046     		mov	r0, r4
 1796 00d0 FFF7FEFF 		bl	I2C_Enable_IRQ
 1797 00d4 2846     		mov	r0, r5
 1798 00d6 E9E7     		b	.L300
 1799              	.L305:
 1800 00d8 0220     		movs	r0, #2
 1801 00da E7E7     		b	.L300
 1802              	.L308:
 1803              		.align	2
 1804              	.L307:
 1805 00dc 0000FFFF 		.word	-65536
 1806 00e0 00000000 		.word	I2C_Master_ISR_DMA
 1807 00e4 00000000 		.word	I2C_DMAMasterTransmitCplt
 1808 00e8 00000000 		.word	I2C_DMAError
 1809 00ec 00200080 		.word	-2147475456
 1810 00f0 00000000 		.word	I2C_Master_ISR_IT
 1812              		.section	.text.HAL_I2C_Master_Receive_DMA,"ax",%progbits
 1813              		.align	1
 1814              		.global	HAL_I2C_Master_Receive_DMA
 1815              		.syntax unified
 1816              		.thumb
 1817              		.thumb_func
 1818              		.fpu fpv4-sp-d16
 1820              	HAL_I2C_Master_Receive_DMA:
 1821              		@ args = 0, pretend = 0, frame = 0
 1822              		@ frame_needed = 0, uses_anonymous_args = 0
 1823 0000 2DE9F341 		push	{r0, r1, r4, r5, r6, r7, r8, lr}
 1824 0004 0E46     		mov	r6, r1
ARM GAS  C:\Users\q-bir\AppData\Local\Temp\ccTrmgJ3.s 			page 32


 1825 0006 90F84110 		ldrb	r1, [r0, #65]	@ zero_extendqisi2
 1826 000a 2029     		cmp	r1, #32
 1827 000c 0446     		mov	r4, r0
 1828 000e 62D1     		bne	.L315
 1829 0010 0168     		ldr	r1, [r0]
 1830 0012 8869     		ldr	r0, [r1, #24]
 1831 0014 10F40040 		ands	r0, r0, #32768
 1832 0018 5DD1     		bne	.L315
 1833 001a 94F84050 		ldrb	r5, [r4, #64]	@ zero_extendqisi2
 1834 001e 012D     		cmp	r5, #1
 1835 0020 59D0     		beq	.L315
 1836 0022 0125     		movs	r5, #1
 1837 0024 84F84050 		strb	r5, [r4, #64]
 1838 0028 2225     		movs	r5, #34
 1839 002a 84F84150 		strb	r5, [r4, #65]
 1840 002e 1025     		movs	r5, #16
 1841 0030 84F84250 		strb	r5, [r4, #66]
 1842 0034 6064     		str	r0, [r4, #68]
 1843 0036 6385     		strh	r3, [r4, #42]	@ movhi
 1844 0038 284B     		ldr	r3, .L317
 1845 003a E362     		str	r3, [r4, #44]
 1846 003c 284B     		ldr	r3, .L317+4
 1847 003e 6363     		str	r3, [r4, #52]
 1848 0040 638D     		ldrh	r3, [r4, #42]
 1849 0042 6262     		str	r2, [r4, #36]
 1850 0044 9BB2     		uxth	r3, r3
 1851 0046 FF2B     		cmp	r3, #255
 1852 0048 97BF     		itett	ls
 1853 004a 658D     		ldrhls	r5, [r4, #42]
 1854 004c FF25     		movhi	r5, #255
 1855 004e ADB2     		uxthls	r5, r5
 1856 0050 4FF00078 		movls	r8, #33554432
 1857 0054 88BF     		it	hi
 1858 0056 4FF08078 		movhi	r8, #16777216
 1859 005a 2585     		strh	r5, [r4, #40]	@ movhi
 1860 005c 45B3     		cbz	r5, .L312
 1861 005e E06B     		ldr	r0, [r4, #60]
 1862 0060 204B     		ldr	r3, .L317+8
 1863 0062 8362     		str	r3, [r0, #40]
 1864 0064 0027     		movs	r7, #0
 1865 0066 204B     		ldr	r3, .L317+12
 1866 0068 0363     		str	r3, [r0, #48]
 1867 006a 2431     		adds	r1, r1, #36
 1868 006c 2B46     		mov	r3, r5
 1869 006e C762     		str	r7, [r0, #44]
 1870 0070 4763     		str	r7, [r0, #52]
 1871 0072 FFF7FEFF 		bl	HAL_DMA_Start_IT
 1872 0076 1D4B     		ldr	r3, .L317+16
 1873 0078 94F82820 		ldrb	r2, [r4, #40]	@ zero_extendqisi2
 1874 007c 0093     		str	r3, [sp]
 1875 007e 3146     		mov	r1, r6
 1876 0080 4346     		mov	r3, r8
 1877 0082 2046     		mov	r0, r4
 1878 0084 FFF7FEFF 		bl	I2C_TransferConfig
 1879 0088 638D     		ldrh	r3, [r4, #42]
 1880 008a 228D     		ldrh	r2, [r4, #40]
 1881 008c 84F84070 		strb	r7, [r4, #64]
ARM GAS  C:\Users\q-bir\AppData\Local\Temp\ccTrmgJ3.s 			page 33


 1882 0090 9B1A     		subs	r3, r3, r2
 1883 0092 9BB2     		uxth	r3, r3
 1884 0094 6385     		strh	r3, [r4, #42]	@ movhi
 1885 0096 1121     		movs	r1, #17
 1886 0098 2046     		mov	r0, r4
 1887 009a FFF7FEFF 		bl	I2C_Enable_IRQ
 1888 009e 2268     		ldr	r2, [r4]
 1889 00a0 1368     		ldr	r3, [r2]
 1890 00a2 43F40043 		orr	r3, r3, #32768
 1891 00a6 1360     		str	r3, [r2]
 1892 00a8 3846     		mov	r0, r7
 1893              	.L310:
 1894 00aa 02B0     		add	sp, sp, #8
 1895              		@ sp needed
 1896 00ac BDE8F081 		pop	{r4, r5, r6, r7, r8, pc}
 1897              	.L312:
 1898 00b0 0F4B     		ldr	r3, .L317+20
 1899 00b2 6363     		str	r3, [r4, #52]
 1900 00b4 0D4B     		ldr	r3, .L317+16
 1901 00b6 0093     		str	r3, [sp]
 1902 00b8 2A46     		mov	r2, r5
 1903 00ba 4FF00073 		mov	r3, #33554432
 1904 00be 3146     		mov	r1, r6
 1905 00c0 2046     		mov	r0, r4
 1906 00c2 FFF7FEFF 		bl	I2C_TransferConfig
 1907 00c6 84F84050 		strb	r5, [r4, #64]
 1908 00ca 0121     		movs	r1, #1
 1909 00cc 2046     		mov	r0, r4
 1910 00ce FFF7FEFF 		bl	I2C_Enable_IRQ
 1911 00d2 2846     		mov	r0, r5
 1912 00d4 E9E7     		b	.L310
 1913              	.L315:
 1914 00d6 0220     		movs	r0, #2
 1915 00d8 E7E7     		b	.L310
 1916              	.L318:
 1917 00da 00BF     		.align	2
 1918              	.L317:
 1919 00dc 0000FFFF 		.word	-65536
 1920 00e0 00000000 		.word	I2C_Master_ISR_DMA
 1921 00e4 00000000 		.word	I2C_DMAMasterReceiveCplt
 1922 00e8 00000000 		.word	I2C_DMAError
 1923 00ec 00240080 		.word	-2147474432
 1924 00f0 00000000 		.word	I2C_Master_ISR_IT
 1926              		.section	.text.HAL_I2C_Slave_Transmit_DMA,"ax",%progbits
 1927              		.align	1
 1928              		.global	HAL_I2C_Slave_Transmit_DMA
 1929              		.syntax unified
 1930              		.thumb
 1931              		.thumb_func
 1932              		.fpu fpv4-sp-d16
 1934              	HAL_I2C_Slave_Transmit_DMA:
 1935              		@ args = 0, pretend = 0, frame = 0
 1936              		@ frame_needed = 0, uses_anonymous_args = 0
 1937 0000 38B5     		push	{r3, r4, r5, lr}
 1938 0002 0446     		mov	r4, r0
 1939 0004 90F84100 		ldrb	r0, [r0, #65]	@ zero_extendqisi2
 1940 0008 2028     		cmp	r0, #32
ARM GAS  C:\Users\q-bir\AppData\Local\Temp\ccTrmgJ3.s 			page 34


 1941 000a C5B2     		uxtb	r5, r0
 1942 000c 39D1     		bne	.L324
 1943 000e 0029     		cmp	r1, #0
 1944 0010 35D0     		beq	.L323
 1945 0012 002A     		cmp	r2, #0
 1946 0014 33D0     		beq	.L323
 1947 0016 94F84000 		ldrb	r0, [r4, #64]	@ zero_extendqisi2
 1948 001a 0128     		cmp	r0, #1
 1949 001c 31D0     		beq	.L324
 1950 001e 0120     		movs	r0, #1
 1951 0020 84F84000 		strb	r0, [r4, #64]
 1952 0024 2120     		movs	r0, #33
 1953 0026 84F84100 		strb	r0, [r4, #65]
 1954 002a 84F84250 		strb	r5, [r4, #66]
 1955 002e 0025     		movs	r5, #0
 1956 0030 6564     		str	r5, [r4, #68]
 1957 0032 6285     		strh	r2, [r4, #42]	@ movhi
 1958 0034 638D     		ldrh	r3, [r4, #42]
 1959 0036 144A     		ldr	r2, .L325
 1960 0038 E262     		str	r2, [r4, #44]
 1961 003a A06B     		ldr	r0, [r4, #56]
 1962 003c 134A     		ldr	r2, .L325+4
 1963 003e 6263     		str	r2, [r4, #52]
 1964 0040 9BB2     		uxth	r3, r3
 1965 0042 134A     		ldr	r2, .L325+8
 1966 0044 6162     		str	r1, [r4, #36]
 1967 0046 2385     		strh	r3, [r4, #40]	@ movhi
 1968 0048 8262     		str	r2, [r0, #40]
 1969 004a 124A     		ldr	r2, .L325+12
 1970 004c 4563     		str	r5, [r0, #52]
 1971 004e C0E90B52 		strd	r5, r2, [r0, #44]
 1972 0052 2268     		ldr	r2, [r4]
 1973 0054 2832     		adds	r2, r2, #40
 1974 0056 FFF7FEFF 		bl	HAL_DMA_Start_IT
 1975 005a 2268     		ldr	r2, [r4]
 1976 005c 5368     		ldr	r3, [r2, #4]
 1977 005e 23F40043 		bic	r3, r3, #32768
 1978 0062 5360     		str	r3, [r2, #4]
 1979 0064 0421     		movs	r1, #4
 1980 0066 84F84050 		strb	r5, [r4, #64]
 1981 006a 2046     		mov	r0, r4
 1982 006c FFF7FEFF 		bl	I2C_Enable_IRQ
 1983 0070 2268     		ldr	r2, [r4]
 1984 0072 1368     		ldr	r3, [r2]
 1985 0074 43F48043 		orr	r3, r3, #16384
 1986 0078 1360     		str	r3, [r2]
 1987 007a 2846     		mov	r0, r5
 1988              	.L320:
 1989 007c 38BD     		pop	{r3, r4, r5, pc}
 1990              	.L323:
 1991 007e 0120     		movs	r0, #1
 1992 0080 FCE7     		b	.L320
 1993              	.L324:
 1994 0082 0220     		movs	r0, #2
 1995 0084 FAE7     		b	.L320
 1996              	.L326:
 1997 0086 00BF     		.align	2
ARM GAS  C:\Users\q-bir\AppData\Local\Temp\ccTrmgJ3.s 			page 35


 1998              	.L325:
 1999 0088 0000FFFF 		.word	-65536
 2000 008c 00000000 		.word	I2C_Slave_ISR_DMA
 2001 0090 00000000 		.word	I2C_DMASlaveTransmitCplt
 2002 0094 00000000 		.word	I2C_DMAError
 2004              		.section	.text.HAL_I2C_Slave_Receive_DMA,"ax",%progbits
 2005              		.align	1
 2006              		.global	HAL_I2C_Slave_Receive_DMA
 2007              		.syntax unified
 2008              		.thumb
 2009              		.thumb_func
 2010              		.fpu fpv4-sp-d16
 2012              	HAL_I2C_Slave_Receive_DMA:
 2013              		@ args = 0, pretend = 0, frame = 0
 2014              		@ frame_needed = 0, uses_anonymous_args = 0
 2015 0000 70B5     		push	{r4, r5, r6, lr}
 2016 0002 90F84130 		ldrb	r3, [r0, #65]	@ zero_extendqisi2
 2017 0006 202B     		cmp	r3, #32
 2018 0008 0446     		mov	r4, r0
 2019 000a D8B2     		uxtb	r0, r3
 2020 000c 3BD1     		bne	.L332
 2021 000e 0029     		cmp	r1, #0
 2022 0010 37D0     		beq	.L331
 2023 0012 002A     		cmp	r2, #0
 2024 0014 35D0     		beq	.L331
 2025 0016 94F84030 		ldrb	r3, [r4, #64]	@ zero_extendqisi2
 2026 001a 012B     		cmp	r3, #1
 2027 001c 33D0     		beq	.L332
 2028 001e 0123     		movs	r3, #1
 2029 0020 84F84030 		strb	r3, [r4, #64]
 2030 0024 0025     		movs	r5, #0
 2031 0026 2223     		movs	r3, #34
 2032 0028 84F84130 		strb	r3, [r4, #65]
 2033 002c 84F84200 		strb	r0, [r4, #66]
 2034 0030 6564     		str	r5, [r4, #68]
 2035 0032 6285     		strh	r2, [r4, #42]	@ movhi
 2036 0034 638D     		ldrh	r3, [r4, #42]
 2037 0036 154A     		ldr	r2, .L333
 2038 0038 E262     		str	r2, [r4, #44]
 2039 003a E06B     		ldr	r0, [r4, #60]
 2040 003c 144A     		ldr	r2, .L333+4
 2041 003e 6263     		str	r2, [r4, #52]
 2042 0040 9BB2     		uxth	r3, r3
 2043 0042 144A     		ldr	r2, .L333+8
 2044 0044 6162     		str	r1, [r4, #36]
 2045 0046 2385     		strh	r3, [r4, #40]	@ movhi
 2046 0048 2668     		ldr	r6, [r4]
 2047 004a 8262     		str	r2, [r0, #40]
 2048 004c 124A     		ldr	r2, .L333+12
 2049 004e 4563     		str	r5, [r0, #52]
 2050 0050 C0E90B52 		strd	r5, r2, [r0, #44]
 2051 0054 0A46     		mov	r2, r1
 2052 0056 06F12401 		add	r1, r6, #36
 2053 005a FFF7FEFF 		bl	HAL_DMA_Start_IT
 2054 005e 2268     		ldr	r2, [r4]
 2055 0060 5368     		ldr	r3, [r2, #4]
 2056 0062 23F40043 		bic	r3, r3, #32768
ARM GAS  C:\Users\q-bir\AppData\Local\Temp\ccTrmgJ3.s 			page 36


 2057 0066 5360     		str	r3, [r2, #4]
 2058 0068 0421     		movs	r1, #4
 2059 006a 84F84050 		strb	r5, [r4, #64]
 2060 006e 2046     		mov	r0, r4
 2061 0070 FFF7FEFF 		bl	I2C_Enable_IRQ
 2062 0074 2268     		ldr	r2, [r4]
 2063 0076 1368     		ldr	r3, [r2]
 2064 0078 43F40043 		orr	r3, r3, #32768
 2065 007c 1360     		str	r3, [r2]
 2066 007e 2846     		mov	r0, r5
 2067              	.L328:
 2068 0080 70BD     		pop	{r4, r5, r6, pc}
 2069              	.L331:
 2070 0082 0120     		movs	r0, #1
 2071 0084 FCE7     		b	.L328
 2072              	.L332:
 2073 0086 0220     		movs	r0, #2
 2074 0088 FAE7     		b	.L328
 2075              	.L334:
 2076 008a 00BF     		.align	2
 2077              	.L333:
 2078 008c 0000FFFF 		.word	-65536
 2079 0090 00000000 		.word	I2C_Slave_ISR_DMA
 2080 0094 00000000 		.word	I2C_DMASlaveReceiveCplt
 2081 0098 00000000 		.word	I2C_DMAError
 2083              		.section	.text.HAL_I2C_Mem_Write,"ax",%progbits
 2084              		.align	1
 2085              		.global	HAL_I2C_Mem_Write
 2086              		.syntax unified
 2087              		.thumb
 2088              		.thumb_func
 2089              		.fpu fpv4-sp-d16
 2091              	HAL_I2C_Mem_Write:
 2092              		@ args = 12, pretend = 0, frame = 8
 2093              		@ frame_needed = 0, uses_anonymous_args = 0
 2094 0000 2DE9F04F 		push	{r4, r5, r6, r7, r8, r9, r10, fp, lr}
 2095 0004 85B0     		sub	sp, sp, #20
 2096 0006 9B46     		mov	fp, r3
 2097 0008 BDF83C30 		ldrh	r3, [sp, #60]
 2098 000c 0393     		str	r3, [sp, #12]
 2099 000e 90F84130 		ldrb	r3, [r0, #65]	@ zero_extendqisi2
 2100 0012 DDF84090 		ldr	r9, [sp, #64]
 2101 0016 202B     		cmp	r3, #32
 2102 0018 0446     		mov	r4, r0
 2103 001a 0F46     		mov	r7, r1
 2104 001c 9246     		mov	r10, r2
 2105 001e 40F0A580 		bne	.L350
 2106 0022 0E9B     		ldr	r3, [sp, #56]
 2107 0024 1BB9     		cbnz	r3, .L337
 2108              	.L338:
 2109 0026 0120     		movs	r0, #1
 2110              	.L336:
 2111 0028 05B0     		add	sp, sp, #20
 2112              		@ sp needed
 2113 002a BDE8F08F 		pop	{r4, r5, r6, r7, r8, r9, r10, fp, pc}
 2114              	.L337:
 2115 002e 039B     		ldr	r3, [sp, #12]
ARM GAS  C:\Users\q-bir\AppData\Local\Temp\ccTrmgJ3.s 			page 37


 2116 0030 002B     		cmp	r3, #0
 2117 0032 F8D0     		beq	.L338
 2118 0034 90F84030 		ldrb	r3, [r0, #64]	@ zero_extendqisi2
 2119 0038 012B     		cmp	r3, #1
 2120 003a 00F09780 		beq	.L350
 2121 003e 0125     		movs	r5, #1
 2122 0040 80F84050 		strb	r5, [r0, #64]
 2123 0044 FFF7FEFF 		bl	HAL_GetTick
 2124 0048 1923     		movs	r3, #25
 2125 004a 0090     		str	r0, [sp]
 2126 004c 0646     		mov	r6, r0
 2127 004e 2A46     		mov	r2, r5
 2128 0050 4FF40041 		mov	r1, #32768
 2129 0054 2046     		mov	r0, r4
 2130 0056 FFF7FEFF 		bl	I2C_WaitOnFlagUntilTimeout
 2131 005a 8046     		mov	r8, r0
 2132 005c C8B9     		cbnz	r0, .L339
 2133 005e 2123     		movs	r3, #33
 2134 0060 84F84130 		strb	r3, [r4, #65]
 2135 0064 4023     		movs	r3, #64
 2136 0066 84F84230 		strb	r3, [r4, #66]
 2137 006a 0E9B     		ldr	r3, [sp, #56]
 2138 006c 6362     		str	r3, [r4, #36]
 2139 006e 039B     		ldr	r3, [sp, #12]
 2140 0070 6064     		str	r0, [r4, #68]
 2141 0072 6063     		str	r0, [r4, #52]
 2142 0074 6385     		strh	r3, [r4, #42]	@ movhi
 2143 0076 CDE90096 		strd	r9, r6, [sp]
 2144 007a 5B46     		mov	r3, fp
 2145 007c 5246     		mov	r2, r10
 2146 007e 3946     		mov	r1, r7
 2147 0080 2046     		mov	r0, r4
 2148 0082 FFF7FEFF 		bl	I2C_RequestMemoryWrite
 2149 0086 30B1     		cbz	r0, .L340
 2150 0088 636C     		ldr	r3, [r4, #68]
 2151 008a 84F84080 		strb	r8, [r4, #64]
 2152              	.L368:
 2153 008e 042B     		cmp	r3, #4
 2154 0090 C9D0     		beq	.L338
 2155              	.L339:
 2156 0092 0320     		movs	r0, #3
 2157 0094 C8E7     		b	.L336
 2158              	.L340:
 2159 0096 638D     		ldrh	r3, [r4, #42]
 2160 0098 9BB2     		uxth	r3, r3
 2161 009a FF2B     		cmp	r3, #255
 2162 009c 10D9     		bls	.L342
 2163 009e FF22     		movs	r2, #255
 2164 00a0 2285     		strh	r2, [r4, #40]	@ movhi
 2165 00a2 0090     		str	r0, [sp]
 2166 00a4 4FF08073 		mov	r3, #16777216
 2167              	.L365:
 2168 00a8 3946     		mov	r1, r7
 2169 00aa 2046     		mov	r0, r4
 2170 00ac FFF7FEFF 		bl	I2C_TransferConfig
 2171              	.L343:
 2172 00b0 3246     		mov	r2, r6
ARM GAS  C:\Users\q-bir\AppData\Local\Temp\ccTrmgJ3.s 			page 38


 2173 00b2 4946     		mov	r1, r9
 2174 00b4 2046     		mov	r0, r4
 2175 00b6 FFF7FEFF 		bl	I2C_WaitOnTXISFlagUntilTimeout
 2176 00ba 48B1     		cbz	r0, .L345
 2177              	.L364:
 2178 00bc 636C     		ldr	r3, [r4, #68]
 2179 00be E6E7     		b	.L368
 2180              	.L342:
 2181 00c0 628D     		ldrh	r2, [r4, #42]
 2182 00c2 0090     		str	r0, [sp]
 2183 00c4 92B2     		uxth	r2, r2
 2184 00c6 2285     		strh	r2, [r4, #40]	@ movhi
 2185 00c8 4FF00073 		mov	r3, #33554432
 2186 00cc D2B2     		uxtb	r2, r2
 2187 00ce EBE7     		b	.L365
 2188              	.L345:
 2189 00d0 636A     		ldr	r3, [r4, #36]
 2190 00d2 5A1C     		adds	r2, r3, #1
 2191 00d4 6262     		str	r2, [r4, #36]
 2192 00d6 2268     		ldr	r2, [r4]
 2193 00d8 1B78     		ldrb	r3, [r3]	@ zero_extendqisi2
 2194 00da 9362     		str	r3, [r2, #40]
 2195 00dc 638D     		ldrh	r3, [r4, #42]
 2196 00de 228D     		ldrh	r2, [r4, #40]
 2197 00e0 013B     		subs	r3, r3, #1
 2198 00e2 013A     		subs	r2, r2, #1
 2199 00e4 9BB2     		uxth	r3, r3
 2200 00e6 92B2     		uxth	r2, r2
 2201 00e8 6385     		strh	r3, [r4, #42]	@ movhi
 2202 00ea 2285     		strh	r2, [r4, #40]	@ movhi
 2203 00ec BAB9     		cbnz	r2, .L346
 2204 00ee 638D     		ldrh	r3, [r4, #42]
 2205 00f0 9BB2     		uxth	r3, r3
 2206 00f2 A3B1     		cbz	r3, .L346
 2207 00f4 0096     		str	r6, [sp]
 2208 00f6 4B46     		mov	r3, r9
 2209 00f8 8021     		movs	r1, #128
 2210 00fa 2046     		mov	r0, r4
 2211 00fc FFF7FEFF 		bl	I2C_WaitOnFlagUntilTimeout
 2212 0100 0028     		cmp	r0, #0
 2213 0102 C6D1     		bne	.L339
 2214 0104 638D     		ldrh	r3, [r4, #42]
 2215 0106 9BB2     		uxth	r3, r3
 2216 0108 FF2B     		cmp	r3, #255
 2217 010a 27D9     		bls	.L347
 2218 010c FF22     		movs	r2, #255
 2219 010e 2285     		strh	r2, [r4, #40]	@ movhi
 2220 0110 0090     		str	r0, [sp]
 2221 0112 4FF08073 		mov	r3, #16777216
 2222              	.L366:
 2223 0116 3946     		mov	r1, r7
 2224 0118 2046     		mov	r0, r4
 2225 011a FFF7FEFF 		bl	I2C_TransferConfig
 2226              	.L346:
 2227 011e 638D     		ldrh	r3, [r4, #42]
 2228 0120 9BB2     		uxth	r3, r3
 2229 0122 002B     		cmp	r3, #0
ARM GAS  C:\Users\q-bir\AppData\Local\Temp\ccTrmgJ3.s 			page 39


 2230 0124 C4D1     		bne	.L343
 2231 0126 3246     		mov	r2, r6
 2232 0128 4946     		mov	r1, r9
 2233 012a 2046     		mov	r0, r4
 2234 012c FFF7FEFF 		bl	I2C_WaitOnSTOPFlagUntilTimeout
 2235 0130 0028     		cmp	r0, #0
 2236 0132 C3D1     		bne	.L364
 2237 0134 2368     		ldr	r3, [r4]
 2238 0136 2021     		movs	r1, #32
 2239 0138 D961     		str	r1, [r3, #28]
 2240 013a 5A68     		ldr	r2, [r3, #4]
 2241 013c 22F0FF72 		bic	r2, r2, #33423360
 2242 0140 22F48B32 		bic	r2, r2, #71168
 2243 0144 22F4FF72 		bic	r2, r2, #510
 2244 0148 22F00102 		bic	r2, r2, #1
 2245 014c 5A60     		str	r2, [r3, #4]
 2246 014e 84F84110 		strb	r1, [r4, #65]
 2247 0152 84F84000 		strb	r0, [r4, #64]
 2248 0156 84F84200 		strb	r0, [r4, #66]
 2249 015a 65E7     		b	.L336
 2250              	.L347:
 2251 015c 628D     		ldrh	r2, [r4, #42]
 2252 015e 0090     		str	r0, [sp]
 2253 0160 92B2     		uxth	r2, r2
 2254 0162 2285     		strh	r2, [r4, #40]	@ movhi
 2255 0164 4FF00073 		mov	r3, #33554432
 2256 0168 D2B2     		uxtb	r2, r2
 2257 016a D4E7     		b	.L366
 2258              	.L350:
 2259 016c 0220     		movs	r0, #2
 2260 016e 5BE7     		b	.L336
 2262              		.section	.text.HAL_I2C_Mem_Read,"ax",%progbits
 2263              		.align	1
 2264              		.global	HAL_I2C_Mem_Read
 2265              		.syntax unified
 2266              		.thumb
 2267              		.thumb_func
 2268              		.fpu fpv4-sp-d16
 2270              	HAL_I2C_Mem_Read:
 2271              		@ args = 12, pretend = 0, frame = 8
 2272              		@ frame_needed = 0, uses_anonymous_args = 0
 2273 0000 2DE9F04F 		push	{r4, r5, r6, r7, r8, r9, r10, fp, lr}
 2274 0004 85B0     		sub	sp, sp, #20
 2275 0006 9B46     		mov	fp, r3
 2276 0008 BDF83C30 		ldrh	r3, [sp, #60]
 2277 000c 0393     		str	r3, [sp, #12]
 2278 000e 90F84130 		ldrb	r3, [r0, #65]	@ zero_extendqisi2
 2279 0012 DDF84090 		ldr	r9, [sp, #64]
 2280 0016 202B     		cmp	r3, #32
 2281 0018 0446     		mov	r4, r0
 2282 001a 0F46     		mov	r7, r1
 2283 001c 9246     		mov	r10, r2
 2284 001e 40F0A880 		bne	.L383
 2285 0022 0E9B     		ldr	r3, [sp, #56]
 2286 0024 1BB9     		cbnz	r3, .L371
 2287              	.L372:
 2288 0026 0120     		movs	r0, #1
ARM GAS  C:\Users\q-bir\AppData\Local\Temp\ccTrmgJ3.s 			page 40


 2289              	.L370:
 2290 0028 05B0     		add	sp, sp, #20
 2291              		@ sp needed
 2292 002a BDE8F08F 		pop	{r4, r5, r6, r7, r8, r9, r10, fp, pc}
 2293              	.L371:
 2294 002e 039B     		ldr	r3, [sp, #12]
 2295 0030 002B     		cmp	r3, #0
 2296 0032 F8D0     		beq	.L372
 2297 0034 90F84030 		ldrb	r3, [r0, #64]	@ zero_extendqisi2
 2298 0038 012B     		cmp	r3, #1
 2299 003a 00F09A80 		beq	.L383
 2300 003e 0125     		movs	r5, #1
 2301 0040 80F84050 		strb	r5, [r0, #64]
 2302 0044 FFF7FEFF 		bl	HAL_GetTick
 2303 0048 1923     		movs	r3, #25
 2304 004a 0090     		str	r0, [sp]
 2305 004c 0646     		mov	r6, r0
 2306 004e 2A46     		mov	r2, r5
 2307 0050 4FF40041 		mov	r1, #32768
 2308 0054 2046     		mov	r0, r4
 2309 0056 FFF7FEFF 		bl	I2C_WaitOnFlagUntilTimeout
 2310 005a 8046     		mov	r8, r0
 2311 005c C8B9     		cbnz	r0, .L373
 2312 005e 2223     		movs	r3, #34
 2313 0060 84F84130 		strb	r3, [r4, #65]
 2314 0064 4023     		movs	r3, #64
 2315 0066 84F84230 		strb	r3, [r4, #66]
 2316 006a 0E9B     		ldr	r3, [sp, #56]
 2317 006c 6362     		str	r3, [r4, #36]
 2318 006e 039B     		ldr	r3, [sp, #12]
 2319 0070 6064     		str	r0, [r4, #68]
 2320 0072 6063     		str	r0, [r4, #52]
 2321 0074 6385     		strh	r3, [r4, #42]	@ movhi
 2322 0076 CDE90096 		strd	r9, r6, [sp]
 2323 007a 5B46     		mov	r3, fp
 2324 007c 5246     		mov	r2, r10
 2325 007e 3946     		mov	r1, r7
 2326 0080 2046     		mov	r0, r4
 2327 0082 FFF7FEFF 		bl	I2C_RequestMemoryRead
 2328 0086 30B1     		cbz	r0, .L374
 2329 0088 636C     		ldr	r3, [r4, #68]
 2330 008a 84F84080 		strb	r8, [r4, #64]
 2331              	.L396:
 2332 008e 042B     		cmp	r3, #4
 2333 0090 C9D0     		beq	.L372
 2334              	.L373:
 2335 0092 0320     		movs	r0, #3
 2336 0094 C8E7     		b	.L370
 2337              	.L374:
 2338 0096 638D     		ldrh	r3, [r4, #42]
 2339 0098 9BB2     		uxth	r3, r3
 2340 009a FF2B     		cmp	r3, #255
 2341 009c 364B     		ldr	r3, .L397
 2342 009e 44D9     		bls	.L376
 2343 00a0 FF22     		movs	r2, #255
 2344 00a2 0093     		str	r3, [sp]
 2345 00a4 2285     		strh	r2, [r4, #40]	@ movhi
ARM GAS  C:\Users\q-bir\AppData\Local\Temp\ccTrmgJ3.s 			page 41


 2346 00a6 4FF08073 		mov	r3, #16777216
 2347              	.L394:
 2348 00aa 3946     		mov	r1, r7
 2349 00ac 2046     		mov	r0, r4
 2350 00ae FFF7FEFF 		bl	I2C_TransferConfig
 2351              	.L377:
 2352 00b2 0096     		str	r6, [sp]
 2353 00b4 4B46     		mov	r3, r9
 2354 00b6 0022     		movs	r2, #0
 2355 00b8 0421     		movs	r1, #4
 2356 00ba 2046     		mov	r0, r4
 2357 00bc FFF7FEFF 		bl	I2C_WaitOnFlagUntilTimeout
 2358 00c0 0028     		cmp	r0, #0
 2359 00c2 E6D1     		bne	.L373
 2360 00c4 2368     		ldr	r3, [r4]
 2361 00c6 5A6A     		ldr	r2, [r3, #36]
 2362 00c8 636A     		ldr	r3, [r4, #36]
 2363 00ca 591C     		adds	r1, r3, #1
 2364 00cc 6162     		str	r1, [r4, #36]
 2365 00ce 1A70     		strb	r2, [r3]
 2366 00d0 228D     		ldrh	r2, [r4, #40]
 2367 00d2 638D     		ldrh	r3, [r4, #42]
 2368 00d4 013A     		subs	r2, r2, #1
 2369 00d6 013B     		subs	r3, r3, #1
 2370 00d8 92B2     		uxth	r2, r2
 2371 00da 9BB2     		uxth	r3, r3
 2372 00dc 2285     		strh	r2, [r4, #40]	@ movhi
 2373 00de 6385     		strh	r3, [r4, #42]	@ movhi
 2374 00e0 BAB9     		cbnz	r2, .L379
 2375 00e2 638D     		ldrh	r3, [r4, #42]
 2376 00e4 9BB2     		uxth	r3, r3
 2377 00e6 A3B1     		cbz	r3, .L379
 2378 00e8 0096     		str	r6, [sp]
 2379 00ea 4B46     		mov	r3, r9
 2380 00ec 8021     		movs	r1, #128
 2381 00ee 2046     		mov	r0, r4
 2382 00f0 FFF7FEFF 		bl	I2C_WaitOnFlagUntilTimeout
 2383 00f4 0028     		cmp	r0, #0
 2384 00f6 CCD1     		bne	.L373
 2385 00f8 638D     		ldrh	r3, [r4, #42]
 2386 00fa 9BB2     		uxth	r3, r3
 2387 00fc FF2B     		cmp	r3, #255
 2388 00fe 1CD9     		bls	.L380
 2389 0100 FF22     		movs	r2, #255
 2390 0102 2285     		strh	r2, [r4, #40]	@ movhi
 2391 0104 0090     		str	r0, [sp]
 2392 0106 4FF08073 		mov	r3, #16777216
 2393              	.L395:
 2394 010a 3946     		mov	r1, r7
 2395 010c 2046     		mov	r0, r4
 2396 010e FFF7FEFF 		bl	I2C_TransferConfig
 2397              	.L379:
 2398 0112 638D     		ldrh	r3, [r4, #42]
 2399 0114 9BB2     		uxth	r3, r3
 2400 0116 002B     		cmp	r3, #0
 2401 0118 CBD1     		bne	.L377
 2402 011a 3246     		mov	r2, r6
ARM GAS  C:\Users\q-bir\AppData\Local\Temp\ccTrmgJ3.s 			page 42


 2403 011c 4946     		mov	r1, r9
 2404 011e 2046     		mov	r0, r4
 2405 0120 FFF7FEFF 		bl	I2C_WaitOnSTOPFlagUntilTimeout
 2406 0124 88B1     		cbz	r0, .L381
 2407 0126 636C     		ldr	r3, [r4, #68]
 2408 0128 B1E7     		b	.L396
 2409              	.L376:
 2410 012a 628D     		ldrh	r2, [r4, #42]
 2411 012c 0093     		str	r3, [sp]
 2412 012e 92B2     		uxth	r2, r2
 2413 0130 2285     		strh	r2, [r4, #40]	@ movhi
 2414 0132 4FF00073 		mov	r3, #33554432
 2415 0136 D2B2     		uxtb	r2, r2
 2416 0138 B7E7     		b	.L394
 2417              	.L380:
 2418 013a 628D     		ldrh	r2, [r4, #42]
 2419 013c 0090     		str	r0, [sp]
 2420 013e 92B2     		uxth	r2, r2
 2421 0140 2285     		strh	r2, [r4, #40]	@ movhi
 2422 0142 4FF00073 		mov	r3, #33554432
 2423 0146 D2B2     		uxtb	r2, r2
 2424 0148 DFE7     		b	.L395
 2425              	.L381:
 2426 014a 2368     		ldr	r3, [r4]
 2427 014c 2021     		movs	r1, #32
 2428 014e D961     		str	r1, [r3, #28]
 2429 0150 5A68     		ldr	r2, [r3, #4]
 2430 0152 22F0FF72 		bic	r2, r2, #33423360
 2431 0156 22F48B32 		bic	r2, r2, #71168
 2432 015a 22F4FF72 		bic	r2, r2, #510
 2433 015e 22F00102 		bic	r2, r2, #1
 2434 0162 5A60     		str	r2, [r3, #4]
 2435 0164 84F84110 		strb	r1, [r4, #65]
 2436 0168 84F84000 		strb	r0, [r4, #64]
 2437 016c 84F84200 		strb	r0, [r4, #66]
 2438 0170 5AE7     		b	.L370
 2439              	.L383:
 2440 0172 0220     		movs	r0, #2
 2441 0174 58E7     		b	.L370
 2442              	.L398:
 2443 0176 00BF     		.align	2
 2444              	.L397:
 2445 0178 00240080 		.word	-2147474432
 2447              		.section	.text.HAL_I2C_Mem_Write_IT,"ax",%progbits
 2448              		.align	1
 2449              		.global	HAL_I2C_Mem_Write_IT
 2450              		.syntax unified
 2451              		.thumb
 2452              		.thumb_func
 2453              		.fpu fpv4-sp-d16
 2455              	HAL_I2C_Mem_Write_IT:
 2456              		@ args = 8, pretend = 0, frame = 16
 2457              		@ frame_needed = 0, uses_anonymous_args = 0
 2458 0000 F0B5     		push	{r4, r5, r6, r7, lr}
 2459 0002 0446     		mov	r4, r0
 2460 0004 90F84100 		ldrb	r0, [r0, #65]	@ zero_extendqisi2
 2461 0008 87B0     		sub	sp, sp, #28
ARM GAS  C:\Users\q-bir\AppData\Local\Temp\ccTrmgJ3.s 			page 43


 2462 000a 2028     		cmp	r0, #32
 2463 000c CDE90421 		strd	r2, r1, [sp, #16]
 2464 0010 0C9E     		ldr	r6, [sp, #48]
 2465 0012 BDF83470 		ldrh	r7, [sp, #52]
 2466 0016 0393     		str	r3, [sp, #12]
 2467 0018 57D1     		bne	.L408
 2468 001a 002E     		cmp	r6, #0
 2469 001c 41D0     		beq	.L406
 2470 001e 002F     		cmp	r7, #0
 2471 0020 3FD0     		beq	.L406
 2472 0022 2068     		ldr	r0, [r4]
 2473 0024 8569     		ldr	r5, [r0, #24]
 2474 0026 15F40045 		ands	r5, r5, #32768
 2475 002a 4ED1     		bne	.L408
 2476 002c 94F84000 		ldrb	r0, [r4, #64]	@ zero_extendqisi2
 2477 0030 0128     		cmp	r0, #1
 2478 0032 4AD0     		beq	.L408
 2479 0034 0120     		movs	r0, #1
 2480 0036 84F84000 		strb	r0, [r4, #64]
 2481 003a FFF7FEFF 		bl	HAL_GetTick
 2482 003e 4FF0210C 		mov	ip, #33
 2483 0042 84F841C0 		strb	ip, [r4, #65]
 2484 0046 4FF0400C 		mov	ip, #64
 2485 004a 84F842C0 		strb	ip, [r4, #66]
 2486 004e 6564     		str	r5, [r4, #68]
 2487 0050 1F4D     		ldr	r5, .L410
 2488 0052 6785     		strh	r7, [r4, #42]	@ movhi
 2489 0054 E562     		str	r5, [r4, #44]
 2490 0056 1F4D     		ldr	r5, .L410+4
 2491 0058 6563     		str	r5, [r4, #52]
 2492 005a 658D     		ldrh	r5, [r4, #42]
 2493 005c 0190     		str	r0, [sp, #4]
 2494 005e ADB2     		uxth	r5, r5
 2495 0060 FF2D     		cmp	r5, #255
 2496 0062 98BF     		it	ls
 2497 0064 658D     		ldrhls	r5, [r4, #42]
 2498 0066 0599     		ldr	r1, [sp, #20]
 2499 0068 6662     		str	r6, [r4, #36]
 2500 006a 94BF     		ite	ls
 2501 006c ADB2     		uxthls	r5, r5
 2502 006e FF25     		movhi	r5, #255
 2503 0070 4FF01900 		mov	r0, #25
 2504 0074 DDE90332 		ldrd	r3, r2, [sp, #12]
 2505 0078 2585     		strh	r5, [r4, #40]	@ movhi
 2506 007a 0090     		str	r0, [sp]
 2507 007c 2046     		mov	r0, r4
 2508 007e 0391     		str	r1, [sp, #12]
 2509 0080 94BF     		ite	ls
 2510 0082 4FF00076 		movls	r6, #33554432
 2511 0086 4FF08076 		movhi	r6, #16777216
 2512 008a FFF7FEFF 		bl	I2C_RequestMemoryWrite
 2513 008e 0399     		ldr	r1, [sp, #12]
 2514 0090 0546     		mov	r5, r0
 2515 0092 60B1     		cbz	r0, .L402
 2516 0094 636C     		ldr	r3, [r4, #68]
 2517 0096 042B     		cmp	r3, #4
 2518 0098 4FF00003 		mov	r3, #0
ARM GAS  C:\Users\q-bir\AppData\Local\Temp\ccTrmgJ3.s 			page 44


 2519 009c 84F84030 		strb	r3, [r4, #64]
 2520 00a0 01D1     		bne	.L403
 2521              	.L406:
 2522 00a2 0125     		movs	r5, #1
 2523 00a4 00E0     		b	.L400
 2524              	.L403:
 2525 00a6 0325     		movs	r5, #3
 2526              	.L400:
 2527 00a8 2846     		mov	r0, r5
 2528 00aa 07B0     		add	sp, sp, #28
 2529              		@ sp needed
 2530 00ac F0BD     		pop	{r4, r5, r6, r7, pc}
 2531              	.L402:
 2532 00ae 0090     		str	r0, [sp]
 2533 00b0 94F82820 		ldrb	r2, [r4, #40]	@ zero_extendqisi2
 2534 00b4 2046     		mov	r0, r4
 2535 00b6 3346     		mov	r3, r6
 2536 00b8 FFF7FEFF 		bl	I2C_TransferConfig
 2537 00bc 84F84050 		strb	r5, [r4, #64]
 2538 00c0 0121     		movs	r1, #1
 2539 00c2 2046     		mov	r0, r4
 2540 00c4 FFF7FEFF 		bl	I2C_Enable_IRQ
 2541 00c8 EEE7     		b	.L400
 2542              	.L408:
 2543 00ca 0225     		movs	r5, #2
 2544 00cc ECE7     		b	.L400
 2545              	.L411:
 2546 00ce 00BF     		.align	2
 2547              	.L410:
 2548 00d0 0000FFFF 		.word	-65536
 2549 00d4 00000000 		.word	I2C_Master_ISR_IT
 2551              		.section	.text.HAL_I2C_Mem_Read_IT,"ax",%progbits
 2552              		.align	1
 2553              		.global	HAL_I2C_Mem_Read_IT
 2554              		.syntax unified
 2555              		.thumb
 2556              		.thumb_func
 2557              		.fpu fpv4-sp-d16
 2559              	HAL_I2C_Mem_Read_IT:
 2560              		@ args = 8, pretend = 0, frame = 16
 2561              		@ frame_needed = 0, uses_anonymous_args = 0
 2562 0000 F0B5     		push	{r4, r5, r6, r7, lr}
 2563 0002 0446     		mov	r4, r0
 2564 0004 90F84100 		ldrb	r0, [r0, #65]	@ zero_extendqisi2
 2565 0008 87B0     		sub	sp, sp, #28
 2566 000a 2028     		cmp	r0, #32
 2567 000c CDE90421 		strd	r2, r1, [sp, #16]
 2568 0010 0C9E     		ldr	r6, [sp, #48]
 2569 0012 BDF83470 		ldrh	r7, [sp, #52]
 2570 0016 0393     		str	r3, [sp, #12]
 2571 0018 58D1     		bne	.L421
 2572 001a 002E     		cmp	r6, #0
 2573 001c 41D0     		beq	.L419
 2574 001e 002F     		cmp	r7, #0
 2575 0020 3FD0     		beq	.L419
 2576 0022 2068     		ldr	r0, [r4]
 2577 0024 8569     		ldr	r5, [r0, #24]
ARM GAS  C:\Users\q-bir\AppData\Local\Temp\ccTrmgJ3.s 			page 45


 2578 0026 15F40045 		ands	r5, r5, #32768
 2579 002a 4FD1     		bne	.L421
 2580 002c 94F84000 		ldrb	r0, [r4, #64]	@ zero_extendqisi2
 2581 0030 0128     		cmp	r0, #1
 2582 0032 4BD0     		beq	.L421
 2583 0034 0120     		movs	r0, #1
 2584 0036 84F84000 		strb	r0, [r4, #64]
 2585 003a FFF7FEFF 		bl	HAL_GetTick
 2586 003e 4FF0220C 		mov	ip, #34
 2587 0042 84F841C0 		strb	ip, [r4, #65]
 2588 0046 4FF0400C 		mov	ip, #64
 2589 004a 84F842C0 		strb	ip, [r4, #66]
 2590 004e 6564     		str	r5, [r4, #68]
 2591 0050 1F4D     		ldr	r5, .L423
 2592 0052 6785     		strh	r7, [r4, #42]	@ movhi
 2593 0054 E562     		str	r5, [r4, #44]
 2594 0056 1F4D     		ldr	r5, .L423+4
 2595 0058 6563     		str	r5, [r4, #52]
 2596 005a 658D     		ldrh	r5, [r4, #42]
 2597 005c 0190     		str	r0, [sp, #4]
 2598 005e ADB2     		uxth	r5, r5
 2599 0060 FF2D     		cmp	r5, #255
 2600 0062 98BF     		it	ls
 2601 0064 658D     		ldrhls	r5, [r4, #42]
 2602 0066 0599     		ldr	r1, [sp, #20]
 2603 0068 6662     		str	r6, [r4, #36]
 2604 006a 94BF     		ite	ls
 2605 006c ADB2     		uxthls	r5, r5
 2606 006e FF25     		movhi	r5, #255
 2607 0070 4FF01900 		mov	r0, #25
 2608 0074 DDE90332 		ldrd	r3, r2, [sp, #12]
 2609 0078 2585     		strh	r5, [r4, #40]	@ movhi
 2610 007a 0090     		str	r0, [sp]
 2611 007c 2046     		mov	r0, r4
 2612 007e 0391     		str	r1, [sp, #12]
 2613 0080 94BF     		ite	ls
 2614 0082 4FF00076 		movls	r6, #33554432
 2615 0086 4FF08076 		movhi	r6, #16777216
 2616 008a FFF7FEFF 		bl	I2C_RequestMemoryRead
 2617 008e 0399     		ldr	r1, [sp, #12]
 2618 0090 0546     		mov	r5, r0
 2619 0092 60B1     		cbz	r0, .L415
 2620 0094 636C     		ldr	r3, [r4, #68]
 2621 0096 042B     		cmp	r3, #4
 2622 0098 4FF00003 		mov	r3, #0
 2623 009c 84F84030 		strb	r3, [r4, #64]
 2624 00a0 01D1     		bne	.L416
 2625              	.L419:
 2626 00a2 0125     		movs	r5, #1
 2627 00a4 00E0     		b	.L413
 2628              	.L416:
 2629 00a6 0325     		movs	r5, #3
 2630              	.L413:
 2631 00a8 2846     		mov	r0, r5
 2632 00aa 07B0     		add	sp, sp, #28
 2633              		@ sp needed
 2634 00ac F0BD     		pop	{r4, r5, r6, r7, pc}
ARM GAS  C:\Users\q-bir\AppData\Local\Temp\ccTrmgJ3.s 			page 46


 2635              	.L415:
 2636 00ae 0A4B     		ldr	r3, .L423+8
 2637 00b0 0093     		str	r3, [sp]
 2638 00b2 2046     		mov	r0, r4
 2639 00b4 94F82820 		ldrb	r2, [r4, #40]	@ zero_extendqisi2
 2640 00b8 3346     		mov	r3, r6
 2641 00ba FFF7FEFF 		bl	I2C_TransferConfig
 2642 00be 84F84050 		strb	r5, [r4, #64]
 2643 00c2 0221     		movs	r1, #2
 2644 00c4 2046     		mov	r0, r4
 2645 00c6 FFF7FEFF 		bl	I2C_Enable_IRQ
 2646 00ca EDE7     		b	.L413
 2647              	.L421:
 2648 00cc 0225     		movs	r5, #2
 2649 00ce EBE7     		b	.L413
 2650              	.L424:
 2651              		.align	2
 2652              	.L423:
 2653 00d0 0000FFFF 		.word	-65536
 2654 00d4 00000000 		.word	I2C_Master_ISR_IT
 2655 00d8 00240080 		.word	-2147474432
 2657              		.section	.text.HAL_I2C_Mem_Write_DMA,"ax",%progbits
 2658              		.align	1
 2659              		.global	HAL_I2C_Mem_Write_DMA
 2660              		.syntax unified
 2661              		.thumb
 2662              		.thumb_func
 2663              		.fpu fpv4-sp-d16
 2665              	HAL_I2C_Mem_Write_DMA:
 2666              		@ args = 8, pretend = 0, frame = 8
 2667              		@ frame_needed = 0, uses_anonymous_args = 0
 2668 0000 2DE9FF41 		push	{r0, r1, r2, r3, r4, r5, r6, r7, r8, lr}
 2669 0004 0E46     		mov	r6, r1
 2670 0006 90F84110 		ldrb	r1, [r0, #65]	@ zero_extendqisi2
 2671 000a 0A9F     		ldr	r7, [sp, #40]
 2672 000c BDF82C80 		ldrh	r8, [sp, #44]
 2673 0010 2029     		cmp	r1, #32
 2674 0012 CDE90232 		strd	r3, r2, [sp, #8]
 2675 0016 0446     		mov	r4, r0
 2676 0018 6ED1     		bne	.L434
 2677 001a 002F     		cmp	r7, #0
 2678 001c 3FD0     		beq	.L432
 2679 001e B8F1000F 		cmp	r8, #0
 2680 0022 3CD0     		beq	.L432
 2681 0024 0168     		ldr	r1, [r0]
 2682 0026 8D69     		ldr	r5, [r1, #24]
 2683 0028 15F40045 		ands	r5, r5, #32768
 2684 002c 64D1     		bne	.L434
 2685 002e 90F84010 		ldrb	r1, [r0, #64]	@ zero_extendqisi2
 2686 0032 0129     		cmp	r1, #1
 2687 0034 60D0     		beq	.L434
 2688 0036 0121     		movs	r1, #1
 2689 0038 80F84010 		strb	r1, [r0, #64]
 2690 003c FFF7FEFF 		bl	HAL_GetTick
 2691 0040 2121     		movs	r1, #33
 2692 0042 84F84110 		strb	r1, [r4, #65]
 2693 0046 4021     		movs	r1, #64
ARM GAS  C:\Users\q-bir\AppData\Local\Temp\ccTrmgJ3.s 			page 47


 2694 0048 84F84210 		strb	r1, [r4, #66]
 2695 004c 2B49     		ldr	r1, .L436
 2696 004e 6564     		str	r5, [r4, #68]
 2697 0050 A4F82A80 		strh	r8, [r4, #42]	@ movhi
 2698 0054 E162     		str	r1, [r4, #44]
 2699 0056 2A49     		ldr	r1, .L436+4
 2700 0058 6163     		str	r1, [r4, #52]
 2701 005a 618D     		ldrh	r1, [r4, #42]
 2702 005c 0190     		str	r0, [sp, #4]
 2703 005e 89B2     		uxth	r1, r1
 2704 0060 FF29     		cmp	r1, #255
 2705 0062 98BF     		it	ls
 2706 0064 618D     		ldrhls	r1, [r4, #42]
 2707 0066 6762     		str	r7, [r4, #36]
 2708 0068 94BF     		ite	ls
 2709 006a 89B2     		uxthls	r1, r1
 2710 006c FF21     		movhi	r1, #255
 2711 006e 2185     		strh	r1, [r4, #40]	@ movhi
 2712 0070 4FF01901 		mov	r1, #25
 2713 0074 0091     		str	r1, [sp]
 2714 0076 DDE90232 		ldrd	r3, r2, [sp, #8]
 2715 007a 3146     		mov	r1, r6
 2716 007c 2046     		mov	r0, r4
 2717 007e 94BF     		ite	ls
 2718 0080 4FF00078 		movls	r8, #33554432
 2719 0084 4FF08078 		movhi	r8, #16777216
 2720 0088 FFF7FEFF 		bl	I2C_RequestMemoryWrite
 2721 008c 0546     		mov	r5, r0
 2722 008e 68B1     		cbz	r0, .L428
 2723 0090 636C     		ldr	r3, [r4, #68]
 2724 0092 042B     		cmp	r3, #4
 2725 0094 4FF00003 		mov	r3, #0
 2726 0098 84F84030 		strb	r3, [r4, #64]
 2727 009c 01D1     		bne	.L429
 2728              	.L432:
 2729 009e 0125     		movs	r5, #1
 2730 00a0 00E0     		b	.L426
 2731              	.L429:
 2732 00a2 0325     		movs	r5, #3
 2733              	.L426:
 2734 00a4 2846     		mov	r0, r5
 2735 00a6 04B0     		add	sp, sp, #16
 2736              		@ sp needed
 2737 00a8 BDE8F081 		pop	{r4, r5, r6, r7, r8, pc}
 2738              	.L428:
 2739 00ac A06B     		ldr	r0, [r4, #56]
 2740 00ae 154B     		ldr	r3, .L436+8
 2741 00b0 2268     		ldr	r2, [r4]
 2742 00b2 8362     		str	r3, [r0, #40]
 2743 00b4 144B     		ldr	r3, .L436+12
 2744 00b6 4563     		str	r5, [r0, #52]
 2745 00b8 C0E90B53 		strd	r5, r3, [r0, #44]
 2746 00bc 2832     		adds	r2, r2, #40
 2747 00be 238D     		ldrh	r3, [r4, #40]
 2748 00c0 3946     		mov	r1, r7
 2749 00c2 FFF7FEFF 		bl	HAL_DMA_Start_IT
 2750 00c6 94F82820 		ldrb	r2, [r4, #40]	@ zero_extendqisi2
ARM GAS  C:\Users\q-bir\AppData\Local\Temp\ccTrmgJ3.s 			page 48


 2751 00ca 0095     		str	r5, [sp]
 2752 00cc 4346     		mov	r3, r8
 2753 00ce 3146     		mov	r1, r6
 2754 00d0 2046     		mov	r0, r4
 2755 00d2 FFF7FEFF 		bl	I2C_TransferConfig
 2756 00d6 638D     		ldrh	r3, [r4, #42]
 2757 00d8 228D     		ldrh	r2, [r4, #40]
 2758 00da 84F84050 		strb	r5, [r4, #64]
 2759 00de 9B1A     		subs	r3, r3, r2
 2760 00e0 9BB2     		uxth	r3, r3
 2761 00e2 6385     		strh	r3, [r4, #42]	@ movhi
 2762 00e4 1121     		movs	r1, #17
 2763 00e6 2046     		mov	r0, r4
 2764 00e8 FFF7FEFF 		bl	I2C_Enable_IRQ
 2765 00ec 2268     		ldr	r2, [r4]
 2766 00ee 1368     		ldr	r3, [r2]
 2767 00f0 43F48043 		orr	r3, r3, #16384
 2768 00f4 1360     		str	r3, [r2]
 2769 00f6 D5E7     		b	.L426
 2770              	.L434:
 2771 00f8 0225     		movs	r5, #2
 2772 00fa D3E7     		b	.L426
 2773              	.L437:
 2774              		.align	2
 2775              	.L436:
 2776 00fc 0000FFFF 		.word	-65536
 2777 0100 00000000 		.word	I2C_Master_ISR_DMA
 2778 0104 00000000 		.word	I2C_DMAMasterTransmitCplt
 2779 0108 00000000 		.word	I2C_DMAError
 2781              		.section	.text.HAL_I2C_Mem_Read_DMA,"ax",%progbits
 2782              		.align	1
 2783              		.global	HAL_I2C_Mem_Read_DMA
 2784              		.syntax unified
 2785              		.thumb
 2786              		.thumb_func
 2787              		.fpu fpv4-sp-d16
 2789              	HAL_I2C_Mem_Read_DMA:
 2790              		@ args = 8, pretend = 0, frame = 8
 2791              		@ frame_needed = 0, uses_anonymous_args = 0
 2792 0000 2DE9FF41 		push	{r0, r1, r2, r3, r4, r5, r6, r7, r8, lr}
 2793 0004 0E46     		mov	r6, r1
 2794 0006 90F84110 		ldrb	r1, [r0, #65]	@ zero_extendqisi2
 2795 000a 0A9F     		ldr	r7, [sp, #40]
 2796 000c BDF82C80 		ldrh	r8, [sp, #44]
 2797 0010 2029     		cmp	r1, #32
 2798 0012 CDE90232 		strd	r3, r2, [sp, #8]
 2799 0016 0446     		mov	r4, r0
 2800 0018 6FD1     		bne	.L447
 2801 001a 002F     		cmp	r7, #0
 2802 001c 3FD0     		beq	.L445
 2803 001e B8F1000F 		cmp	r8, #0
 2804 0022 3CD0     		beq	.L445
 2805 0024 0168     		ldr	r1, [r0]
 2806 0026 8D69     		ldr	r5, [r1, #24]
 2807 0028 15F40045 		ands	r5, r5, #32768
 2808 002c 65D1     		bne	.L447
 2809 002e 90F84010 		ldrb	r1, [r0, #64]	@ zero_extendqisi2
ARM GAS  C:\Users\q-bir\AppData\Local\Temp\ccTrmgJ3.s 			page 49


 2810 0032 0129     		cmp	r1, #1
 2811 0034 61D0     		beq	.L447
 2812 0036 0121     		movs	r1, #1
 2813 0038 80F84010 		strb	r1, [r0, #64]
 2814 003c FFF7FEFF 		bl	HAL_GetTick
 2815 0040 2221     		movs	r1, #34
 2816 0042 84F84110 		strb	r1, [r4, #65]
 2817 0046 4021     		movs	r1, #64
 2818 0048 84F84210 		strb	r1, [r4, #66]
 2819 004c 2C49     		ldr	r1, .L449
 2820 004e 6564     		str	r5, [r4, #68]
 2821 0050 A4F82A80 		strh	r8, [r4, #42]	@ movhi
 2822 0054 E162     		str	r1, [r4, #44]
 2823 0056 2B49     		ldr	r1, .L449+4
 2824 0058 6163     		str	r1, [r4, #52]
 2825 005a 618D     		ldrh	r1, [r4, #42]
 2826 005c 0190     		str	r0, [sp, #4]
 2827 005e 89B2     		uxth	r1, r1
 2828 0060 FF29     		cmp	r1, #255
 2829 0062 98BF     		it	ls
 2830 0064 618D     		ldrhls	r1, [r4, #42]
 2831 0066 6762     		str	r7, [r4, #36]
 2832 0068 94BF     		ite	ls
 2833 006a 89B2     		uxthls	r1, r1
 2834 006c FF21     		movhi	r1, #255
 2835 006e 2185     		strh	r1, [r4, #40]	@ movhi
 2836 0070 4FF01901 		mov	r1, #25
 2837 0074 0091     		str	r1, [sp]
 2838 0076 DDE90232 		ldrd	r3, r2, [sp, #8]
 2839 007a 3146     		mov	r1, r6
 2840 007c 2046     		mov	r0, r4
 2841 007e 94BF     		ite	ls
 2842 0080 4FF00078 		movls	r8, #33554432
 2843 0084 4FF08078 		movhi	r8, #16777216
 2844 0088 FFF7FEFF 		bl	I2C_RequestMemoryRead
 2845 008c 0546     		mov	r5, r0
 2846 008e 68B1     		cbz	r0, .L441
 2847 0090 636C     		ldr	r3, [r4, #68]
 2848 0092 042B     		cmp	r3, #4
 2849 0094 4FF00003 		mov	r3, #0
 2850 0098 84F84030 		strb	r3, [r4, #64]
 2851 009c 01D1     		bne	.L442
 2852              	.L445:
 2853 009e 0125     		movs	r5, #1
 2854 00a0 00E0     		b	.L439
 2855              	.L442:
 2856 00a2 0325     		movs	r5, #3
 2857              	.L439:
 2858 00a4 2846     		mov	r0, r5
 2859 00a6 04B0     		add	sp, sp, #16
 2860              		@ sp needed
 2861 00a8 BDE8F081 		pop	{r4, r5, r6, r7, r8, pc}
 2862              	.L441:
 2863 00ac E06B     		ldr	r0, [r4, #60]
 2864 00ae 164B     		ldr	r3, .L449+8
 2865 00b0 2168     		ldr	r1, [r4]
 2866 00b2 8362     		str	r3, [r0, #40]
ARM GAS  C:\Users\q-bir\AppData\Local\Temp\ccTrmgJ3.s 			page 50


 2867 00b4 154B     		ldr	r3, .L449+12
 2868 00b6 4563     		str	r5, [r0, #52]
 2869 00b8 C0E90B53 		strd	r5, r3, [r0, #44]
 2870 00bc 3A46     		mov	r2, r7
 2871 00be 238D     		ldrh	r3, [r4, #40]
 2872 00c0 2431     		adds	r1, r1, #36
 2873 00c2 FFF7FEFF 		bl	HAL_DMA_Start_IT
 2874 00c6 124B     		ldr	r3, .L449+16
 2875 00c8 94F82820 		ldrb	r2, [r4, #40]	@ zero_extendqisi2
 2876 00cc 0093     		str	r3, [sp]
 2877 00ce 3146     		mov	r1, r6
 2878 00d0 4346     		mov	r3, r8
 2879 00d2 2046     		mov	r0, r4
 2880 00d4 FFF7FEFF 		bl	I2C_TransferConfig
 2881 00d8 638D     		ldrh	r3, [r4, #42]
 2882 00da 228D     		ldrh	r2, [r4, #40]
 2883 00dc 84F84050 		strb	r5, [r4, #64]
 2884 00e0 9B1A     		subs	r3, r3, r2
 2885 00e2 9BB2     		uxth	r3, r3
 2886 00e4 2268     		ldr	r2, [r4]
 2887 00e6 6385     		strh	r3, [r4, #42]	@ movhi
 2888 00e8 1368     		ldr	r3, [r2]
 2889 00ea 43F40043 		orr	r3, r3, #32768
 2890 00ee 1360     		str	r3, [r2]
 2891 00f0 1121     		movs	r1, #17
 2892 00f2 2046     		mov	r0, r4
 2893 00f4 FFF7FEFF 		bl	I2C_Enable_IRQ
 2894 00f8 D4E7     		b	.L439
 2895              	.L447:
 2896 00fa 0225     		movs	r5, #2
 2897 00fc D2E7     		b	.L439
 2898              	.L450:
 2899 00fe 00BF     		.align	2
 2900              	.L449:
 2901 0100 0000FFFF 		.word	-65536
 2902 0104 00000000 		.word	I2C_Master_ISR_DMA
 2903 0108 00000000 		.word	I2C_DMAMasterReceiveCplt
 2904 010c 00000000 		.word	I2C_DMAError
 2905 0110 00240080 		.word	-2147474432
 2907              		.section	.text.HAL_I2C_IsDeviceReady,"ax",%progbits
 2908              		.align	1
 2909              		.global	HAL_I2C_IsDeviceReady
 2910              		.syntax unified
 2911              		.thumb
 2912              		.thumb_func
 2913              		.fpu fpv4-sp-d16
 2915              	HAL_I2C_IsDeviceReady:
 2916              		@ args = 0, pretend = 0, frame = 8
 2917              		@ frame_needed = 0, uses_anonymous_args = 0
 2918 0000 2DE9FF47 		push	{r0, r1, r2, r3, r4, r5, r6, r7, r8, r9, r10, lr}
 2919 0004 1D46     		mov	r5, r3
 2920 0006 0023     		movs	r3, #0
 2921 0008 0393     		str	r3, [sp, #12]
 2922 000a 90F84130 		ldrb	r3, [r0, #65]	@ zero_extendqisi2
 2923 000e 202B     		cmp	r3, #32
 2924 0010 0446     		mov	r4, r0
 2925 0012 9046     		mov	r8, r2
ARM GAS  C:\Users\q-bir\AppData\Local\Temp\ccTrmgJ3.s 			page 51


 2926 0014 79D1     		bne	.L468
 2927 0016 0368     		ldr	r3, [r0]
 2928 0018 9B69     		ldr	r3, [r3, #24]
 2929 001a 13F40043 		ands	r3, r3, #32768
 2930 001e 74D1     		bne	.L468
 2931 0020 90F84020 		ldrb	r2, [r0, #64]	@ zero_extendqisi2
 2932 0024 012A     		cmp	r2, #1
 2933 0026 70D0     		beq	.L468
 2934 0028 0122     		movs	r2, #1
 2935 002a C1F30906 		ubfx	r6, r1, #0, #10
 2936 002e 80F84020 		strb	r2, [r0, #64]
 2937 0032 46F00079 		orr	r9, r6, #33554432
 2938 0036 2422     		movs	r2, #36
 2939 0038 80F84120 		strb	r2, [r0, #65]
 2940 003c 49F40059 		orr	r9, r9, #8192
 2941 0040 4364     		str	r3, [r0, #68]
 2942              	.L465:
 2943 0042 E368     		ldr	r3, [r4, #12]
 2944 0044 2268     		ldr	r2, [r4]
 2945 0046 012B     		cmp	r3, #1
 2946 0048 0CBF     		ite	eq
 2947 004a 4B46     		moveq	r3, r9
 2948 004c 46F42053 		orrne	r3, r6, #10240
 2949 0050 5360     		str	r3, [r2, #4]
 2950 0052 FFF7FEFF 		bl	HAL_GetTick
 2951 0056 0746     		mov	r7, r0
 2952              	.L455:
 2953 0058 2368     		ldr	r3, [r4]
 2954              	.L456:
 2955 005a 9A69     		ldr	r2, [r3, #24]
 2956 005c 9106     		lsls	r1, r2, #26
 2957 005e 06D4     		bmi	.L459
 2958 0060 9A69     		ldr	r2, [r3, #24]
 2959 0062 D206     		lsls	r2, r2, #27
 2960 0064 03D4     		bmi	.L459
 2961 0066 94F84120 		ldrb	r2, [r4, #65]	@ zero_extendqisi2
 2962 006a A02A     		cmp	r2, #160
 2963 006c 0CD1     		bne	.L460
 2964              	.L459:
 2965 006e 9A69     		ldr	r2, [r3, #24]
 2966 0070 0097     		str	r7, [sp]
 2967 0072 12F01002 		ands	r2, r2, #16
 2968 0076 2B46     		mov	r3, r5
 2969 0078 20D1     		bne	.L461
 2970 007a 2021     		movs	r1, #32
 2971 007c 2046     		mov	r0, r4
 2972 007e FFF7FEFF 		bl	I2C_WaitOnFlagUntilTimeout
 2973 0082 88B1     		cbz	r0, .L462
 2974              	.L473:
 2975 0084 0320     		movs	r0, #3
 2976 0086 16E0     		b	.L452
 2977              	.L460:
 2978 0088 681C     		adds	r0, r5, #1
 2979 008a E6D0     		beq	.L456
 2980 008c 35B9     		cbnz	r5, .L457
 2981              	.L472:
 2982 008e 2023     		movs	r3, #32
ARM GAS  C:\Users\q-bir\AppData\Local\Temp\ccTrmgJ3.s 			page 52


 2983 0090 84F84130 		strb	r3, [r4, #65]
 2984 0094 0023     		movs	r3, #0
 2985 0096 84F84030 		strb	r3, [r4, #64]
 2986 009a F3E7     		b	.L473
 2987              	.L457:
 2988 009c FFF7FEFF 		bl	HAL_GetTick
 2989 00a0 C01B     		subs	r0, r0, r7
 2990 00a2 A842     		cmp	r0, r5
 2991 00a4 D8D9     		bls	.L455
 2992 00a6 F2E7     		b	.L472
 2993              	.L462:
 2994 00a8 2268     		ldr	r2, [r4]
 2995 00aa 2023     		movs	r3, #32
 2996 00ac D361     		str	r3, [r2, #28]
 2997 00ae 84F84130 		strb	r3, [r4, #65]
 2998 00b2 84F84000 		strb	r0, [r4, #64]
 2999              	.L452:
 3000 00b6 04B0     		add	sp, sp, #16
 3001              		@ sp needed
 3002 00b8 BDE8F087 		pop	{r4, r5, r6, r7, r8, r9, r10, pc}
 3003              	.L461:
 3004 00bc 0022     		movs	r2, #0
 3005 00be 2021     		movs	r1, #32
 3006 00c0 2046     		mov	r0, r4
 3007 00c2 FFF7FEFF 		bl	I2C_WaitOnFlagUntilTimeout
 3008 00c6 0028     		cmp	r0, #0
 3009 00c8 DCD1     		bne	.L473
 3010 00ca 2368     		ldr	r3, [r4]
 3011 00cc 1022     		movs	r2, #16
 3012 00ce 4FF0200A 		mov	r10, #32
 3013 00d2 DA61     		str	r2, [r3, #28]
 3014 00d4 C3F81CA0 		str	r10, [r3, #28]
 3015 00d8 039A     		ldr	r2, [sp, #12]
 3016 00da 511C     		adds	r1, r2, #1
 3017 00dc 4245     		cmp	r2, r8
 3018 00de 0391     		str	r1, [sp, #12]
 3019 00e0 0FD1     		bne	.L464
 3020 00e2 5A68     		ldr	r2, [r3, #4]
 3021 00e4 42F48042 		orr	r2, r2, #16384
 3022 00e8 5A60     		str	r2, [r3, #4]
 3023 00ea 5146     		mov	r1, r10
 3024 00ec 0246     		mov	r2, r0
 3025 00ee 0097     		str	r7, [sp]
 3026 00f0 2B46     		mov	r3, r5
 3027 00f2 2046     		mov	r0, r4
 3028 00f4 FFF7FEFF 		bl	I2C_WaitOnFlagUntilTimeout
 3029 00f8 0028     		cmp	r0, #0
 3030 00fa C3D1     		bne	.L473
 3031 00fc 2368     		ldr	r3, [r4]
 3032 00fe C3F81CA0 		str	r10, [r3, #28]
 3033              	.L464:
 3034 0102 039B     		ldr	r3, [sp, #12]
 3035 0104 4345     		cmp	r3, r8
 3036 0106 9CD3     		bcc	.L465
 3037 0108 C1E7     		b	.L472
 3038              	.L468:
 3039 010a 0220     		movs	r0, #2
ARM GAS  C:\Users\q-bir\AppData\Local\Temp\ccTrmgJ3.s 			page 53


 3040 010c D3E7     		b	.L452
 3042              		.section	.text.HAL_I2C_Master_Sequential_Transmit_IT,"ax",%progbits
 3043              		.align	1
 3044              		.global	HAL_I2C_Master_Sequential_Transmit_IT
 3045              		.syntax unified
 3046              		.thumb
 3047              		.thumb_func
 3048              		.fpu fpv4-sp-d16
 3050              	HAL_I2C_Master_Sequential_Transmit_IT:
 3051              		@ args = 4, pretend = 0, frame = 0
 3052              		@ frame_needed = 0, uses_anonymous_args = 0
 3053 0000 37B5     		push	{r0, r1, r2, r4, r5, lr}
 3054 0002 0446     		mov	r4, r0
 3055 0004 90F84100 		ldrb	r0, [r0, #65]	@ zero_extendqisi2
 3056 0008 2028     		cmp	r0, #32
 3057 000a 35D1     		bne	.L480
 3058 000c 94F84000 		ldrb	r0, [r4, #64]	@ zero_extendqisi2
 3059 0010 0128     		cmp	r0, #1
 3060 0012 31D0     		beq	.L480
 3061 0014 0120     		movs	r0, #1
 3062 0016 84F84000 		strb	r0, [r4, #64]
 3063 001a 2120     		movs	r0, #33
 3064 001c 84F84100 		strb	r0, [r4, #65]
 3065 0020 1020     		movs	r0, #16
 3066 0022 84F84200 		strb	r0, [r4, #66]
 3067 0026 0020     		movs	r0, #0
 3068 0028 6064     		str	r0, [r4, #68]
 3069 002a 6385     		strh	r3, [r4, #42]	@ movhi
 3070 002c 069B     		ldr	r3, [sp, #24]
 3071 002e E362     		str	r3, [r4, #44]
 3072 0030 124B     		ldr	r3, .L482
 3073 0032 6363     		str	r3, [r4, #52]
 3074 0034 638D     		ldrh	r3, [r4, #42]
 3075 0036 6262     		str	r2, [r4, #36]
 3076 0038 9BB2     		uxth	r3, r3
 3077 003a FF2B     		cmp	r3, #255
 3078 003c 9EBF     		ittt	ls
 3079 003e 638D     		ldrhls	r3, [r4, #42]
 3080 0040 2385     		strhls	r3, [r4, #40]	@ movhi
 3081 0042 E36A     		ldrls	r3, [r4, #44]
 3082 0044 226B     		ldr	r2, [r4, #48]
 3083 0046 82BF     		ittt	hi
 3084 0048 FF23     		movhi	r3, #255
 3085 004a 2385     		strhhi	r3, [r4, #40]	@ movhi
 3086 004c 4FF08073 		movhi	r3, #16777216
 3087 0050 112A     		cmp	r2, #17
 3088 0052 0B4A     		ldr	r2, .L482+4
 3089 0054 08BF     		it	eq
 3090 0056 0022     		moveq	r2, #0
 3091 0058 0092     		str	r2, [sp]
 3092 005a 2046     		mov	r0, r4
 3093 005c 94F82820 		ldrb	r2, [r4, #40]	@ zero_extendqisi2
 3094 0060 0025     		movs	r5, #0
 3095 0062 FFF7FEFF 		bl	I2C_TransferConfig
 3096 0066 84F84050 		strb	r5, [r4, #64]
 3097 006a 0121     		movs	r1, #1
 3098 006c 2046     		mov	r0, r4
ARM GAS  C:\Users\q-bir\AppData\Local\Temp\ccTrmgJ3.s 			page 54


 3099 006e FFF7FEFF 		bl	I2C_Enable_IRQ
 3100 0072 2846     		mov	r0, r5
 3101              	.L475:
 3102 0074 03B0     		add	sp, sp, #12
 3103              		@ sp needed
 3104 0076 30BD     		pop	{r4, r5, pc}
 3105              	.L480:
 3106 0078 0220     		movs	r0, #2
 3107 007a FBE7     		b	.L475
 3108              	.L483:
 3109              		.align	2
 3110              	.L482:
 3111 007c 00000000 		.word	I2C_Master_ISR_IT
 3112 0080 00200080 		.word	-2147475456
 3114              		.section	.text.HAL_I2C_Master_Sequential_Receive_IT,"ax",%progbits
 3115              		.align	1
 3116              		.global	HAL_I2C_Master_Sequential_Receive_IT
 3117              		.syntax unified
 3118              		.thumb
 3119              		.thumb_func
 3120              		.fpu fpv4-sp-d16
 3122              	HAL_I2C_Master_Sequential_Receive_IT:
 3123              		@ args = 4, pretend = 0, frame = 0
 3124              		@ frame_needed = 0, uses_anonymous_args = 0
 3125 0000 37B5     		push	{r0, r1, r2, r4, r5, lr}
 3126 0002 0446     		mov	r4, r0
 3127 0004 90F84100 		ldrb	r0, [r0, #65]	@ zero_extendqisi2
 3128 0008 2028     		cmp	r0, #32
 3129 000a 35D1     		bne	.L490
 3130 000c 94F84000 		ldrb	r0, [r4, #64]	@ zero_extendqisi2
 3131 0010 0128     		cmp	r0, #1
 3132 0012 31D0     		beq	.L490
 3133 0014 0120     		movs	r0, #1
 3134 0016 84F84000 		strb	r0, [r4, #64]
 3135 001a 2220     		movs	r0, #34
 3136 001c 84F84100 		strb	r0, [r4, #65]
 3137 0020 1020     		movs	r0, #16
 3138 0022 84F84200 		strb	r0, [r4, #66]
 3139 0026 0020     		movs	r0, #0
 3140 0028 6064     		str	r0, [r4, #68]
 3141 002a 6385     		strh	r3, [r4, #42]	@ movhi
 3142 002c 069B     		ldr	r3, [sp, #24]
 3143 002e E362     		str	r3, [r4, #44]
 3144 0030 124B     		ldr	r3, .L492
 3145 0032 6363     		str	r3, [r4, #52]
 3146 0034 638D     		ldrh	r3, [r4, #42]
 3147 0036 6262     		str	r2, [r4, #36]
 3148 0038 9BB2     		uxth	r3, r3
 3149 003a FF2B     		cmp	r3, #255
 3150 003c 9EBF     		ittt	ls
 3151 003e 638D     		ldrhls	r3, [r4, #42]
 3152 0040 2385     		strhls	r3, [r4, #40]	@ movhi
 3153 0042 E36A     		ldrls	r3, [r4, #44]
 3154 0044 226B     		ldr	r2, [r4, #48]
 3155 0046 82BF     		ittt	hi
 3156 0048 FF23     		movhi	r3, #255
 3157 004a 2385     		strhhi	r3, [r4, #40]	@ movhi
ARM GAS  C:\Users\q-bir\AppData\Local\Temp\ccTrmgJ3.s 			page 55


 3158 004c 4FF08073 		movhi	r3, #16777216
 3159 0050 122A     		cmp	r2, #18
 3160 0052 0B4A     		ldr	r2, .L492+4
 3161 0054 08BF     		it	eq
 3162 0056 0022     		moveq	r2, #0
 3163 0058 0092     		str	r2, [sp]
 3164 005a 2046     		mov	r0, r4
 3165 005c 94F82820 		ldrb	r2, [r4, #40]	@ zero_extendqisi2
 3166 0060 0025     		movs	r5, #0
 3167 0062 FFF7FEFF 		bl	I2C_TransferConfig
 3168 0066 84F84050 		strb	r5, [r4, #64]
 3169 006a 0221     		movs	r1, #2
 3170 006c 2046     		mov	r0, r4
 3171 006e FFF7FEFF 		bl	I2C_Enable_IRQ
 3172 0072 2846     		mov	r0, r5
 3173              	.L485:
 3174 0074 03B0     		add	sp, sp, #12
 3175              		@ sp needed
 3176 0076 30BD     		pop	{r4, r5, pc}
 3177              	.L490:
 3178 0078 0220     		movs	r0, #2
 3179 007a FBE7     		b	.L485
 3180              	.L493:
 3181              		.align	2
 3182              	.L492:
 3183 007c 00000000 		.word	I2C_Master_ISR_IT
 3184 0080 00240080 		.word	-2147474432
 3186              		.section	.text.HAL_I2C_Slave_Sequential_Transmit_IT,"ax",%progbits
 3187              		.align	1
 3188              		.global	HAL_I2C_Slave_Sequential_Transmit_IT
 3189              		.syntax unified
 3190              		.thumb
 3191              		.thumb_func
 3192              		.fpu fpv4-sp-d16
 3194              	HAL_I2C_Slave_Sequential_Transmit_IT:
 3195              		@ args = 0, pretend = 0, frame = 0
 3196              		@ frame_needed = 0, uses_anonymous_args = 0
 3197 0000 2DE9F041 		push	{r4, r5, r6, r7, r8, lr}
 3198 0004 9846     		mov	r8, r3
 3199 0006 90F84130 		ldrb	r3, [r0, #65]	@ zero_extendqisi2
 3200 000a 03F02803 		and	r3, r3, #40
 3201 000e 282B     		cmp	r3, #40
 3202 0010 0446     		mov	r4, r0
 3203 0012 0F46     		mov	r7, r1
 3204 0014 1646     		mov	r6, r2
 3205 0016 38D1     		bne	.L500
 3206 0018 0029     		cmp	r1, #0
 3207 001a 36D0     		beq	.L500
 3208 001c 002A     		cmp	r2, #0
 3209 001e 34D0     		beq	.L500
 3210 0020 0521     		movs	r1, #5
 3211 0022 FFF7FEFF 		bl	I2C_Disable_IRQ
 3212 0026 94F84030 		ldrb	r3, [r4, #64]	@ zero_extendqisi2
 3213 002a 012B     		cmp	r3, #1
 3214 002c 2FD0     		beq	.L501
 3215 002e 0123     		movs	r3, #1
 3216 0030 84F84030 		strb	r3, [r4, #64]
ARM GAS  C:\Users\q-bir\AppData\Local\Temp\ccTrmgJ3.s 			page 56


 3217 0034 94F84130 		ldrb	r3, [r4, #65]	@ zero_extendqisi2
 3218 0038 2A2B     		cmp	r3, #42
 3219 003a 03D1     		bne	.L496
 3220 003c 0221     		movs	r1, #2
 3221 003e 2046     		mov	r0, r4
 3222 0040 FFF7FEFF 		bl	I2C_Disable_IRQ
 3223              	.L496:
 3224 0044 2923     		movs	r3, #41
 3225 0046 84F84130 		strb	r3, [r4, #65]
 3226 004a 2568     		ldr	r5, [r4]
 3227 004c 0020     		movs	r0, #0
 3228 004e 2023     		movs	r3, #32
 3229 0050 84F84230 		strb	r3, [r4, #66]
 3230 0054 6064     		str	r0, [r4, #68]
 3231 0056 6B68     		ldr	r3, [r5, #4]
 3232 0058 23F40043 		bic	r3, r3, #32768
 3233 005c 6B60     		str	r3, [r5, #4]
 3234 005e 6685     		strh	r6, [r4, #42]	@ movhi
 3235 0060 638D     		ldrh	r3, [r4, #42]
 3236 0062 2385     		strh	r3, [r4, #40]	@ movhi
 3237 0064 C4F82C80 		str	r8, [r4, #44]
 3238 0068 0A4B     		ldr	r3, .L505
 3239 006a 6363     		str	r3, [r4, #52]
 3240 006c AB69     		ldr	r3, [r5, #24]
 3241 006e 6762     		str	r7, [r4, #36]
 3242 0070 DB03     		lsls	r3, r3, #15
 3243 0072 44BF     		itt	mi
 3244 0074 0823     		movmi	r3, #8
 3245 0076 EB61     		strmi	r3, [r5, #28]
 3246 0078 0521     		movs	r1, #5
 3247 007a 84F84000 		strb	r0, [r4, #64]
 3248 007e 2046     		mov	r0, r4
 3249 0080 FFF7FEFF 		bl	I2C_Enable_IRQ
 3250 0084 0020     		movs	r0, #0
 3251              	.L495:
 3252 0086 BDE8F081 		pop	{r4, r5, r6, r7, r8, pc}
 3253              	.L500:
 3254 008a 0120     		movs	r0, #1
 3255 008c FBE7     		b	.L495
 3256              	.L501:
 3257 008e 0220     		movs	r0, #2
 3258 0090 F9E7     		b	.L495
 3259              	.L506:
 3260 0092 00BF     		.align	2
 3261              	.L505:
 3262 0094 00000000 		.word	I2C_Slave_ISR_IT
 3264              		.section	.text.HAL_I2C_Slave_Sequential_Receive_IT,"ax",%progbits
 3265              		.align	1
 3266              		.global	HAL_I2C_Slave_Sequential_Receive_IT
 3267              		.syntax unified
 3268              		.thumb
 3269              		.thumb_func
 3270              		.fpu fpv4-sp-d16
 3272              	HAL_I2C_Slave_Sequential_Receive_IT:
 3273              		@ args = 0, pretend = 0, frame = 0
 3274              		@ frame_needed = 0, uses_anonymous_args = 0
 3275 0000 2DE9F041 		push	{r4, r5, r6, r7, r8, lr}
ARM GAS  C:\Users\q-bir\AppData\Local\Temp\ccTrmgJ3.s 			page 57


 3276 0004 9846     		mov	r8, r3
 3277 0006 90F84130 		ldrb	r3, [r0, #65]	@ zero_extendqisi2
 3278 000a 03F02803 		and	r3, r3, #40
 3279 000e 282B     		cmp	r3, #40
 3280 0010 0446     		mov	r4, r0
 3281 0012 0F46     		mov	r7, r1
 3282 0014 1646     		mov	r6, r2
 3283 0016 37D1     		bne	.L513
 3284 0018 0029     		cmp	r1, #0
 3285 001a 35D0     		beq	.L513
 3286 001c 002A     		cmp	r2, #0
 3287 001e 33D0     		beq	.L513
 3288 0020 0621     		movs	r1, #6
 3289 0022 FFF7FEFF 		bl	I2C_Disable_IRQ
 3290 0026 94F84030 		ldrb	r3, [r4, #64]	@ zero_extendqisi2
 3291 002a 012B     		cmp	r3, #1
 3292 002c 2ED0     		beq	.L514
 3293 002e 94F84130 		ldrb	r3, [r4, #65]	@ zero_extendqisi2
 3294 0032 0121     		movs	r1, #1
 3295 0034 292B     		cmp	r3, #41
 3296 0036 84F84010 		strb	r1, [r4, #64]
 3297 003a 02D1     		bne	.L509
 3298 003c 2046     		mov	r0, r4
 3299 003e FFF7FEFF 		bl	I2C_Disable_IRQ
 3300              	.L509:
 3301 0042 2A23     		movs	r3, #42
 3302 0044 84F84130 		strb	r3, [r4, #65]
 3303 0048 2568     		ldr	r5, [r4]
 3304 004a 0020     		movs	r0, #0
 3305 004c 2023     		movs	r3, #32
 3306 004e 84F84230 		strb	r3, [r4, #66]
 3307 0052 6064     		str	r0, [r4, #68]
 3308 0054 6B68     		ldr	r3, [r5, #4]
 3309 0056 23F40043 		bic	r3, r3, #32768
 3310 005a 6B60     		str	r3, [r5, #4]
 3311 005c 6685     		strh	r6, [r4, #42]	@ movhi
 3312 005e 638D     		ldrh	r3, [r4, #42]
 3313 0060 2385     		strh	r3, [r4, #40]	@ movhi
 3314 0062 C4F82C80 		str	r8, [r4, #44]
 3315 0066 0A4B     		ldr	r3, .L515
 3316 0068 6363     		str	r3, [r4, #52]
 3317 006a AB69     		ldr	r3, [r5, #24]
 3318 006c 6762     		str	r7, [r4, #36]
 3319 006e DB03     		lsls	r3, r3, #15
 3320 0070 5CBF     		itt	pl
 3321 0072 0823     		movpl	r3, #8
 3322 0074 EB61     		strpl	r3, [r5, #28]
 3323 0076 0621     		movs	r1, #6
 3324 0078 84F84000 		strb	r0, [r4, #64]
 3325 007c 2046     		mov	r0, r4
 3326 007e FFF7FEFF 		bl	I2C_Enable_IRQ
 3327 0082 0020     		movs	r0, #0
 3328              	.L508:
 3329 0084 BDE8F081 		pop	{r4, r5, r6, r7, r8, pc}
 3330              	.L513:
 3331 0088 0120     		movs	r0, #1
 3332 008a FBE7     		b	.L508
ARM GAS  C:\Users\q-bir\AppData\Local\Temp\ccTrmgJ3.s 			page 58


 3333              	.L514:
 3334 008c 0220     		movs	r0, #2
 3335 008e F9E7     		b	.L508
 3336              	.L516:
 3337              		.align	2
 3338              	.L515:
 3339 0090 00000000 		.word	I2C_Slave_ISR_IT
 3341              		.section	.text.HAL_I2C_EnableListen_IT,"ax",%progbits
 3342              		.align	1
 3343              		.global	HAL_I2C_EnableListen_IT
 3344              		.syntax unified
 3345              		.thumb
 3346              		.thumb_func
 3347              		.fpu fpv4-sp-d16
 3349              	HAL_I2C_EnableListen_IT:
 3350              		@ args = 0, pretend = 0, frame = 0
 3351              		@ frame_needed = 0, uses_anonymous_args = 0
 3352 0000 08B5     		push	{r3, lr}
 3353 0002 90F84120 		ldrb	r2, [r0, #65]	@ zero_extendqisi2
 3354 0006 202A     		cmp	r2, #32
 3355 0008 09D1     		bne	.L519
 3356 000a 2822     		movs	r2, #40
 3357 000c 80F84120 		strb	r2, [r0, #65]
 3358 0010 044A     		ldr	r2, .L520
 3359 0012 4263     		str	r2, [r0, #52]
 3360 0014 0421     		movs	r1, #4
 3361 0016 FFF7FEFF 		bl	I2C_Enable_IRQ
 3362 001a 0020     		movs	r0, #0
 3363              	.L518:
 3364 001c 08BD     		pop	{r3, pc}
 3365              	.L519:
 3366 001e 0220     		movs	r0, #2
 3367 0020 FCE7     		b	.L518
 3368              	.L521:
 3369 0022 00BF     		.align	2
 3370              	.L520:
 3371 0024 00000000 		.word	I2C_Slave_ISR_IT
 3373              		.section	.text.HAL_I2C_DisableListen_IT,"ax",%progbits
 3374              		.align	1
 3375              		.global	HAL_I2C_DisableListen_IT
 3376              		.syntax unified
 3377              		.thumb
 3378              		.thumb_func
 3379              		.fpu fpv4-sp-d16
 3381              	HAL_I2C_DisableListen_IT:
 3382              		@ args = 0, pretend = 0, frame = 0
 3383              		@ frame_needed = 0, uses_anonymous_args = 0
 3384 0000 10B5     		push	{r4, lr}
 3385 0002 90F84120 		ldrb	r2, [r0, #65]	@ zero_extendqisi2
 3386 0006 282A     		cmp	r2, #40
 3387 0008 13D1     		bne	.L524
 3388 000a 90F84110 		ldrb	r1, [r0, #65]	@ zero_extendqisi2
 3389 000e 90F84220 		ldrb	r2, [r0, #66]	@ zero_extendqisi2
 3390 0012 01F00301 		and	r1, r1, #3
 3391 0016 0A43     		orrs	r2, r2, r1
 3392 0018 0263     		str	r2, [r0, #48]
 3393 001a 0024     		movs	r4, #0
ARM GAS  C:\Users\q-bir\AppData\Local\Temp\ccTrmgJ3.s 			page 59


 3394 001c 2022     		movs	r2, #32
 3395 001e 80F84120 		strb	r2, [r0, #65]
 3396 0022 4463     		str	r4, [r0, #52]
 3397 0024 80F84240 		strb	r4, [r0, #66]
 3398 0028 0421     		movs	r1, #4
 3399 002a FFF7FEFF 		bl	I2C_Disable_IRQ
 3400 002e 2046     		mov	r0, r4
 3401              	.L523:
 3402 0030 10BD     		pop	{r4, pc}
 3403              	.L524:
 3404 0032 0220     		movs	r0, #2
 3405 0034 FCE7     		b	.L523
 3407              		.section	.text.HAL_I2C_Master_Abort_IT,"ax",%progbits
 3408              		.align	1
 3409              		.global	HAL_I2C_Master_Abort_IT
 3410              		.syntax unified
 3411              		.thumb
 3412              		.thumb_func
 3413              		.fpu fpv4-sp-d16
 3415              	HAL_I2C_Master_Abort_IT:
 3416              		@ args = 0, pretend = 0, frame = 0
 3417              		@ frame_needed = 0, uses_anonymous_args = 0
 3418 0000 73B5     		push	{r0, r1, r4, r5, r6, lr}
 3419 0002 90F84230 		ldrb	r3, [r0, #66]	@ zero_extendqisi2
 3420 0006 102B     		cmp	r3, #16
 3421 0008 0446     		mov	r4, r0
 3422 000a 0D46     		mov	r5, r1
 3423 000c 23D1     		bne	.L527
 3424 000e 90F84030 		ldrb	r3, [r0, #64]	@ zero_extendqisi2
 3425 0012 012B     		cmp	r3, #1
 3426 0014 21D0     		beq	.L528
 3427 0016 0126     		movs	r6, #1
 3428 0018 0221     		movs	r1, #2
 3429 001a 80F84060 		strb	r6, [r0, #64]
 3430 001e FFF7FEFF 		bl	I2C_Disable_IRQ
 3431 0022 3146     		mov	r1, r6
 3432 0024 2046     		mov	r0, r4
 3433 0026 FFF7FEFF 		bl	I2C_Disable_IRQ
 3434 002a 6023     		movs	r3, #96
 3435 002c 84F84130 		strb	r3, [r4, #65]
 3436 0030 0B4B     		ldr	r3, .L529
 3437 0032 0093     		str	r3, [sp]
 3438 0034 2946     		mov	r1, r5
 3439 0036 4FF00073 		mov	r3, #33554432
 3440 003a 3246     		mov	r2, r6
 3441 003c 2046     		mov	r0, r4
 3442 003e 0025     		movs	r5, #0
 3443 0040 FFF7FEFF 		bl	I2C_TransferConfig
 3444 0044 84F84050 		strb	r5, [r4, #64]
 3445 0048 1221     		movs	r1, #18
 3446 004a 2046     		mov	r0, r4
 3447 004c FFF7FEFF 		bl	I2C_Enable_IRQ
 3448 0050 2846     		mov	r0, r5
 3449              	.L526:
 3450 0052 02B0     		add	sp, sp, #8
 3451              		@ sp needed
 3452 0054 70BD     		pop	{r4, r5, r6, pc}
ARM GAS  C:\Users\q-bir\AppData\Local\Temp\ccTrmgJ3.s 			page 60


 3453              	.L527:
 3454 0056 0120     		movs	r0, #1
 3455 0058 FBE7     		b	.L526
 3456              	.L528:
 3457 005a 0220     		movs	r0, #2
 3458 005c F9E7     		b	.L526
 3459              	.L530:
 3460 005e 00BF     		.align	2
 3461              	.L529:
 3462 0060 00400080 		.word	-2147467264
 3464              		.section	.text.HAL_I2C_EV_IRQHandler,"ax",%progbits
 3465              		.align	1
 3466              		.global	HAL_I2C_EV_IRQHandler
 3467              		.syntax unified
 3468              		.thumb
 3469              		.thumb_func
 3470              		.fpu fpv4-sp-d16
 3472              	HAL_I2C_EV_IRQHandler:
 3473              		@ args = 0, pretend = 0, frame = 0
 3474              		@ frame_needed = 0, uses_anonymous_args = 0
 3475              		@ link register save eliminated.
 3476 0000 0268     		ldr	r2, [r0]
 3477 0002 436B     		ldr	r3, [r0, #52]
 3478 0004 9169     		ldr	r1, [r2, #24]
 3479 0006 1268     		ldr	r2, [r2]
 3480 0008 03B1     		cbz	r3, .L531
 3481 000a 1847     		bx	r3
 3482              	.L531:
 3483 000c 7047     		bx	lr
 3485              		.section	.text.HAL_I2C_MasterTxCpltCallback,"ax",%progbits
 3486              		.align	1
 3487              		.weak	HAL_I2C_MasterTxCpltCallback
 3488              		.syntax unified
 3489              		.thumb
 3490              		.thumb_func
 3491              		.fpu fpv4-sp-d16
 3493              	HAL_I2C_MasterTxCpltCallback:
 3494              		@ args = 0, pretend = 0, frame = 0
 3495              		@ frame_needed = 0, uses_anonymous_args = 0
 3496              		@ link register save eliminated.
 3497 0000 7047     		bx	lr
 3499              		.section	.text.HAL_I2C_MasterRxCpltCallback,"ax",%progbits
 3500              		.align	1
 3501              		.weak	HAL_I2C_MasterRxCpltCallback
 3502              		.syntax unified
 3503              		.thumb
 3504              		.thumb_func
 3505              		.fpu fpv4-sp-d16
 3507              	HAL_I2C_MasterRxCpltCallback:
 3508              		@ args = 0, pretend = 0, frame = 0
 3509              		@ frame_needed = 0, uses_anonymous_args = 0
 3510              		@ link register save eliminated.
 3511 0000 7047     		bx	lr
 3513              		.section	.text.I2C_ITMasterSequentialCplt,"ax",%progbits
 3514              		.align	1
 3515              		.syntax unified
 3516              		.thumb
ARM GAS  C:\Users\q-bir\AppData\Local\Temp\ccTrmgJ3.s 			page 61


 3517              		.thumb_func
 3518              		.fpu fpv4-sp-d16
 3520              	I2C_ITMasterSequentialCplt:
 3521              		@ args = 0, pretend = 0, frame = 0
 3522              		@ frame_needed = 0, uses_anonymous_args = 0
 3523 0000 38B5     		push	{r3, r4, r5, lr}
 3524 0002 0025     		movs	r5, #0
 3525 0004 80F84250 		strb	r5, [r0, #66]
 3526 0008 90F84130 		ldrb	r3, [r0, #65]	@ zero_extendqisi2
 3527 000c 212B     		cmp	r3, #33
 3528 000e 4FF02003 		mov	r3, #32
 3529 0012 0446     		mov	r4, r0
 3530 0014 80F84130 		strb	r3, [r0, #65]
 3531 0018 0BD1     		bne	.L536
 3532 001a 1123     		movs	r3, #17
 3533 001c 0363     		str	r3, [r0, #48]
 3534 001e 4563     		str	r5, [r0, #52]
 3535 0020 0121     		movs	r1, #1
 3536 0022 FFF7FEFF 		bl	I2C_Disable_IRQ
 3537 0026 84F84050 		strb	r5, [r4, #64]
 3538 002a 2046     		mov	r0, r4
 3539 002c FFF7FEFF 		bl	HAL_I2C_MasterTxCpltCallback
 3540              	.L535:
 3541 0030 38BD     		pop	{r3, r4, r5, pc}
 3542              	.L536:
 3543 0032 1223     		movs	r3, #18
 3544 0034 0363     		str	r3, [r0, #48]
 3545 0036 4563     		str	r5, [r0, #52]
 3546 0038 0221     		movs	r1, #2
 3547 003a FFF7FEFF 		bl	I2C_Disable_IRQ
 3548 003e 84F84050 		strb	r5, [r4, #64]
 3549 0042 2046     		mov	r0, r4
 3550 0044 FFF7FEFF 		bl	HAL_I2C_MasterRxCpltCallback
 3551 0048 F2E7     		b	.L535
 3553              		.section	.text.HAL_I2C_SlaveTxCpltCallback,"ax",%progbits
 3554              		.align	1
 3555              		.weak	HAL_I2C_SlaveTxCpltCallback
 3556              		.syntax unified
 3557              		.thumb
 3558              		.thumb_func
 3559              		.fpu fpv4-sp-d16
 3561              	HAL_I2C_SlaveTxCpltCallback:
 3562              		@ args = 0, pretend = 0, frame = 0
 3563              		@ frame_needed = 0, uses_anonymous_args = 0
 3564              		@ link register save eliminated.
 3565 0000 7047     		bx	lr
 3567              		.section	.text.HAL_I2C_SlaveRxCpltCallback,"ax",%progbits
 3568              		.align	1
 3569              		.weak	HAL_I2C_SlaveRxCpltCallback
 3570              		.syntax unified
 3571              		.thumb
 3572              		.thumb_func
 3573              		.fpu fpv4-sp-d16
 3575              	HAL_I2C_SlaveRxCpltCallback:
 3576              		@ args = 0, pretend = 0, frame = 0
 3577              		@ frame_needed = 0, uses_anonymous_args = 0
 3578              		@ link register save eliminated.
ARM GAS  C:\Users\q-bir\AppData\Local\Temp\ccTrmgJ3.s 			page 62


 3579 0000 7047     		bx	lr
 3581              		.section	.text.I2C_ITSlaveSequentialCplt,"ax",%progbits
 3582              		.align	1
 3583              		.syntax unified
 3584              		.thumb
 3585              		.thumb_func
 3586              		.fpu fpv4-sp-d16
 3588              	I2C_ITSlaveSequentialCplt:
 3589              		@ args = 0, pretend = 0, frame = 0
 3590              		@ frame_needed = 0, uses_anonymous_args = 0
 3591 0000 38B5     		push	{r3, r4, r5, lr}
 3592 0002 0025     		movs	r5, #0
 3593 0004 80F84250 		strb	r5, [r0, #66]
 3594 0008 90F84130 		ldrb	r3, [r0, #65]	@ zero_extendqisi2
 3595 000c 292B     		cmp	r3, #41
 3596 000e 0446     		mov	r4, r0
 3597 0010 0DD1     		bne	.L541
 3598 0012 2823     		movs	r3, #40
 3599 0014 80F84130 		strb	r3, [r0, #65]
 3600 0018 2123     		movs	r3, #33
 3601 001a 0363     		str	r3, [r0, #48]
 3602 001c 0121     		movs	r1, #1
 3603 001e FFF7FEFF 		bl	I2C_Disable_IRQ
 3604 0022 84F84050 		strb	r5, [r4, #64]
 3605 0026 2046     		mov	r0, r4
 3606 0028 FFF7FEFF 		bl	HAL_I2C_SlaveTxCpltCallback
 3607              	.L540:
 3608 002c 38BD     		pop	{r3, r4, r5, pc}
 3609              	.L541:
 3610 002e 90F84130 		ldrb	r3, [r0, #65]	@ zero_extendqisi2
 3611 0032 2A2B     		cmp	r3, #42
 3612 0034 FAD1     		bne	.L540
 3613 0036 2823     		movs	r3, #40
 3614 0038 80F84130 		strb	r3, [r0, #65]
 3615 003c 2223     		movs	r3, #34
 3616 003e 0363     		str	r3, [r0, #48]
 3617 0040 0221     		movs	r1, #2
 3618 0042 FFF7FEFF 		bl	I2C_Disable_IRQ
 3619 0046 84F84050 		strb	r5, [r4, #64]
 3620 004a 2046     		mov	r0, r4
 3621 004c FFF7FEFF 		bl	HAL_I2C_SlaveRxCpltCallback
 3622 0050 ECE7     		b	.L540
 3624              		.section	.text.HAL_I2C_AddrCallback,"ax",%progbits
 3625              		.align	1
 3626              		.weak	HAL_I2C_AddrCallback
 3627              		.syntax unified
 3628              		.thumb
 3629              		.thumb_func
 3630              		.fpu fpv4-sp-d16
 3632              	HAL_I2C_AddrCallback:
 3633              		@ args = 0, pretend = 0, frame = 0
 3634              		@ frame_needed = 0, uses_anonymous_args = 0
 3635              		@ link register save eliminated.
 3636 0000 7047     		bx	lr
 3638              		.section	.text.HAL_I2C_ListenCpltCallback,"ax",%progbits
 3639              		.align	1
 3640              		.weak	HAL_I2C_ListenCpltCallback
ARM GAS  C:\Users\q-bir\AppData\Local\Temp\ccTrmgJ3.s 			page 63


 3641              		.syntax unified
 3642              		.thumb
 3643              		.thumb_func
 3644              		.fpu fpv4-sp-d16
 3646              	HAL_I2C_ListenCpltCallback:
 3647              		@ args = 0, pretend = 0, frame = 0
 3648              		@ frame_needed = 0, uses_anonymous_args = 0
 3649              		@ link register save eliminated.
 3650 0000 7047     		bx	lr
 3652              		.section	.text.I2C_ITListenCplt,"ax",%progbits
 3653              		.align	1
 3654              		.syntax unified
 3655              		.thumb
 3656              		.thumb_func
 3657              		.fpu fpv4-sp-d16
 3659              	I2C_ITListenCplt:
 3660              		@ args = 0, pretend = 0, frame = 0
 3661              		@ frame_needed = 0, uses_anonymous_args = 0
 3662 0000 164B     		ldr	r3, .L552
 3663 0002 10B5     		push	{r4, lr}
 3664 0004 2022     		movs	r2, #32
 3665 0006 C362     		str	r3, [r0, #44]
 3666 0008 0023     		movs	r3, #0
 3667 000a 0363     		str	r3, [r0, #48]
 3668 000c 4363     		str	r3, [r0, #52]
 3669 000e 80F84120 		strb	r2, [r0, #65]
 3670 0012 80F84230 		strb	r3, [r0, #66]
 3671 0016 4B07     		lsls	r3, r1, #29
 3672 0018 0446     		mov	r4, r0
 3673 001a 11D5     		bpl	.L547
 3674 001c 0368     		ldr	r3, [r0]
 3675 001e 5A6A     		ldr	r2, [r3, #36]
 3676 0020 436A     		ldr	r3, [r0, #36]
 3677 0022 591C     		adds	r1, r3, #1
 3678 0024 4162     		str	r1, [r0, #36]
 3679 0026 1A70     		strb	r2, [r3]
 3680 0028 038D     		ldrh	r3, [r0, #40]
 3681 002a 4BB1     		cbz	r3, .L547
 3682 002c 013B     		subs	r3, r3, #1
 3683 002e 0385     		strh	r3, [r0, #40]	@ movhi
 3684 0030 438D     		ldrh	r3, [r0, #42]
 3685 0032 013B     		subs	r3, r3, #1
 3686 0034 9BB2     		uxth	r3, r3
 3687 0036 4385     		strh	r3, [r0, #42]	@ movhi
 3688 0038 436C     		ldr	r3, [r0, #68]
 3689 003a 43F00403 		orr	r3, r3, #4
 3690 003e 4364     		str	r3, [r0, #68]
 3691              	.L547:
 3692 0040 0721     		movs	r1, #7
 3693 0042 2046     		mov	r0, r4
 3694 0044 FFF7FEFF 		bl	I2C_Disable_IRQ
 3695 0048 2368     		ldr	r3, [r4]
 3696 004a 1022     		movs	r2, #16
 3697 004c DA61     		str	r2, [r3, #28]
 3698 004e 0023     		movs	r3, #0
 3699 0050 84F84030 		strb	r3, [r4, #64]
 3700 0054 2046     		mov	r0, r4
ARM GAS  C:\Users\q-bir\AppData\Local\Temp\ccTrmgJ3.s 			page 64


 3701 0056 FFF7FEFF 		bl	HAL_I2C_ListenCpltCallback
 3702 005a 10BD     		pop	{r4, pc}
 3703              	.L553:
 3704              		.align	2
 3705              	.L552:
 3706 005c 0000FFFF 		.word	-65536
 3708              		.section	.text.HAL_I2C_MemTxCpltCallback,"ax",%progbits
 3709              		.align	1
 3710              		.weak	HAL_I2C_MemTxCpltCallback
 3711              		.syntax unified
 3712              		.thumb
 3713              		.thumb_func
 3714              		.fpu fpv4-sp-d16
 3716              	HAL_I2C_MemTxCpltCallback:
 3717              		@ args = 0, pretend = 0, frame = 0
 3718              		@ frame_needed = 0, uses_anonymous_args = 0
 3719              		@ link register save eliminated.
 3720 0000 7047     		bx	lr
 3722              		.section	.text.HAL_I2C_MemRxCpltCallback,"ax",%progbits
 3723              		.align	1
 3724              		.weak	HAL_I2C_MemRxCpltCallback
 3725              		.syntax unified
 3726              		.thumb
 3727              		.thumb_func
 3728              		.fpu fpv4-sp-d16
 3730              	HAL_I2C_MemRxCpltCallback:
 3731              		@ args = 0, pretend = 0, frame = 0
 3732              		@ frame_needed = 0, uses_anonymous_args = 0
 3733              		@ link register save eliminated.
 3734 0000 7047     		bx	lr
 3736              		.section	.text.HAL_I2C_ErrorCallback,"ax",%progbits
 3737              		.align	1
 3738              		.weak	HAL_I2C_ErrorCallback
 3739              		.syntax unified
 3740              		.thumb
 3741              		.thumb_func
 3742              		.fpu fpv4-sp-d16
 3744              	HAL_I2C_ErrorCallback:
 3745              		@ args = 0, pretend = 0, frame = 0
 3746              		@ frame_needed = 0, uses_anonymous_args = 0
 3747              		@ link register save eliminated.
 3748 0000 7047     		bx	lr
 3750              		.section	.text.HAL_I2C_AbortCpltCallback,"ax",%progbits
 3751              		.align	1
 3752              		.weak	HAL_I2C_AbortCpltCallback
 3753              		.syntax unified
 3754              		.thumb
 3755              		.thumb_func
 3756              		.fpu fpv4-sp-d16
 3758              	HAL_I2C_AbortCpltCallback:
 3759              		@ args = 0, pretend = 0, frame = 0
 3760              		@ frame_needed = 0, uses_anonymous_args = 0
 3761              		@ link register save eliminated.
 3762 0000 7047     		bx	lr
 3764              		.section	.text.I2C_ITError,"ax",%progbits
 3765              		.align	1
 3766              		.syntax unified
ARM GAS  C:\Users\q-bir\AppData\Local\Temp\ccTrmgJ3.s 			page 65


 3767              		.thumb
 3768              		.thumb_func
 3769              		.fpu fpv4-sp-d16
 3771              	I2C_ITError:
 3772              		@ args = 0, pretend = 0, frame = 0
 3773              		@ frame_needed = 0, uses_anonymous_args = 0
 3774 0000 344B     		ldr	r3, .L583
 3775 0002 0022     		movs	r2, #0
 3776 0004 10B5     		push	{r4, lr}
 3777 0006 80F84220 		strb	r2, [r0, #66]
 3778 000a C362     		str	r3, [r0, #44]
 3779 000c 4285     		strh	r2, [r0, #42]	@ movhi
 3780 000e 436C     		ldr	r3, [r0, #68]
 3781 0010 1943     		orrs	r1, r1, r3
 3782 0012 4164     		str	r1, [r0, #68]
 3783 0014 90F84130 		ldrb	r3, [r0, #65]	@ zero_extendqisi2
 3784 0018 282B     		cmp	r3, #40
 3785 001a 0446     		mov	r4, r0
 3786 001c 07D0     		beq	.L559
 3787 001e 90F84130 		ldrb	r3, [r0, #65]	@ zero_extendqisi2
 3788 0022 292B     		cmp	r3, #41
 3789 0024 03D0     		beq	.L559
 3790 0026 90F84130 		ldrb	r3, [r0, #65]	@ zero_extendqisi2
 3791 002a 2A2B     		cmp	r3, #42
 3792 002c 21D1     		bne	.L560
 3793              	.L559:
 3794 002e 0321     		movs	r1, #3
 3795 0030 2046     		mov	r0, r4
 3796 0032 FFF7FEFF 		bl	I2C_Disable_IRQ
 3797 0036 2823     		movs	r3, #40
 3798 0038 84F84130 		strb	r3, [r4, #65]
 3799 003c 0023     		movs	r3, #0
 3800 003e 2363     		str	r3, [r4, #48]
 3801 0040 254B     		ldr	r3, .L583+4
 3802              	.L581:
 3803 0042 6363     		str	r3, [r4, #52]
 3804 0044 2368     		ldr	r3, [r4]
 3805 0046 1968     		ldr	r1, [r3]
 3806 0048 1A68     		ldr	r2, [r3]
 3807 004a 11F48041 		ands	r1, r1, #16384
 3808 004e 1DD0     		beq	.L563
 3809 0050 A06B     		ldr	r0, [r4, #56]
 3810 0052 22F48042 		bic	r2, r2, #16384
 3811 0056 1A60     		str	r2, [r3]
 3812 0058 204B     		ldr	r3, .L583+8
 3813 005a 4363     		str	r3, [r0, #52]
 3814 005c 0023     		movs	r3, #0
 3815 005e 84F84030 		strb	r3, [r4, #64]
 3816 0062 FFF7FEFF 		bl	HAL_DMA_Abort_IT
 3817 0066 70B3     		cbz	r0, .L558
 3818 0068 A06B     		ldr	r0, [r4, #56]
 3819              	.L582:
 3820 006a 436B     		ldr	r3, [r0, #52]
 3821 006c BDE81040 		pop	{r4, lr}
 3822 0070 1847     		bx	r3	@ indirect register sibling call
 3823              	.L560:
 3824 0072 0721     		movs	r1, #7
ARM GAS  C:\Users\q-bir\AppData\Local\Temp\ccTrmgJ3.s 			page 66


 3825 0074 FFF7FEFF 		bl	I2C_Disable_IRQ
 3826 0078 94F84130 		ldrb	r3, [r4, #65]	@ zero_extendqisi2
 3827 007c 602B     		cmp	r3, #96
 3828 007e 1CBF     		itt	ne
 3829 0080 2023     		movne	r3, #32
 3830 0082 84F84130 		strbne	r3, [r4, #65]
 3831 0086 0023     		movs	r3, #0
 3832 0088 2363     		str	r3, [r4, #48]
 3833 008a DAE7     		b	.L581
 3834              	.L563:
 3835 008c 12F40042 		ands	r2, r2, #32768
 3836 0090 0DD0     		beq	.L566
 3837 0092 1A68     		ldr	r2, [r3]
 3838 0094 E06B     		ldr	r0, [r4, #60]
 3839 0096 22F40042 		bic	r2, r2, #32768
 3840 009a 1A60     		str	r2, [r3]
 3841 009c 0F4B     		ldr	r3, .L583+8
 3842 009e 4363     		str	r3, [r0, #52]
 3843 00a0 84F84010 		strb	r1, [r4, #64]
 3844 00a4 FFF7FEFF 		bl	HAL_DMA_Abort_IT
 3845 00a8 68B1     		cbz	r0, .L558
 3846 00aa E06B     		ldr	r0, [r4, #60]
 3847 00ac DDE7     		b	.L582
 3848              	.L566:
 3849 00ae 94F84130 		ldrb	r3, [r4, #65]	@ zero_extendqisi2
 3850 00b2 602B     		cmp	r3, #96
 3851 00b4 08D1     		bne	.L568
 3852 00b6 2023     		movs	r3, #32
 3853 00b8 84F84130 		strb	r3, [r4, #65]
 3854 00bc 84F84020 		strb	r2, [r4, #64]
 3855 00c0 2046     		mov	r0, r4
 3856 00c2 FFF7FEFF 		bl	HAL_I2C_AbortCpltCallback
 3857              	.L558:
 3858 00c6 10BD     		pop	{r4, pc}
 3859              	.L568:
 3860 00c8 84F84020 		strb	r2, [r4, #64]
 3861 00cc 2046     		mov	r0, r4
 3862 00ce FFF7FEFF 		bl	HAL_I2C_ErrorCallback
 3863 00d2 F8E7     		b	.L558
 3864              	.L584:
 3865              		.align	2
 3866              	.L583:
 3867 00d4 0000FFFF 		.word	-65536
 3868 00d8 00000000 		.word	I2C_Slave_ISR_IT
 3869 00dc 00000000 		.word	I2C_DMAAbort
 3871              		.section	.text.I2C_ITSlaveCplt,"ax",%progbits
 3872              		.align	1
 3873              		.syntax unified
 3874              		.thumb
 3875              		.thumb_func
 3876              		.fpu fpv4-sp-d16
 3878              	I2C_ITSlaveCplt:
 3879              		@ args = 0, pretend = 0, frame = 0
 3880              		@ frame_needed = 0, uses_anonymous_args = 0
 3881 0000 38B5     		push	{r3, r4, r5, lr}
 3882 0002 0368     		ldr	r3, [r0]
 3883 0004 2022     		movs	r2, #32
ARM GAS  C:\Users\q-bir\AppData\Local\Temp\ccTrmgJ3.s 			page 67


 3884 0006 0446     		mov	r4, r0
 3885 0008 DA61     		str	r2, [r3, #28]
 3886 000a 0822     		movs	r2, #8
 3887 000c DA61     		str	r2, [r3, #28]
 3888 000e 0D46     		mov	r5, r1
 3889 0010 0721     		movs	r1, #7
 3890 0012 FFF7FEFF 		bl	I2C_Disable_IRQ
 3891 0016 2368     		ldr	r3, [r4]
 3892 0018 5A68     		ldr	r2, [r3, #4]
 3893 001a 42F40042 		orr	r2, r2, #32768
 3894 001e 5A60     		str	r2, [r3, #4]
 3895 0020 5A68     		ldr	r2, [r3, #4]
 3896 0022 22F0FF72 		bic	r2, r2, #33423360
 3897 0026 22F48B32 		bic	r2, r2, #71168
 3898 002a 22F4FF72 		bic	r2, r2, #510
 3899 002e 22F00102 		bic	r2, r2, #1
 3900 0032 5A60     		str	r2, [r3, #4]
 3901 0034 2046     		mov	r0, r4
 3902 0036 FFF7FEFF 		bl	I2C_Flush_TXDR
 3903 003a 2268     		ldr	r2, [r4]
 3904 003c 1368     		ldr	r3, [r2]
 3905 003e 5804     		lsls	r0, r3, #17
 3906 0040 02D4     		bmi	.L586
 3907 0042 1368     		ldr	r3, [r2]
 3908 0044 1904     		lsls	r1, r3, #16
 3909 0046 09D5     		bpl	.L587
 3910              	.L586:
 3911 0048 94F84130 		ldrb	r3, [r4, #65]	@ zero_extendqisi2
 3912 004c 212B     		cmp	r3, #33
 3913 004e 0CBF     		ite	eq
 3914 0050 A36B     		ldreq	r3, [r4, #56]
 3915 0052 E36B     		ldrne	r3, [r4, #60]
 3916 0054 1B68     		ldr	r3, [r3]
 3917 0056 5B68     		ldr	r3, [r3, #4]
 3918 0058 9BB2     		uxth	r3, r3
 3919 005a 6385     		strh	r3, [r4, #42]	@ movhi
 3920              	.L587:
 3921 005c 638D     		ldrh	r3, [r4, #42]
 3922 005e 9BB2     		uxth	r3, r3
 3923 0060 1BB1     		cbz	r3, .L590
 3924 0062 636C     		ldr	r3, [r4, #68]
 3925 0064 43F00403 		orr	r3, r3, #4
 3926 0068 6364     		str	r3, [r4, #68]
 3927              	.L590:
 3928 006a 6B07     		lsls	r3, r5, #29
 3929 006c 10D5     		bpl	.L592
 3930 006e 636A     		ldr	r3, [r4, #36]
 3931 0070 526A     		ldr	r2, [r2, #36]
 3932 0072 591C     		adds	r1, r3, #1
 3933 0074 6162     		str	r1, [r4, #36]
 3934 0076 1A70     		strb	r2, [r3]
 3935 0078 238D     		ldrh	r3, [r4, #40]
 3936 007a 4BB1     		cbz	r3, .L592
 3937 007c 013B     		subs	r3, r3, #1
 3938 007e 2385     		strh	r3, [r4, #40]	@ movhi
 3939 0080 638D     		ldrh	r3, [r4, #42]
 3940 0082 013B     		subs	r3, r3, #1
ARM GAS  C:\Users\q-bir\AppData\Local\Temp\ccTrmgJ3.s 			page 68


 3941 0084 9BB2     		uxth	r3, r3
 3942 0086 6385     		strh	r3, [r4, #42]	@ movhi
 3943 0088 636C     		ldr	r3, [r4, #68]
 3944 008a 43F00403 		orr	r3, r3, #4
 3945 008e 6364     		str	r3, [r4, #68]
 3946              	.L592:
 3947 0090 0023     		movs	r3, #0
 3948 0092 2363     		str	r3, [r4, #48]
 3949 0094 84F84230 		strb	r3, [r4, #66]
 3950 0098 6363     		str	r3, [r4, #52]
 3951 009a 636C     		ldr	r3, [r4, #68]
 3952 009c 6BB1     		cbz	r3, .L594
 3953 009e 616C     		ldr	r1, [r4, #68]
 3954 00a0 2046     		mov	r0, r4
 3955 00a2 FFF7FEFF 		bl	I2C_ITError
 3956 00a6 94F84130 		ldrb	r3, [r4, #65]	@ zero_extendqisi2
 3957 00aa 282B     		cmp	r3, #40
 3958 00ac 13D1     		bne	.L585
 3959 00ae 2946     		mov	r1, r5
 3960 00b0 2046     		mov	r0, r4
 3961 00b2 BDE83840 		pop	{r3, r4, r5, lr}
 3962 00b6 FFF7FEBF 		b	I2C_ITListenCplt
 3963              	.L594:
 3964 00ba E26A     		ldr	r2, [r4, #44]
 3965 00bc 12F5803F 		cmn	r2, #65536
 3966 00c0 0AD0     		beq	.L596
 3967 00c2 0E4A     		ldr	r2, .L608
 3968 00c4 E262     		str	r2, [r4, #44]
 3969 00c6 2022     		movs	r2, #32
 3970 00c8 84F84120 		strb	r2, [r4, #65]
 3971 00cc 84F84030 		strb	r3, [r4, #64]
 3972 00d0 2046     		mov	r0, r4
 3973 00d2 FFF7FEFF 		bl	HAL_I2C_ListenCpltCallback
 3974              	.L585:
 3975 00d6 38BD     		pop	{r3, r4, r5, pc}
 3976              	.L596:
 3977 00d8 94F84120 		ldrb	r2, [r4, #65]	@ zero_extendqisi2
 3978 00dc 84F84030 		strb	r3, [r4, #64]
 3979 00e0 222A     		cmp	r2, #34
 3980 00e2 4FF02002 		mov	r2, #32
 3981 00e6 84F84120 		strb	r2, [r4, #65]
 3982 00ea 2046     		mov	r0, r4
 3983 00ec 02D1     		bne	.L597
 3984 00ee FFF7FEFF 		bl	HAL_I2C_SlaveRxCpltCallback
 3985 00f2 F0E7     		b	.L585
 3986              	.L597:
 3987 00f4 FFF7FEFF 		bl	HAL_I2C_SlaveTxCpltCallback
 3988 00f8 EDE7     		b	.L585
 3989              	.L609:
 3990 00fa 00BF     		.align	2
 3991              	.L608:
 3992 00fc 0000FFFF 		.word	-65536
 3994              		.section	.text.I2C_Slave_ISR_IT,"ax",%progbits
 3995              		.align	1
 3996              		.syntax unified
 3997              		.thumb
 3998              		.thumb_func
ARM GAS  C:\Users\q-bir\AppData\Local\Temp\ccTrmgJ3.s 			page 69


 3999              		.fpu fpv4-sp-d16
 4001              	I2C_Slave_ISR_IT:
 4002              		@ args = 0, pretend = 0, frame = 0
 4003              		@ frame_needed = 0, uses_anonymous_args = 0
 4004 0000 2DE9F843 		push	{r3, r4, r5, r6, r7, r8, r9, lr}
 4005 0004 90F84030 		ldrb	r3, [r0, #64]	@ zero_extendqisi2
 4006 0008 012B     		cmp	r3, #1
 4007 000a 0446     		mov	r4, r0
 4008 000c 0D46     		mov	r5, r1
 4009 000e 1646     		mov	r6, r2
 4010 0010 00F0CB80 		beq	.L629
 4011 0014 0123     		movs	r3, #1
 4012 0016 CF06     		lsls	r7, r1, #27
 4013 0018 80F84030 		strb	r3, [r0, #64]
 4014 001c 3ED5     		bpl	.L612
 4015 001e D006     		lsls	r0, r2, #27
 4016 0020 3CD5     		bpl	.L612
 4017 0022 638D     		ldrh	r3, [r4, #42]
 4018 0024 9BB2     		uxth	r3, r3
 4019 0026 8BBB     		cbnz	r3, .L613
 4020 0028 E36A     		ldr	r3, [r4, #44]
 4021 002a B3F1007F 		cmp	r3, #33554432
 4022 002e 03D0     		beq	.L614
 4023 0030 E36A     		ldr	r3, [r4, #44]
 4024 0032 B3F1007F 		cmp	r3, #33554432
 4025 0036 14D1     		bne	.L615
 4026              	.L614:
 4027 0038 94F84130 		ldrb	r3, [r4, #65]	@ zero_extendqisi2
 4028 003c 282B     		cmp	r3, #40
 4029 003e 10D1     		bne	.L615
 4030 0040 2946     		mov	r1, r5
 4031 0042 2046     		mov	r0, r4
 4032 0044 FFF7FEFF 		bl	I2C_ITListenCplt
 4033              	.L616:
 4034 0048 AA06     		lsls	r2, r5, #26
 4035 004a 05D5     		bpl	.L628
 4036 004c B306     		lsls	r3, r6, #26
 4037 004e 03D5     		bpl	.L628
 4038 0050 2946     		mov	r1, r5
 4039 0052 2046     		mov	r0, r4
 4040 0054 FFF7FEFF 		bl	I2C_ITSlaveCplt
 4041              	.L628:
 4042 0058 0020     		movs	r0, #0
 4043 005a 84F84000 		strb	r0, [r4, #64]
 4044              	.L611:
 4045 005e BDE8F883 		pop	{r3, r4, r5, r6, r7, r8, r9, pc}
 4046              	.L615:
 4047 0062 E26A     		ldr	r2, [r4, #44]
 4048 0064 2368     		ldr	r3, [r4]
 4049 0066 12F5803F 		cmn	r2, #65536
 4050 006a 0CD0     		beq	.L617
 4051 006c 94F84120 		ldrb	r2, [r4, #65]	@ zero_extendqisi2
 4052 0070 292A     		cmp	r2, #41
 4053 0072 08D1     		bne	.L617
 4054 0074 1022     		movs	r2, #16
 4055 0076 DA61     		str	r2, [r3, #28]
 4056 0078 2046     		mov	r0, r4
ARM GAS  C:\Users\q-bir\AppData\Local\Temp\ccTrmgJ3.s 			page 70


 4057 007a FFF7FEFF 		bl	I2C_Flush_TXDR
 4058              	.L627:
 4059 007e 2046     		mov	r0, r4
 4060 0080 FFF7FEFF 		bl	I2C_ITSlaveSequentialCplt
 4061 0084 E0E7     		b	.L616
 4062              	.L617:
 4063 0086 1022     		movs	r2, #16
 4064 0088 DA61     		str	r2, [r3, #28]
 4065 008a DDE7     		b	.L616
 4066              	.L613:
 4067 008c 2368     		ldr	r3, [r4]
 4068 008e 1022     		movs	r2, #16
 4069 0090 DA61     		str	r2, [r3, #28]
 4070 0092 636C     		ldr	r3, [r4, #68]
 4071 0094 43F00403 		orr	r3, r3, #4
 4072 0098 6364     		str	r3, [r4, #68]
 4073 009a D5E7     		b	.L616
 4074              	.L612:
 4075 009c 6907     		lsls	r1, r5, #29
 4076 009e 1AD5     		bpl	.L618
 4077 00a0 7207     		lsls	r2, r6, #29
 4078 00a2 18D5     		bpl	.L618
 4079 00a4 638D     		ldrh	r3, [r4, #42]
 4080 00a6 9BB2     		uxth	r3, r3
 4081 00a8 63B1     		cbz	r3, .L619
 4082 00aa 2368     		ldr	r3, [r4]
 4083 00ac 5A6A     		ldr	r2, [r3, #36]
 4084 00ae 636A     		ldr	r3, [r4, #36]
 4085 00b0 591C     		adds	r1, r3, #1
 4086 00b2 6162     		str	r1, [r4, #36]
 4087 00b4 1A70     		strb	r2, [r3]
 4088 00b6 238D     		ldrh	r3, [r4, #40]
 4089 00b8 013B     		subs	r3, r3, #1
 4090 00ba 2385     		strh	r3, [r4, #40]	@ movhi
 4091 00bc 638D     		ldrh	r3, [r4, #42]
 4092 00be 013B     		subs	r3, r3, #1
 4093 00c0 9BB2     		uxth	r3, r3
 4094 00c2 6385     		strh	r3, [r4, #42]	@ movhi
 4095              	.L619:
 4096 00c4 638D     		ldrh	r3, [r4, #42]
 4097 00c6 9BB2     		uxth	r3, r3
 4098 00c8 002B     		cmp	r3, #0
 4099 00ca BDD1     		bne	.L616
 4100 00cc E36A     		ldr	r3, [r4, #44]
 4101 00ce 13F5803F 		cmn	r3, #65536
 4102 00d2 B9D0     		beq	.L616
 4103 00d4 D3E7     		b	.L627
 4104              	.L618:
 4105 00d6 2B07     		lsls	r3, r5, #28
 4106 00d8 46D5     		bpl	.L622
 4107 00da 3707     		lsls	r7, r6, #28
 4108 00dc 44D5     		bpl	.L622
 4109 00de 94F84130 		ldrb	r3, [r4, #65]	@ zero_extendqisi2
 4110 00e2 2068     		ldr	r0, [r4]
 4111 00e4 03F02803 		and	r3, r3, #40
 4112 00e8 282B     		cmp	r3, #40
 4113 00ea 37D1     		bne	.L623
ARM GAS  C:\Users\q-bir\AppData\Local\Temp\ccTrmgJ3.s 			page 71


 4114 00ec 8769     		ldr	r7, [r0, #24]
 4115 00ee E168     		ldr	r1, [r4, #12]
 4116 00f0 8369     		ldr	r3, [r0, #24]
 4117 00f2 0229     		cmp	r1, #2
 4118 00f4 4FEA1343 		lsr	r3, r3, #16
 4119 00f8 03F0FE09 		and	r9, r3, #254
 4120 00fc C7F30047 		ubfx	r7, r7, #16, #1
 4121 0100 8368     		ldr	r3, [r0, #8]
 4122 0102 D0F80C80 		ldr	r8, [r0, #12]
 4123 0106 20D1     		bne	.L624
 4124 0108 C3F30902 		ubfx	r2, r3, #0, #10
 4125 010c 89EAD313 		eor	r3, r9, r3, lsr #7
 4126 0110 13F00603 		ands	r3, r3, #6
 4127 0114 0FD1     		bne	.L625
 4128 0116 A16C     		ldr	r1, [r4, #72]
 4129 0118 0131     		adds	r1, r1, #1
 4130 011a A164     		str	r1, [r4, #72]
 4131 011c A16C     		ldr	r1, [r4, #72]
 4132 011e 0229     		cmp	r1, #2
 4133 0120 92D1     		bne	.L616
 4134 0122 0821     		movs	r1, #8
 4135 0124 A364     		str	r3, [r4, #72]
 4136 0126 C161     		str	r1, [r0, #28]
 4137 0128 84F84030 		strb	r3, [r4, #64]
 4138              	.L678:
 4139 012c 3946     		mov	r1, r7
 4140 012e 2046     		mov	r0, r4
 4141 0130 FFF7FEFF 		bl	HAL_I2C_AddrCallback
 4142 0134 88E7     		b	.L616
 4143              	.L625:
 4144 0136 0421     		movs	r1, #4
 4145 0138 2046     		mov	r0, r4
 4146 013a FFF7FEFF 		bl	I2C_Disable_IRQ
 4147 013e 0023     		movs	r3, #0
 4148 0140 84F84030 		strb	r3, [r4, #64]
 4149 0144 08F0FE02 		and	r2, r8, #254
 4150 0148 F0E7     		b	.L678
 4151              	.L624:
 4152 014a 0421     		movs	r1, #4
 4153 014c 2046     		mov	r0, r4
 4154 014e FFF7FEFF 		bl	I2C_Disable_IRQ
 4155 0152 0023     		movs	r3, #0
 4156 0154 84F84030 		strb	r3, [r4, #64]
 4157 0158 4A46     		mov	r2, r9
 4158 015a E7E7     		b	.L678
 4159              	.L623:
 4160 015c 0823     		movs	r3, #8
 4161 015e C361     		str	r3, [r0, #28]
 4162 0160 0023     		movs	r3, #0
 4163 0162 84F84030 		strb	r3, [r4, #64]
 4164 0166 6FE7     		b	.L616
 4165              	.L622:
 4166 0168 A807     		lsls	r0, r5, #30
 4167 016a 7FF56DAF 		bpl	.L616
 4168 016e B107     		lsls	r1, r6, #30
 4169 0170 7FF56AAF 		bpl	.L616
 4170 0174 638D     		ldrh	r3, [r4, #42]
ARM GAS  C:\Users\q-bir\AppData\Local\Temp\ccTrmgJ3.s 			page 72


 4171 0176 9BB2     		uxth	r3, r3
 4172 0178 6BB1     		cbz	r3, .L626
 4173 017a 636A     		ldr	r3, [r4, #36]
 4174 017c 5A1C     		adds	r2, r3, #1
 4175 017e 6262     		str	r2, [r4, #36]
 4176 0180 2268     		ldr	r2, [r4]
 4177 0182 1B78     		ldrb	r3, [r3]	@ zero_extendqisi2
 4178 0184 9362     		str	r3, [r2, #40]
 4179 0186 638D     		ldrh	r3, [r4, #42]
 4180 0188 013B     		subs	r3, r3, #1
 4181 018a 9BB2     		uxth	r3, r3
 4182 018c 6385     		strh	r3, [r4, #42]	@ movhi
 4183 018e 238D     		ldrh	r3, [r4, #40]
 4184 0190 013B     		subs	r3, r3, #1
 4185 0192 2385     		strh	r3, [r4, #40]	@ movhi
 4186 0194 58E7     		b	.L616
 4187              	.L626:
 4188 0196 E36A     		ldr	r3, [r4, #44]
 4189 0198 B3F1807F 		cmp	r3, #16777216
 4190 019c 3FF46FAF 		beq	.L627
 4191 01a0 E36A     		ldr	r3, [r4, #44]
 4192 01a2 002B     		cmp	r3, #0
 4193 01a4 3FF46BAF 		beq	.L627
 4194 01a8 4EE7     		b	.L616
 4195              	.L629:
 4196 01aa 0220     		movs	r0, #2
 4197 01ac 57E7     		b	.L611
 4199              		.section	.text.I2C_Slave_ISR_DMA,"ax",%progbits
 4200              		.align	1
 4201              		.syntax unified
 4202              		.thumb
 4203              		.thumb_func
 4204              		.fpu fpv4-sp-d16
 4206              	I2C_Slave_ISR_DMA:
 4207              		@ args = 0, pretend = 0, frame = 0
 4208              		@ frame_needed = 0, uses_anonymous_args = 0
 4209 0000 10B5     		push	{r4, lr}
 4210 0002 90F84030 		ldrb	r3, [r0, #64]	@ zero_extendqisi2
 4211 0006 012B     		cmp	r3, #1
 4212 0008 0446     		mov	r4, r0
 4213 000a 2ED0     		beq	.L687
 4214 000c 0123     		movs	r3, #1
 4215 000e 80F84030 		strb	r3, [r0, #64]
 4216 0012 C806     		lsls	r0, r1, #27
 4217 0014 19D5     		bpl	.L681
 4218 0016 D306     		lsls	r3, r2, #27
 4219 0018 17D5     		bpl	.L681
 4220 001a 94F84130 		ldrb	r3, [r4, #65]	@ zero_extendqisi2
 4221 001e 2268     		ldr	r2, [r4]
 4222 0020 212B     		cmp	r3, #33
 4223 0022 0CBF     		ite	eq
 4224 0024 A36B     		ldreq	r3, [r4, #56]
 4225 0026 E36B     		ldrne	r3, [r4, #60]
 4226 0028 1B68     		ldr	r3, [r3]
 4227 002a 5B68     		ldr	r3, [r3, #4]
 4228 002c B3FA83F3 		clz	r3, r3
 4229 0030 1021     		movs	r1, #16
ARM GAS  C:\Users\q-bir\AppData\Local\Temp\ccTrmgJ3.s 			page 73


 4230 0032 5B09     		lsrs	r3, r3, #5
 4231 0034 D161     		str	r1, [r2, #28]
 4232 0036 1BB1     		cbz	r3, .L684
 4233              	.L685:
 4234 0038 0020     		movs	r0, #0
 4235 003a 84F84000 		strb	r0, [r4, #64]
 4236              	.L680:
 4237 003e 10BD     		pop	{r4, pc}
 4238              	.L684:
 4239 0040 636C     		ldr	r3, [r4, #68]
 4240 0042 43F00403 		orr	r3, r3, #4
 4241 0046 6364     		str	r3, [r4, #68]
 4242 0048 F6E7     		b	.L685
 4243              	.L681:
 4244 004a 0807     		lsls	r0, r1, #28
 4245 004c 05D5     		bpl	.L686
 4246 004e 1307     		lsls	r3, r2, #28
 4247 0050 03D5     		bpl	.L686
 4248 0052 2368     		ldr	r3, [r4]
 4249 0054 0822     		movs	r2, #8
 4250 0056 DA61     		str	r2, [r3, #28]
 4251 0058 EEE7     		b	.L685
 4252              	.L686:
 4253 005a 8806     		lsls	r0, r1, #26
 4254 005c ECD5     		bpl	.L685
 4255 005e 9306     		lsls	r3, r2, #26
 4256 0060 EAD5     		bpl	.L685
 4257 0062 2046     		mov	r0, r4
 4258 0064 FFF7FEFF 		bl	I2C_ITSlaveCplt
 4259 0068 E6E7     		b	.L685
 4260              	.L687:
 4261 006a 0220     		movs	r0, #2
 4262 006c E7E7     		b	.L680
 4264              		.section	.text.I2C_ITMasterCplt,"ax",%progbits
 4265              		.align	1
 4266              		.syntax unified
 4267              		.thumb
 4268              		.thumb_func
 4269              		.fpu fpv4-sp-d16
 4271              	I2C_ITMasterCplt:
 4272              		@ args = 0, pretend = 0, frame = 0
 4273              		@ frame_needed = 0, uses_anonymous_args = 0
 4274 0000 0368     		ldr	r3, [r0]
 4275 0002 2022     		movs	r2, #32
 4276 0004 10B5     		push	{r4, lr}
 4277 0006 DA61     		str	r2, [r3, #28]
 4278 0008 5A68     		ldr	r2, [r3, #4]
 4279 000a 22F0FF72 		bic	r2, r2, #33423360
 4280 000e 22F48B32 		bic	r2, r2, #71168
 4281 0012 22F4FF72 		bic	r2, r2, #510
 4282 0016 22F00102 		bic	r2, r2, #1
 4283 001a 5A60     		str	r2, [r3, #4]
 4284 001c 0022     		movs	r2, #0
 4285 001e 0263     		str	r2, [r0, #48]
 4286 0020 4263     		str	r2, [r0, #52]
 4287 0022 A2F58032 		sub	r2, r2, #65536
 4288 0026 C262     		str	r2, [r0, #44]
ARM GAS  C:\Users\q-bir\AppData\Local\Temp\ccTrmgJ3.s 			page 74


 4289 0028 CA06     		lsls	r2, r1, #27
 4290 002a 0446     		mov	r4, r0
 4291 002c 05D5     		bpl	.L708
 4292 002e 1022     		movs	r2, #16
 4293 0030 DA61     		str	r2, [r3, #28]
 4294 0032 436C     		ldr	r3, [r0, #68]
 4295 0034 43F00403 		orr	r3, r3, #4
 4296 0038 4364     		str	r3, [r0, #68]
 4297              	.L708:
 4298 003a 2046     		mov	r0, r4
 4299 003c FFF7FEFF 		bl	I2C_Flush_TXDR
 4300 0040 0321     		movs	r1, #3
 4301 0042 FFF7FEFF 		bl	I2C_Disable_IRQ
 4302 0046 636C     		ldr	r3, [r4, #68]
 4303 0048 1BB9     		cbnz	r3, .L709
 4304 004a 94F84120 		ldrb	r2, [r4, #65]	@ zero_extendqisi2
 4305 004e 602A     		cmp	r2, #96
 4306 0050 05D1     		bne	.L710
 4307              	.L709:
 4308 0052 616C     		ldr	r1, [r4, #68]
 4309 0054 2046     		mov	r0, r4
 4310 0056 BDE81040 		pop	{r4, lr}
 4311 005a FFF7FEBF 		b	I2C_ITError
 4312              	.L710:
 4313 005e 94F84120 		ldrb	r2, [r4, #65]	@ zero_extendqisi2
 4314 0062 212A     		cmp	r2, #33
 4315 0064 11D1     		bne	.L711
 4316 0066 2022     		movs	r2, #32
 4317 0068 84F84120 		strb	r2, [r4, #65]
 4318 006c 94F84220 		ldrb	r2, [r4, #66]	@ zero_extendqisi2
 4319 0070 84F84030 		strb	r3, [r4, #64]
 4320 0074 402A     		cmp	r2, #64
 4321 0076 84F84230 		strb	r3, [r4, #66]
 4322 007a 2046     		mov	r0, r4
 4323 007c 02D1     		bne	.L712
 4324 007e FFF7FEFF 		bl	HAL_I2C_MemTxCpltCallback
 4325              	.L707:
 4326 0082 10BD     		pop	{r4, pc}
 4327              	.L712:
 4328 0084 FFF7FEFF 		bl	HAL_I2C_MasterTxCpltCallback
 4329 0088 FBE7     		b	.L707
 4330              	.L711:
 4331 008a 94F84120 		ldrb	r2, [r4, #65]	@ zero_extendqisi2
 4332 008e 222A     		cmp	r2, #34
 4333 0090 F7D1     		bne	.L707
 4334 0092 2022     		movs	r2, #32
 4335 0094 84F84120 		strb	r2, [r4, #65]
 4336 0098 94F84220 		ldrb	r2, [r4, #66]	@ zero_extendqisi2
 4337 009c 84F84030 		strb	r3, [r4, #64]
 4338 00a0 402A     		cmp	r2, #64
 4339 00a2 84F84230 		strb	r3, [r4, #66]
 4340 00a6 2046     		mov	r0, r4
 4341 00a8 02D1     		bne	.L714
 4342 00aa FFF7FEFF 		bl	HAL_I2C_MemRxCpltCallback
 4343 00ae E8E7     		b	.L707
 4344              	.L714:
 4345 00b0 FFF7FEFF 		bl	HAL_I2C_MasterRxCpltCallback
ARM GAS  C:\Users\q-bir\AppData\Local\Temp\ccTrmgJ3.s 			page 75


 4346 00b4 E5E7     		b	.L707
 4348              		.section	.text.I2C_Master_ISR_IT,"ax",%progbits
 4349              		.align	1
 4350              		.syntax unified
 4351              		.thumb
 4352              		.thumb_func
 4353              		.fpu fpv4-sp-d16
 4355              	I2C_Master_ISR_IT:
 4356              		@ args = 0, pretend = 0, frame = 0
 4357              		@ frame_needed = 0, uses_anonymous_args = 0
 4358 0000 73B5     		push	{r0, r1, r4, r5, r6, lr}
 4359 0002 90F84030 		ldrb	r3, [r0, #64]	@ zero_extendqisi2
 4360 0006 012B     		cmp	r3, #1
 4361 0008 0446     		mov	r4, r0
 4362 000a 0D46     		mov	r5, r1
 4363 000c 1646     		mov	r6, r2
 4364 000e 00F08480 		beq	.L731
 4365 0012 0123     		movs	r3, #1
 4366 0014 CA06     		lsls	r2, r1, #27
 4367 0016 80F84030 		strb	r3, [r0, #64]
 4368 001a 17D5     		bpl	.L720
 4369 001c F306     		lsls	r3, r6, #27
 4370 001e 15D5     		bpl	.L720
 4371 0020 0368     		ldr	r3, [r0]
 4372 0022 1022     		movs	r2, #16
 4373 0024 DA61     		str	r2, [r3, #28]
 4374 0026 436C     		ldr	r3, [r0, #68]
 4375 0028 43F00403 		orr	r3, r3, #4
 4376 002c 4364     		str	r3, [r0, #68]
 4377 002e FFF7FEFF 		bl	I2C_Flush_TXDR
 4378              	.L721:
 4379 0032 AA06     		lsls	r2, r5, #26
 4380 0034 05D5     		bpl	.L730
 4381 0036 B306     		lsls	r3, r6, #26
 4382 0038 03D5     		bpl	.L730
 4383 003a 2946     		mov	r1, r5
 4384 003c 2046     		mov	r0, r4
 4385 003e FFF7FEFF 		bl	I2C_ITMasterCplt
 4386              	.L730:
 4387 0042 0020     		movs	r0, #0
 4388 0044 84F84000 		strb	r0, [r4, #64]
 4389              	.L719:
 4390 0048 02B0     		add	sp, sp, #8
 4391              		@ sp needed
 4392 004a 70BD     		pop	{r4, r5, r6, pc}
 4393              	.L720:
 4394 004c 6807     		lsls	r0, r5, #29
 4395 004e 0FD5     		bpl	.L722
 4396 0050 7107     		lsls	r1, r6, #29
 4397 0052 0DD5     		bpl	.L722
 4398 0054 2368     		ldr	r3, [r4]
 4399 0056 5A6A     		ldr	r2, [r3, #36]
 4400 0058 636A     		ldr	r3, [r4, #36]
 4401 005a 591C     		adds	r1, r3, #1
 4402 005c 6162     		str	r1, [r4, #36]
 4403 005e 1A70     		strb	r2, [r3]
 4404              	.L771:
ARM GAS  C:\Users\q-bir\AppData\Local\Temp\ccTrmgJ3.s 			page 76


 4405 0060 238D     		ldrh	r3, [r4, #40]
 4406 0062 013B     		subs	r3, r3, #1
 4407 0064 2385     		strh	r3, [r4, #40]	@ movhi
 4408 0066 638D     		ldrh	r3, [r4, #42]
 4409 0068 013B     		subs	r3, r3, #1
 4410 006a 9BB2     		uxth	r3, r3
 4411 006c 6385     		strh	r3, [r4, #42]	@ movhi
 4412 006e E0E7     		b	.L721
 4413              	.L722:
 4414 0070 AA07     		lsls	r2, r5, #30
 4415 0072 08D5     		bpl	.L723
 4416 0074 B307     		lsls	r3, r6, #30
 4417 0076 06D5     		bpl	.L723
 4418 0078 636A     		ldr	r3, [r4, #36]
 4419 007a 5A1C     		adds	r2, r3, #1
 4420 007c 6262     		str	r2, [r4, #36]
 4421 007e 2268     		ldr	r2, [r4]
 4422 0080 1B78     		ldrb	r3, [r3]	@ zero_extendqisi2
 4423 0082 9362     		str	r3, [r2, #40]
 4424 0084 ECE7     		b	.L771
 4425              	.L723:
 4426 0086 2806     		lsls	r0, r5, #24
 4427 0088 32D5     		bpl	.L724
 4428 008a 7106     		lsls	r1, r6, #25
 4429 008c 30D5     		bpl	.L724
 4430 008e 208D     		ldrh	r0, [r4, #40]
 4431 0090 2268     		ldr	r2, [r4]
 4432 0092 08BB     		cbnz	r0, .L725
 4433 0094 638D     		ldrh	r3, [r4, #42]
 4434 0096 9BB2     		uxth	r3, r3
 4435 0098 F3B1     		cbz	r3, .L725
 4436 009a 5168     		ldr	r1, [r2, #4]
 4437 009c 638D     		ldrh	r3, [r4, #42]
 4438 009e 9BB2     		uxth	r3, r3
 4439 00a0 FF2B     		cmp	r3, #255
 4440 00a2 C1F30901 		ubfx	r1, r1, #0, #10
 4441 00a6 08D9     		bls	.L726
 4442 00a8 FF22     		movs	r2, #255
 4443 00aa 2285     		strh	r2, [r4, #40]	@ movhi
 4444 00ac 0090     		str	r0, [sp]
 4445 00ae 4FF08073 		mov	r3, #16777216
 4446              	.L772:
 4447 00b2 2046     		mov	r0, r4
 4448 00b4 FFF7FEFF 		bl	I2C_TransferConfig
 4449 00b8 BBE7     		b	.L721
 4450              	.L726:
 4451 00ba 628D     		ldrh	r2, [r4, #42]
 4452 00bc E36A     		ldr	r3, [r4, #44]
 4453 00be 92B2     		uxth	r2, r2
 4454 00c0 13F5803F 		cmn	r3, #65536
 4455 00c4 2285     		strh	r2, [r4, #40]	@ movhi
 4456 00c6 1CBF     		itt	ne
 4457 00c8 E36A     		ldrne	r3, [r4, #44]
 4458 00ca 0090     		strne	r0, [sp]
 4459 00cc D2B2     		uxtb	r2, r2
 4460 00ce 04BF     		itt	eq
 4461 00d0 0090     		streq	r0, [sp]
ARM GAS  C:\Users\q-bir\AppData\Local\Temp\ccTrmgJ3.s 			page 77


 4462 00d2 4FF00073 		moveq	r3, #33554432
 4463 00d6 ECE7     		b	.L772
 4464              	.L725:
 4465 00d8 5368     		ldr	r3, [r2, #4]
 4466 00da 9A01     		lsls	r2, r3, #6
 4467 00dc 03D4     		bmi	.L728
 4468              	.L729:
 4469 00de 2046     		mov	r0, r4
 4470 00e0 FFF7FEFF 		bl	I2C_ITMasterSequentialCplt
 4471 00e4 A5E7     		b	.L721
 4472              	.L728:
 4473 00e6 4021     		movs	r1, #64
 4474 00e8 2046     		mov	r0, r4
 4475 00ea FFF7FEFF 		bl	I2C_ITError
 4476 00ee A0E7     		b	.L721
 4477              	.L724:
 4478 00f0 6B06     		lsls	r3, r5, #25
 4479 00f2 9ED5     		bpl	.L721
 4480 00f4 7006     		lsls	r0, r6, #25
 4481 00f6 9CD5     		bpl	.L721
 4482 00f8 638D     		ldrh	r3, [r4, #42]
 4483 00fa 9BB2     		uxth	r3, r3
 4484 00fc 002B     		cmp	r3, #0
 4485 00fe F2D1     		bne	.L728
 4486 0100 2368     		ldr	r3, [r4]
 4487 0102 5A68     		ldr	r2, [r3, #4]
 4488 0104 9101     		lsls	r1, r2, #6
 4489 0106 94D4     		bmi	.L721
 4490 0108 E26A     		ldr	r2, [r4, #44]
 4491 010a 12F5803F 		cmn	r2, #65536
 4492 010e E6D1     		bne	.L729
 4493 0110 5A68     		ldr	r2, [r3, #4]
 4494 0112 42F48042 		orr	r2, r2, #16384
 4495 0116 5A60     		str	r2, [r3, #4]
 4496 0118 8BE7     		b	.L721
 4497              	.L731:
 4498 011a 0220     		movs	r0, #2
 4499 011c 94E7     		b	.L719
 4501              		.section	.text.I2C_Master_ISR_DMA,"ax",%progbits
 4502              		.align	1
 4503              		.syntax unified
 4504              		.thumb
 4505              		.thumb_func
 4506              		.fpu fpv4-sp-d16
 4508              	I2C_Master_ISR_DMA:
 4509              		@ args = 0, pretend = 0, frame = 0
 4510              		@ frame_needed = 0, uses_anonymous_args = 0
 4511 0000 13B5     		push	{r0, r1, r4, lr}
 4512 0002 90F84030 		ldrb	r3, [r0, #64]	@ zero_extendqisi2
 4513 0006 012B     		cmp	r3, #1
 4514 0008 0446     		mov	r4, r0
 4515 000a 59D0     		beq	.L781
 4516 000c 0123     		movs	r3, #1
 4517 000e 80F84030 		strb	r3, [r0, #64]
 4518 0012 CB06     		lsls	r3, r1, #27
 4519 0014 13D5     		bpl	.L775
 4520 0016 D306     		lsls	r3, r2, #27
ARM GAS  C:\Users\q-bir\AppData\Local\Temp\ccTrmgJ3.s 			page 78


 4521 0018 11D5     		bpl	.L775
 4522 001a 0368     		ldr	r3, [r0]
 4523 001c 1022     		movs	r2, #16
 4524 001e DA61     		str	r2, [r3, #28]
 4525 0020 436C     		ldr	r3, [r0, #68]
 4526 0022 43F00403 		orr	r3, r3, #4
 4527 0026 4364     		str	r3, [r0, #68]
 4528 0028 1221     		movs	r1, #18
 4529 002a FFF7FEFF 		bl	I2C_Enable_IRQ
 4530 002e 2046     		mov	r0, r4
 4531 0030 FFF7FEFF 		bl	I2C_Flush_TXDR
 4532              	.L776:
 4533 0034 0020     		movs	r0, #0
 4534 0036 84F84000 		strb	r0, [r4, #64]
 4535              	.L774:
 4536 003a 02B0     		add	sp, sp, #8
 4537              		@ sp needed
 4538 003c 10BD     		pop	{r4, pc}
 4539              	.L775:
 4540 003e 0806     		lsls	r0, r1, #24
 4541 0040 36D5     		bpl	.L777
 4542 0042 5306     		lsls	r3, r2, #25
 4543 0044 34D5     		bpl	.L777
 4544 0046 2368     		ldr	r3, [r4]
 4545 0048 1A68     		ldr	r2, [r3]
 4546 004a 22F04002 		bic	r2, r2, #64
 4547 004e 1A60     		str	r2, [r3]
 4548 0050 628D     		ldrh	r2, [r4, #42]
 4549 0052 92B2     		uxth	r2, r2
 4550 0054 3AB3     		cbz	r2, .L778
 4551 0056 5968     		ldr	r1, [r3, #4]
 4552 0058 638D     		ldrh	r3, [r4, #42]
 4553 005a 9BB2     		uxth	r3, r3
 4554 005c FF2B     		cmp	r3, #255
 4555 005e 96BF     		itet	ls
 4556 0060 628D     		ldrhls	r2, [r4, #42]
 4557 0062 FF22     		movhi	r2, #255
 4558 0064 92B2     		uxthls	r2, r2
 4559 0066 4FF00000 		mov	r0, #0
 4560 006a 94BF     		ite	ls
 4561 006c 4FF00073 		movls	r3, #33554432
 4562 0070 4FF08073 		movhi	r3, #16777216
 4563 0074 2285     		strh	r2, [r4, #40]	@ movhi
 4564 0076 0090     		str	r0, [sp]
 4565 0078 D2B2     		uxtb	r2, r2
 4566 007a C1F30901 		ubfx	r1, r1, #0, #10
 4567 007e 2046     		mov	r0, r4
 4568 0080 FFF7FEFF 		bl	I2C_TransferConfig
 4569 0084 638D     		ldrh	r3, [r4, #42]
 4570 0086 228D     		ldrh	r2, [r4, #40]
 4571 0088 9B1A     		subs	r3, r3, r2
 4572 008a 9BB2     		uxth	r3, r3
 4573 008c 6385     		strh	r3, [r4, #42]	@ movhi
 4574 008e 94F84130 		ldrb	r3, [r4, #65]	@ zero_extendqisi2
 4575 0092 222B     		cmp	r3, #34
 4576 0094 2368     		ldr	r3, [r4]
 4577 0096 1A68     		ldr	r2, [r3]
ARM GAS  C:\Users\q-bir\AppData\Local\Temp\ccTrmgJ3.s 			page 79


 4578 0098 0CBF     		ite	eq
 4579 009a 42F40042 		orreq	r2, r2, #32768
 4580 009e 42F48042 		orrne	r2, r2, #16384
 4581 00a2 1A60     		str	r2, [r3]
 4582 00a4 C6E7     		b	.L776
 4583              	.L778:
 4584 00a6 4021     		movs	r1, #64
 4585 00a8 2046     		mov	r0, r4
 4586 00aa FFF7FEFF 		bl	I2C_ITError
 4587 00ae C1E7     		b	.L776
 4588              	.L777:
 4589 00b0 8806     		lsls	r0, r1, #26
 4590 00b2 BFD5     		bpl	.L776
 4591 00b4 9306     		lsls	r3, r2, #26
 4592 00b6 BDD5     		bpl	.L776
 4593 00b8 2046     		mov	r0, r4
 4594 00ba FFF7FEFF 		bl	I2C_ITMasterCplt
 4595 00be B9E7     		b	.L776
 4596              	.L781:
 4597 00c0 0220     		movs	r0, #2
 4598 00c2 BAE7     		b	.L774
 4600              		.section	.text.I2C_DMAError,"ax",%progbits
 4601              		.align	1
 4602              		.syntax unified
 4603              		.thumb
 4604              		.thumb_func
 4605              		.fpu fpv4-sp-d16
 4607              	I2C_DMAError:
 4608              		@ args = 0, pretend = 0, frame = 0
 4609              		@ frame_needed = 0, uses_anonymous_args = 0
 4610              		@ link register save eliminated.
 4611 0000 406A     		ldr	r0, [r0, #36]
 4612 0002 0268     		ldr	r2, [r0]
 4613 0004 5368     		ldr	r3, [r2, #4]
 4614 0006 43F40043 		orr	r3, r3, #32768
 4615 000a 5360     		str	r3, [r2, #4]
 4616 000c 1021     		movs	r1, #16
 4617 000e FFF7FEBF 		b	I2C_ITError
 4619              		.section	.text.HAL_I2C_ER_IRQHandler,"ax",%progbits
 4620              		.align	1
 4621              		.global	HAL_I2C_ER_IRQHandler
 4622              		.syntax unified
 4623              		.thumb
 4624              		.thumb_func
 4625              		.fpu fpv4-sp-d16
 4627              	HAL_I2C_ER_IRQHandler:
 4628              		@ args = 0, pretend = 0, frame = 0
 4629              		@ frame_needed = 0, uses_anonymous_args = 0
 4630              		@ link register save eliminated.
 4631 0000 0368     		ldr	r3, [r0]
 4632 0002 9969     		ldr	r1, [r3, #24]
 4633 0004 1A68     		ldr	r2, [r3]
 4634 0006 10B4     		push	{r4}
 4635 0008 CC05     		lsls	r4, r1, #23
 4636 000a 08D5     		bpl	.L804
 4637 000c 1406     		lsls	r4, r2, #24
 4638 000e 06D5     		bpl	.L804
ARM GAS  C:\Users\q-bir\AppData\Local\Temp\ccTrmgJ3.s 			page 80


 4639 0010 446C     		ldr	r4, [r0, #68]
 4640 0012 44F00104 		orr	r4, r4, #1
 4641 0016 4464     		str	r4, [r0, #68]
 4642 0018 4FF48074 		mov	r4, #256
 4643 001c DC61     		str	r4, [r3, #28]
 4644              	.L804:
 4645 001e 4C05     		lsls	r4, r1, #21
 4646 0020 08D5     		bpl	.L805
 4647 0022 1406     		lsls	r4, r2, #24
 4648 0024 06D5     		bpl	.L805
 4649 0026 446C     		ldr	r4, [r0, #68]
 4650 0028 44F00804 		orr	r4, r4, #8
 4651 002c 4464     		str	r4, [r0, #68]
 4652 002e 4FF48064 		mov	r4, #1024
 4653 0032 DC61     		str	r4, [r3, #28]
 4654              	.L805:
 4655 0034 8905     		lsls	r1, r1, #22
 4656 0036 08D5     		bpl	.L806
 4657 0038 1206     		lsls	r2, r2, #24
 4658 003a 06D5     		bpl	.L806
 4659 003c 426C     		ldr	r2, [r0, #68]
 4660 003e 42F00202 		orr	r2, r2, #2
 4661 0042 4264     		str	r2, [r0, #68]
 4662 0044 4FF40072 		mov	r2, #512
 4663 0048 DA61     		str	r2, [r3, #28]
 4664              	.L806:
 4665 004a 436C     		ldr	r3, [r0, #68]
 4666 004c 13F00B0F 		tst	r3, #11
 4667 0050 04D0     		beq	.L803
 4668 0052 416C     		ldr	r1, [r0, #68]
 4669 0054 5DF8044B 		ldr	r4, [sp], #4
 4670 0058 FFF7FEBF 		b	I2C_ITError
 4671              	.L803:
 4672 005c 5DF8044B 		ldr	r4, [sp], #4
 4673 0060 7047     		bx	lr
 4675              		.section	.text.I2C_DMAAbort,"ax",%progbits
 4676              		.align	1
 4677              		.syntax unified
 4678              		.thumb
 4679              		.thumb_func
 4680              		.fpu fpv4-sp-d16
 4682              	I2C_DMAAbort:
 4683              		@ args = 0, pretend = 0, frame = 0
 4684              		@ frame_needed = 0, uses_anonymous_args = 0
 4685 0000 406A     		ldr	r0, [r0, #36]
 4686 0002 0268     		ldr	r2, [r0]
 4687 0004 08B5     		push	{r3, lr}
 4688 0006 5368     		ldr	r3, [r2, #4]
 4689 0008 43F40043 		orr	r3, r3, #32768
 4690 000c 5360     		str	r3, [r2, #4]
 4691 000e 826B     		ldr	r2, [r0, #56]
 4692 0010 0023     		movs	r3, #0
 4693 0012 5363     		str	r3, [r2, #52]
 4694 0014 C26B     		ldr	r2, [r0, #60]
 4695 0016 5363     		str	r3, [r2, #52]
 4696 0018 90F84130 		ldrb	r3, [r0, #65]	@ zero_extendqisi2
 4697 001c 602B     		cmp	r3, #96
ARM GAS  C:\Users\q-bir\AppData\Local\Temp\ccTrmgJ3.s 			page 81


 4698 001e 05D1     		bne	.L827
 4699 0020 2023     		movs	r3, #32
 4700 0022 80F84130 		strb	r3, [r0, #65]
 4701 0026 FFF7FEFF 		bl	HAL_I2C_AbortCpltCallback
 4702              	.L826:
 4703 002a 08BD     		pop	{r3, pc}
 4704              	.L827:
 4705 002c FFF7FEFF 		bl	HAL_I2C_ErrorCallback
 4706 0030 FBE7     		b	.L826
 4708              		.section	.text.HAL_I2C_GetState,"ax",%progbits
 4709              		.align	1
 4710              		.global	HAL_I2C_GetState
 4711              		.syntax unified
 4712              		.thumb
 4713              		.thumb_func
 4714              		.fpu fpv4-sp-d16
 4716              	HAL_I2C_GetState:
 4717              		@ args = 0, pretend = 0, frame = 0
 4718              		@ frame_needed = 0, uses_anonymous_args = 0
 4719              		@ link register save eliminated.
 4720 0000 90F84100 		ldrb	r0, [r0, #65]	@ zero_extendqisi2
 4721 0004 7047     		bx	lr
 4723              		.section	.text.HAL_I2C_GetMode,"ax",%progbits
 4724              		.align	1
 4725              		.global	HAL_I2C_GetMode
 4726              		.syntax unified
 4727              		.thumb
 4728              		.thumb_func
 4729              		.fpu fpv4-sp-d16
 4731              	HAL_I2C_GetMode:
 4732              		@ args = 0, pretend = 0, frame = 0
 4733              		@ frame_needed = 0, uses_anonymous_args = 0
 4734              		@ link register save eliminated.
 4735 0000 90F84200 		ldrb	r0, [r0, #66]	@ zero_extendqisi2
 4736 0004 7047     		bx	lr
 4738              		.section	.text.HAL_I2C_GetError,"ax",%progbits
 4739              		.align	1
 4740              		.global	HAL_I2C_GetError
 4741              		.syntax unified
 4742              		.thumb
 4743              		.thumb_func
 4744              		.fpu fpv4-sp-d16
 4746              	HAL_I2C_GetError:
 4747              		@ args = 0, pretend = 0, frame = 0
 4748              		@ frame_needed = 0, uses_anonymous_args = 0
 4749              		@ link register save eliminated.
 4750 0000 406C     		ldr	r0, [r0, #68]
 4751 0002 7047     		bx	lr
 4753              		.ident	"GCC: (GNU Arm Embedded Toolchain 9-2020-q2-update) 9.3.1 20200408 (release)"
ARM GAS  C:\Users\q-bir\AppData\Local\Temp\ccTrmgJ3.s 			page 82

