ARM GAS  C:\Users\gyoku\AppData\Local\Temp\ccQxn6nU.s 			page 1


   1              		.cpu cortex-m4
   2              		.eabi_attribute 27, 1
   3              		.eabi_attribute 28, 1
   4              		.eabi_attribute 20, 1
   5              		.eabi_attribute 21, 1
   6              		.eabi_attribute 23, 3
   7              		.eabi_attribute 24, 1
   8              		.eabi_attribute 25, 1
   9              		.eabi_attribute 26, 1
  10              		.eabi_attribute 30, 4
  11              		.eabi_attribute 34, 1
  12              		.eabi_attribute 18, 4
  13              		.file	"system_stm32f3xx.c"
  14              		.text
  15              		.section	.text.SystemInit,"ax",%progbits
  16              		.align	1
  17              		.global	SystemInit
  18              		.arch armv7e-m
  19              		.syntax unified
  20              		.thumb
  21              		.thumb_func
  22              		.fpu fpv4-sp-d16
  24              	SystemInit:
  25              		@ args = 0, pretend = 0, frame = 0
  26              		@ frame_needed = 0, uses_anonymous_args = 0
  27              		@ link register save eliminated.
  28 0000 1549     		ldr	r1, .L2
  29 0002 D1F88830 		ldr	r3, [r1, #136]
  30 0006 43F47003 		orr	r3, r3, #15728640
  31 000a C1F88830 		str	r3, [r1, #136]
  32 000e 134B     		ldr	r3, .L2+4
  33 0010 1A68     		ldr	r2, [r3]
  34 0012 42F00102 		orr	r2, r2, #1
  35 0016 1A60     		str	r2, [r3]
  36 0018 5868     		ldr	r0, [r3, #4]
  37 001a 114A     		ldr	r2, .L2+8
  38 001c 0240     		ands	r2, r2, r0
  39 001e 5A60     		str	r2, [r3, #4]
  40 0020 1A68     		ldr	r2, [r3]
  41 0022 22F08472 		bic	r2, r2, #17301504
  42 0026 22F48032 		bic	r2, r2, #65536
  43 002a 1A60     		str	r2, [r3]
  44 002c 1A68     		ldr	r2, [r3]
  45 002e 22F48022 		bic	r2, r2, #262144
  46 0032 1A60     		str	r2, [r3]
  47 0034 5A68     		ldr	r2, [r3, #4]
  48 0036 22F4FE02 		bic	r2, r2, #8323072
  49 003a 5A60     		str	r2, [r3, #4]
  50 003c DA6A     		ldr	r2, [r3, #44]
  51 003e 22F00F02 		bic	r2, r2, #15
  52 0042 DA62     		str	r2, [r3, #44]
  53 0044 186B     		ldr	r0, [r3, #48]
  54 0046 074A     		ldr	r2, .L2+12
  55 0048 0240     		ands	r2, r2, r0
  56 004a 1A63     		str	r2, [r3, #48]
  57 004c 0022     		movs	r2, #0
  58 004e 9A60     		str	r2, [r3, #8]
ARM GAS  C:\Users\gyoku\AppData\Local\Temp\ccQxn6nU.s 			page 2


  59 0050 4FF00063 		mov	r3, #134217728
  60 0054 8B60     		str	r3, [r1, #8]
  61 0056 7047     		bx	lr
  62              	.L3:
  63              		.align	2
  64              	.L2:
  65 0058 00ED00E0 		.word	-536810240
  66 005c 00100240 		.word	1073876992
  67 0060 0CC07FF8 		.word	-125845492
  68 0064 CCFC00FF 		.word	-16712500
  70              		.section	.text.SystemCoreClockUpdate,"ax",%progbits
  71              		.align	1
  72              		.global	SystemCoreClockUpdate
  73              		.syntax unified
  74              		.thumb
  75              		.thumb_func
  76              		.fpu fpv4-sp-d16
  78              	SystemCoreClockUpdate:
  79              		@ args = 0, pretend = 0, frame = 0
  80              		@ frame_needed = 0, uses_anonymous_args = 0
  81 0000 144A     		ldr	r2, .L14
  82 0002 1549     		ldr	r1, .L14+4
  83 0004 5368     		ldr	r3, [r2, #4]
  84 0006 03F00C03 		and	r3, r3, #12
  85 000a 042B     		cmp	r3, #4
  86 000c 10B5     		push	{r4, lr}
  87 000e 01D0     		beq	.L5
  88 0010 082B     		cmp	r3, #8
  89 0012 0AD0     		beq	.L6
  90              	.L5:
  91 0014 114B     		ldr	r3, .L14+8
  92              	.L12:
  93 0016 0B60     		str	r3, [r1]
  94 0018 5368     		ldr	r3, [r2, #4]
  95 001a 114A     		ldr	r2, .L14+12
  96 001c C3F30313 		ubfx	r3, r3, #4, #4
  97 0020 D25C     		ldrb	r2, [r2, r3]	@ zero_extendqisi2
  98 0022 0B68     		ldr	r3, [r1]
  99 0024 D340     		lsrs	r3, r3, r2
 100 0026 0B60     		str	r3, [r1]
 101 0028 10BD     		pop	{r4, pc}
 102              	.L6:
 103 002a 5368     		ldr	r3, [r2, #4]
 104 002c 5068     		ldr	r0, [r2, #4]
 105 002e C003     		lsls	r0, r0, #15
 106 0030 49BF     		itett	mi
 107 0032 D06A     		ldrmi	r0, [r2, #44]
 108 0034 0B48     		ldrpl	r0, .L14+16
 109 0036 094C     		ldrmi	r4, .L14+8
 110 0038 00F00F00 		andmi	r0, r0, #15
 111 003c C3F38343 		ubfx	r3, r3, #18, #4
 112 0040 48BF     		it	mi
 113 0042 0130     		addmi	r0, r0, #1
 114 0044 03F10203 		add	r3, r3, #2
 115 0048 48BF     		it	mi
 116 004a B4FBF0F0 		udivmi	r0, r4, r0
 117 004e 4343     		muls	r3, r0, r3
ARM GAS  C:\Users\gyoku\AppData\Local\Temp\ccQxn6nU.s 			page 3


 118 0050 E1E7     		b	.L12
 119              	.L15:
 120 0052 00BF     		.align	2
 121              	.L14:
 122 0054 00100240 		.word	1073876992
 123 0058 00000000 		.word	.LANCHOR0
 124 005c 00127A00 		.word	8000000
 125 0060 00000000 		.word	.LANCHOR1
 126 0064 00093D00 		.word	4000000
 128              		.global	APBPrescTable
 129              		.global	AHBPrescTable
 130              		.global	SystemCoreClock
 131              		.section	.data.SystemCoreClock,"aw"
 132              		.align	2
 133              		.set	.LANCHOR0,. + 0
 136              	SystemCoreClock:
 137 0000 00127A00 		.word	8000000
 138              		.section	.rodata.AHBPrescTable,"a"
 139              		.set	.LANCHOR1,. + 0
 142              	AHBPrescTable:
 143 0000 00       		.byte	0
 144 0001 00       		.byte	0
 145 0002 00       		.byte	0
 146 0003 00       		.byte	0
 147 0004 00       		.byte	0
 148 0005 00       		.byte	0
 149 0006 00       		.byte	0
 150 0007 00       		.byte	0
 151 0008 01       		.byte	1
 152 0009 02       		.byte	2
 153 000a 03       		.byte	3
 154 000b 04       		.byte	4
 155 000c 06       		.byte	6
 156 000d 07       		.byte	7
 157 000e 08       		.byte	8
 158 000f 09       		.byte	9
 159              		.section	.rodata.APBPrescTable,"a"
 162              	APBPrescTable:
 163 0000 00       		.byte	0
 164 0001 00       		.byte	0
 165 0002 00       		.byte	0
 166 0003 00       		.byte	0
 167 0004 01       		.byte	1
 168 0005 02       		.byte	2
 169 0006 03       		.byte	3
 170 0007 04       		.byte	4
 171              		.ident	"GCC: (GNU MCU Eclipse ARM Embedded GCC, 64-bit) 8.2.1 20181213 (release) [gcc-8-branch rev
ARM GAS  C:\Users\gyoku\AppData\Local\Temp\ccQxn6nU.s 			page 4


DEFINED SYMBOLS
                            *ABS*:0000000000000000 system_stm32f3xx.c
C:\Users\gyoku\AppData\Local\Temp\ccQxn6nU.s:16     .text.SystemInit:0000000000000000 $t
C:\Users\gyoku\AppData\Local\Temp\ccQxn6nU.s:24     .text.SystemInit:0000000000000000 SystemInit
C:\Users\gyoku\AppData\Local\Temp\ccQxn6nU.s:65     .text.SystemInit:0000000000000058 $d
C:\Users\gyoku\AppData\Local\Temp\ccQxn6nU.s:71     .text.SystemCoreClockUpdate:0000000000000000 $t
C:\Users\gyoku\AppData\Local\Temp\ccQxn6nU.s:78     .text.SystemCoreClockUpdate:0000000000000000 SystemCoreClockUpdate
C:\Users\gyoku\AppData\Local\Temp\ccQxn6nU.s:122    .text.SystemCoreClockUpdate:0000000000000054 $d
C:\Users\gyoku\AppData\Local\Temp\ccQxn6nU.s:162    .rodata.APBPrescTable:0000000000000000 APBPrescTable
C:\Users\gyoku\AppData\Local\Temp\ccQxn6nU.s:142    .rodata.AHBPrescTable:0000000000000000 AHBPrescTable
C:\Users\gyoku\AppData\Local\Temp\ccQxn6nU.s:136    .data.SystemCoreClock:0000000000000000 SystemCoreClock
C:\Users\gyoku\AppData\Local\Temp\ccQxn6nU.s:132    .data.SystemCoreClock:0000000000000000 $d

NO UNDEFINED SYMBOLS
